 canvas

 Timestamp is 58a9bb5c (Sun Feb 19 18:35:56 2017)

 Preferred load address is 0000000180000000

 Start         Length     Name                   Class
 0001:00000000 000000c0H .text$di                CODE
 0001:000000c0 000297c0H .text$mn                CODE
 0001:00029880 000001e0H .text$mn$00             CODE
 0001:00029a60 00000690H .text$x                 CODE
 0001:0002a0f0 000000b1H .text$yd                CODE
 0002:00000000 000008d8H .idata$5                DATA
 0002:000008d8 00000010H .00cfg                  DATA
 0002:000008e8 00000008H .CRT$XCA                DATA
 0002:000008f0 00000038H .CRT$XCU                DATA
 0002:00000928 00000008H .CRT$XCZ                DATA
 0002:00000930 00000008H .CRT$XIA                DATA
 0002:00000938 00000018H .CRT$XIC                DATA
 0002:00000950 00000008H .CRT$XIZ                DATA
 0002:00000958 00000008H .CRT$XPA                DATA
 0002:00000960 00000010H .CRT$XPX                DATA
 0002:00000970 00000008H .CRT$XPXA               DATA
 0002:00000978 00000008H .CRT$XPZ                DATA
 0002:00000980 00000008H .CRT$XTA                DATA
 0002:00000988 00000008H .CRT$XTZ                DATA
 0002:00000990 0000b498H .rdata                  DATA
 0002:0000be28 0000037cH .rdata$r                DATA
 0002:0000c1a4 000003acH .rdata$zzzdbg           DATA
 0002:0000c550 00000008H .rtc$IAA                DATA
 0002:0000c558 00000008H .rtc$IZZ                DATA
 0002:0000c560 00000008H .rtc$TAA                DATA
 0002:0000c568 00000008H .rtc$TZZ                DATA
 0002:0000c570 00002a60H .xdata                  DATA
 0002:0000efd0 000001e0H .xdata$x                DATA
 0002:0000f1b0 00000050H .edata                  DATA
 0002:0000f200 00000064H .idata$2                DATA
 0002:0000f264 00000014H .idata$3                DATA
 0002:0000f278 000008d8H .idata$4                DATA
 0002:0000fb50 00002710H .idata$6                DATA
 0003:00000000 00000a60H .data                   DATA
 0003:00000a60 00000120H .data$r                 DATA
 0003:00000b80 00001204H .bss                    DATA
 0004:00000000 00002340H .pdata                  DATA
 0005:00000000 00000084H .gfids$x                DATA
 0005:00000084 00000050H .gfids$y                DATA
 0006:00000000 00000060H .rsrc$01                DATA
 0006:00000060 00000180H .rsrc$02                DATA

  Address         Publics by Value              Rva+Base               Lib:Object

 0000:00000000       __dynamic_value_reloc_table 0000000000000000     <absolute>
 0000:00000000       __guard_longjmp_table      0000000000000000     <absolute>
 0000:00000000       __guard_iat_count          0000000000000000     <absolute>
 0000:00000000       __guard_longjmp_count      0000000000000000     <absolute>
 0000:00000000       __guard_iat_table          0000000000000000     <absolute>
 0000:00000000       __guard_fids_count         0000000000000000     <absolute>
 0000:00000000       ___safe_se_handler_table   0000000000000000     <absolute>
 0000:00000000       ___safe_se_handler_count   0000000000000000     <absolute>
 0000:00000000       __guard_fids_table         0000000000000000     <absolute>
 0000:00000100       __guard_flags              0000000000000100     <absolute>
 0000:00000000       __ImageBase                0000000180000000     <linker-defined>
 0001:00000330       ?NewInstance@Nan@@YA?AV?$MaybeLocal@VObject@v8@@@v8@@V?$Local@VObjectTemplate@v8@@@3@@Z 0000000180001330 f i Canvas.obj
 0001:000003b0       ?Set@Nan@@YA?AV?$Maybe@_N@v8@@V?$Local@VObject@v8@@@3@V?$Local@VValue@v8@@@3@1@Z 00000001800013b0 f i Canvas.obj
 0001:00000440       ?Call@Nan@@YA?AV?$MaybeLocal@VValue@v8@@@v8@@V?$Local@VFunction@v8@@@3@V?$Local@VObject@v8@@@3@HQEAV?$Local@VValue@v8@@@3@@Z 0000000180001440 f i Canvas.obj
 0001:000004f0       ?convert@?$ToFactory@VUint32@v8@@@imp@Nan@@SA?AV?$MaybeLocal@VUint32@v8@@@v8@@V?$Local@VValue@v8@@@5@@Z 00000001800014f0 f i Canvas.obj
 0001:00000580       ?New@?$Factory@VFunctionTemplate@v8@@@imp@Nan@@SA?AV?$Local@VFunctionTemplate@v8@@@v8@@P6AXAEBV?$FunctionCallbackInfo@VValue@v8@@@3@@ZV?$Local@VValue@v8@@@5@V?$Local@VSignature@v8@@@5@@Z 0000000180001580 f i Canvas.obj
 0001:00000700       ??1HandleScope@Nan@@QEAA@XZ 0000000180001700 f i Canvas.obj
 0001:00000700       ??1EscapableHandleScope@Nan@@QEAA@XZ 0000000180001700 f i Canvas.obj
 0001:00000710       ?ThrowRangeError@Nan@@YAXPEBD@Z 0000000180001710 f i Canvas.obj
 0001:000007b0       ?ThrowTypeError@Nan@@YAXPEBD@Z 00000001800017b0 f i Canvas.obj
 0001:00000850       ?Call@Callback@Nan@@QEBA?AV?$Local@VValue@v8@@@v8@@HQEAV34@@Z 0000000180001850 f i Canvas.obj
 0001:00000900       ?Call_@Callback@Nan@@AEBA?AV?$Local@VValue@v8@@@v8@@PEAVIsolate@4@V?$Local@VObject@v8@@@4@HQEAV34@@Z 0000000180001900 f i Canvas.obj
 0001:000009c0       ??_GCallback@Nan@@QEAAPEAXI@Z 00000001800019c0 f i Canvas.obj
 0001:00000a00       ?SetPrototypeMethod@Nan@@YAXV?$Local@VFunctionTemplate@v8@@@v8@@PEBDP6AXAEBV?$FunctionCallbackInfo@VValue@v8@@@1@@Z@Z 0000000180001a00 f i Canvas.obj
 0001:00000b10       ?SetAccessor@Nan@@YAXV?$Local@VObjectTemplate@v8@@@v8@@V?$Local@VString@v8@@@3@P6AX1AEBV?$PropertyCallbackInfo@VValue@v8@@@1@@ZP6AX1V?$Local@VValue@v8@@@3@AEBV?$PropertyCallbackInfo@X@1@@Z4W4AccessControl@3@W4PropertyAttribute@3@V?$Local@VAccessorSignature@v8@@@3@@Z 0000000180001b10 f i Canvas.obj
 0001:00000c80       ??1ObjectWrap@Nan@@UEAA@XZ 0000000180001c80 f i Canvas.obj
 0001:00000d00       ?Wrap@ObjectWrap@Nan@@IEAAXV?$Local@VObject@v8@@@v8@@@Z 0000000180001d00 f i Canvas.obj
 0001:00000de0       ?Ref@ObjectWrap@Nan@@MEAAXXZ 0000000180001de0 f i Canvas.obj
 0001:00000e20       ?Unref@ObjectWrap@Nan@@MEAAXXZ 0000000180001e20 f i Canvas.obj
 0001:00000ed0       ?WeakCallback@ObjectWrap@Nan@@CAXAEBV?$WeakCallbackInfo@VObjectWrap@Nan@@@v8@@@Z 0000000180001ed0 f i Canvas.obj
 0001:00000f60       ??_EObjectWrap@Nan@@UEAAPEAXI@Z 0000000180001f60 f i * CIL library *:* CIL module *
 0001:00000f60       ??_GImageData@@UEAAPEAXI@Z 0000000180001f60 f i ImageData.obj
 0001:00000f60       ??_GObjectWrap@Nan@@UEAAPEAXI@Z 0000000180001f60 f i Canvas.obj
 0001:00000f60       ??_EImageData@@UEAAPEAXI@Z 0000000180001f60 f i * CIL library *:* CIL module *
 0001:00000f90       ?closure_init@@YA?AW4_cairo_status@@PEAUclosure_t@@PEAVCanvas@@II@Z 0000000180001f90 f   Canvas.obj
 0001:00001000       ?closure_destroy@@YAXPEAUclosure_t@@@Z 0000000180002000 f   Canvas.obj
 0001:00001060       ?stream_pdf_free@@YAXPEADPEAX@Z 0000000180002060 f   Canvas.obj
 0001:00001060       __except_validate_jump_buffer 0000000180002060 f   libvcruntime:jbcxrval.obj
 0001:00001060       __except_validate_context_record 0000000180002060 f   libvcruntime:jbcxrval.obj
 0001:00001060       _guard_check_icall_nop     0000000180002060 f   LIBCMT:guard_support.obj
 0001:00001500       ?Initialize@Canvas@@SAXV?$Local@VObject@v8@@@v8@@@Z 0000000180002500 f   Canvas.obj
 0001:00001cc0       ?New@Canvas@@SAXAEBV?$FunctionCallbackInfo@VValue@v8@@@Nan@@@Z 0000000180002cc0 f   Canvas.obj
 0001:00001f50       ?GetType@Canvas@@SAXV?$Local@VString@v8@@@v8@@AEBV?$PropertyCallbackInfo@VValue@v8@@@Nan@@@Z 0000000180002f50 f   Canvas.obj
 0001:00002000       ?GetStride@Canvas@@SAXV?$Local@VString@v8@@@v8@@AEBV?$PropertyCallbackInfo@VValue@v8@@@Nan@@@Z 0000000180003000 f   Canvas.obj
 0001:00002080       ?GetWidth@Canvas@@SAXV?$Local@VString@v8@@@v8@@AEBV?$PropertyCallbackInfo@VValue@v8@@@Nan@@@Z 0000000180003080 f   Canvas.obj
 0001:00002080       ?GetWidth@ImageData@@SAXV?$Local@VString@v8@@@v8@@AEBV?$PropertyCallbackInfo@VValue@v8@@@Nan@@@Z 0000000180003080 f   ImageData.obj
 0001:00002100       ?SetWidth@Canvas@@SAXV?$Local@VString@v8@@@v8@@V?$Local@VValue@v8@@@3@AEBV?$PropertyCallbackInfo@X@Nan@@@Z 0000000180003100 f   Canvas.obj
 0001:00002160       ?GetHeight@ImageData@@SAXV?$Local@VString@v8@@@v8@@AEBV?$PropertyCallbackInfo@VValue@v8@@@Nan@@@Z 0000000180003160 f   ImageData.obj
 0001:00002160       ?GetHeight@Canvas@@SAXV?$Local@VString@v8@@@v8@@AEBV?$PropertyCallbackInfo@VValue@v8@@@Nan@@@Z 0000000180003160 f   Canvas.obj
 0001:000021e0       ?SetHeight@Canvas@@SAXV?$Local@VString@v8@@@v8@@V?$Local@VValue@v8@@@3@AEBV?$PropertyCallbackInfo@X@Nan@@@Z 00000001800031e0 f   Canvas.obj
 0001:000022c0       ?ToBufferAsync@Canvas@@SAXPEAUuv_work_s@@@Z 00000001800032c0 f   Canvas.obj
 0001:00002330       ?ToBufferAsyncAfter@Canvas@@SAXPEAUuv_work_s@@@Z 0000000180003330 f   Canvas.obj
 0001:00002500       ?ToBuffer@Canvas@@SAXAEBV?$FunctionCallbackInfo@VValue@v8@@@Nan@@@Z 0000000180003500 f   Canvas.obj
 0001:00002d70       ??1TryCatch@Nan@@QEAA@XZ   0000000180003d70 f i Canvas.obj
 0001:00002ef0       ?StreamPNGSync@Canvas@@SAXAEBV?$FunctionCallbackInfo@VValue@v8@@@Nan@@@Z 0000000180003ef0 f   Canvas.obj
 0001:000035b0       ?StreamPDFSync@Canvas@@SAXAEBV?$FunctionCallbackInfo@VValue@v8@@@Nan@@@Z 00000001800045b0 f   Canvas.obj
 0001:000037d0       ??0Canvas@@QEAA@HHW4canvas_type_t@@@Z 00000001800047d0 f   Canvas.obj
 0001:000039f0       ??_GCanvas@@EEAAPEAXI@Z    00000001800049f0 f i Canvas.obj
 0001:000039f0       ??_ECanvas@@EEAAPEAXI@Z    00000001800049f0 f i * CIL library *:* CIL module *
 0001:00003a20       ??1Canvas@@EEAA@XZ         0000000180004a20 f   Canvas.obj
 0001:00003ae0       ?resurface@Canvas@@QEAAXV?$Local@VObject@v8@@@v8@@@Z 0000000180004ae0 f   Canvas.obj
 0001:00003d30       ??$Unwrap@VCanvas@@@ObjectWrap@Nan@@SAPEAVCanvas@@V?$Local@VObject@v8@@@v8@@@Z 0000000180004d30 f i Canvas.obj
 0001:00003d30       ??$Unwrap@VGradient@@@ObjectWrap@Nan@@SAPEAVGradient@@V?$Local@VObject@v8@@@v8@@@Z 0000000180004d30 f i CanvasGradient.obj
 0001:00003d30       ??$Unwrap@VImage@@@ObjectWrap@Nan@@SAPEAVImage@@V?$Local@VObject@v8@@@v8@@@Z 0000000180004d30 f i CanvasPattern.obj
 0001:00003d30       ??$Unwrap@VPattern@@@ObjectWrap@Nan@@SAPEAVPattern@@V?$Local@VObject@v8@@@v8@@@Z 0000000180004d30 f i CanvasRenderingContext2d.obj
 0001:00003d30       ??$Unwrap@VContext2d@@@ObjectWrap@Nan@@SAPEAVContext2d@@V?$Local@VObject@v8@@@v8@@@Z 0000000180004d30 f i Canvas.obj
 0001:00003d30       ??$Unwrap@VImageData@@@ObjectWrap@Nan@@SAPEAVImageData@@V?$Local@VObject@v8@@@v8@@@Z 0000000180004d30 f i CanvasRenderingContext2d.obj
 0001:00003db0       ?Initialize@Gradient@@SAXV?$Local@VObject@v8@@@v8@@@Z 0000000180004db0 f   CanvasGradient.obj
 0001:00003f40       ?New@Gradient@@SAXAEBV?$FunctionCallbackInfo@VValue@v8@@@Nan@@@Z 0000000180004f40 f   CanvasGradient.obj
 0001:00004260       ?AddColorStop@Gradient@@SAXAEBV?$FunctionCallbackInfo@VValue@v8@@@Nan@@@Z 0000000180005260 f   CanvasGradient.obj
 0001:00004460       ??_GPattern@@EEAAPEAXI@Z   0000000180005460 f i CanvasPattern.obj
 0001:00004460       ??_EPattern@@EEAAPEAXI@Z   0000000180005460 f i * CIL library *:* CIL module *
 0001:00004460       ??_EGradient@@EEAAPEAXI@Z  0000000180005460 f i * CIL library *:* CIL module *
 0001:00004460       ??_GGradient@@EEAAPEAXI@Z  0000000180005460 f i CanvasGradient.obj
 0001:000044b0       ?ThrowError@Nan@@YAXPEBD@Z 00000001800054b0 f i CanvasPattern.obj
 0001:00004550       ?Initialize@Pattern@@SAXV?$Local@VObject@v8@@@v8@@@Z 0000000180005550 f   CanvasPattern.obj
 0001:00004700       ?New@Pattern@@SAXAEBV?$FunctionCallbackInfo@VValue@v8@@@Nan@@@Z 0000000180005700 f   CanvasPattern.obj
 0001:000048d0       ?NewInstance@Nan@@YA?AV?$MaybeLocal@VObject@v8@@@v8@@V?$Local@VFunction@v8@@@3@HQEAV?$Local@VValue@v8@@@3@@Z 00000001800058d0 f i CanvasRenderingContext2d.obj
 0001:00004980       ?GetFunction@Nan@@YA?AV?$MaybeLocal@VFunction@v8@@@v8@@V?$Local@VFunctionTemplate@v8@@@3@@Z 0000000180005980 f i CanvasRenderingContext2d.obj
 0001:00004a00       ?convert@?$ToFactory@VInt32@v8@@@imp@Nan@@SA?AV?$MaybeLocal@VInt32@v8@@@v8@@V?$Local@VValue@v8@@@5@@Z 0000000180005a00 f i CanvasRenderingContext2d.obj
 0001:00004a90       ?Initialize@Context2d@@SAXV?$Local@VObject@v8@@@v8@@@Z 0000000180005a90 f   CanvasRenderingContext2d.obj
 0001:000056a0       ??0Context2d@@QEAA@PEAVCanvas@@@Z 00000001800066a0 f   CanvasRenderingContext2d.obj
 0001:000057e0       ??_EContext2d@@EEAAPEAXI@Z 00000001800067e0 f i * CIL library *:* CIL module *
 0001:000057e0       ??_GContext2d@@EEAAPEAXI@Z 00000001800067e0 f i CanvasRenderingContext2d.obj
 0001:00005850       ?saveState@Context2d@@QEAAXXZ 0000000180006850 f   CanvasRenderingContext2d.obj
 0001:00005920       ?savePath@Context2d@@QEAAXXZ 0000000180006920 f   CanvasRenderingContext2d.obj
 0001:00005950       ?restorePath@Context2d@@QEAAXXZ 0000000180006950 f   CanvasRenderingContext2d.obj
 0001:00005990       ?setFillRule@Context2d@@QEAAXV?$Local@VValue@v8@@@v8@@@Z 0000000180006990 f i CanvasRenderingContext2d.obj
 0001:00005a40       ?fill@Context2d@@QEAAX_N@Z 0000000180006a40 f   CanvasRenderingContext2d.obj
 0001:00005bd0       ?stroke@Context2d@@QEAAX_N@Z 0000000180006bd0 f   CanvasRenderingContext2d.obj
 0001:00005d60       ?shadow@Context2d@@QEAAXP6AXPEAU_cairo@@@Z@Z 0000000180006d60 f   CanvasRenderingContext2d.obj
 0001:00006120       ?blur@Context2d@@QEAAXPEAU_cairo_surface@@H@Z 0000000180007120 f   CanvasRenderingContext2d.obj
 0001:000066f0       ?New@Context2d@@SAXAEBV?$FunctionCallbackInfo@VValue@v8@@@Nan@@@Z 00000001800076f0 f   CanvasRenderingContext2d.obj
 0001:00006820       ?AddPage@Context2d@@SAXAEBV?$FunctionCallbackInfo@VValue@v8@@@Nan@@@Z 0000000180007820 f   CanvasRenderingContext2d.obj
 0001:00006870       ?PutImageData@Context2d@@SAXAEBV?$FunctionCallbackInfo@VValue@v8@@@Nan@@@Z 0000000180007870 f   CanvasRenderingContext2d.obj
 0001:00006ff0       ?GetImageData@Context2d@@SAXAEBV?$FunctionCallbackInfo@VValue@v8@@@Nan@@@Z 0000000180007ff0 f   CanvasRenderingContext2d.obj
 0001:000076d0       ?DrawImage@Context2d@@SAXAEBV?$FunctionCallbackInfo@VValue@v8@@@Nan@@@Z 00000001800086d0 f   CanvasRenderingContext2d.obj
 0001:00007f00       ?GetGlobalAlpha@Context2d@@SAXV?$Local@VString@v8@@@v8@@AEBV?$PropertyCallbackInfo@VValue@v8@@@Nan@@@Z 0000000180008f00 f   CanvasRenderingContext2d.obj
 0001:00007f80       ?SetGlobalAlpha@Context2d@@SAXV?$Local@VString@v8@@@v8@@V?$Local@VValue@v8@@@3@AEBV?$PropertyCallbackInfo@X@Nan@@@Z 0000000180008f80 f   CanvasRenderingContext2d.obj
 0001:00007fe0       ?GetGlobalCompositeOperation@Context2d@@SAXV?$Local@VString@v8@@@v8@@AEBV?$PropertyCallbackInfo@VValue@v8@@@Nan@@@Z 0000000180008fe0 f   CanvasRenderingContext2d.obj
 0001:00008240       ?SetPatternQuality@Context2d@@SAXV?$Local@VString@v8@@@v8@@V?$Local@VValue@v8@@@3@AEBV?$PropertyCallbackInfo@X@Nan@@@Z 0000000180009240 f   CanvasRenderingContext2d.obj
 0001:000083c0       ?GetPatternQuality@Context2d@@SAXV?$Local@VString@v8@@@v8@@AEBV?$PropertyCallbackInfo@VValue@v8@@@Nan@@@Z 00000001800093c0 f   CanvasRenderingContext2d.obj
 0001:00008490       ?SetGlobalCompositeOperation@Context2d@@SAXV?$Local@VString@v8@@@v8@@V?$Local@VValue@v8@@@3@AEBV?$PropertyCallbackInfo@X@Nan@@@Z 0000000180009490 f   CanvasRenderingContext2d.obj
 0001:000088d0       ?GetShadowOffsetX@Context2d@@SAXV?$Local@VString@v8@@@v8@@AEBV?$PropertyCallbackInfo@VValue@v8@@@Nan@@@Z 00000001800098d0 f   CanvasRenderingContext2d.obj
 0001:00008950       ?SetShadowOffsetX@Context2d@@SAXV?$Local@VString@v8@@@v8@@V?$Local@VValue@v8@@@3@AEBV?$PropertyCallbackInfo@X@Nan@@@Z 0000000180009950 f   CanvasRenderingContext2d.obj
 0001:00008990       ?GetShadowOffsetY@Context2d@@SAXV?$Local@VString@v8@@@v8@@AEBV?$PropertyCallbackInfo@VValue@v8@@@Nan@@@Z 0000000180009990 f   CanvasRenderingContext2d.obj
 0001:00008a10       ?SetShadowOffsetY@Context2d@@SAXV?$Local@VString@v8@@@v8@@V?$Local@VValue@v8@@@3@AEBV?$PropertyCallbackInfo@X@Nan@@@Z 0000000180009a10 f   CanvasRenderingContext2d.obj
 0001:00008a50       ?GetShadowBlur@Context2d@@SAXV?$Local@VString@v8@@@v8@@AEBV?$PropertyCallbackInfo@VValue@v8@@@Nan@@@Z 0000000180009a50 f   CanvasRenderingContext2d.obj
 0001:00008ad0       ?SetShadowBlur@Context2d@@SAXV?$Local@VString@v8@@@v8@@V?$Local@VValue@v8@@@3@AEBV?$PropertyCallbackInfo@X@Nan@@@Z 0000000180009ad0 f   CanvasRenderingContext2d.obj
 0001:00008b20       ?GetAntiAlias@Context2d@@SAXV?$Local@VString@v8@@@v8@@AEBV?$PropertyCallbackInfo@VValue@v8@@@Nan@@@Z 0000000180009b20 f   CanvasRenderingContext2d.obj
 0001:00008bf0       ?SetAntiAlias@Context2d@@SAXV?$Local@VString@v8@@@v8@@V?$Local@VValue@v8@@@3@AEBV?$PropertyCallbackInfo@X@Nan@@@Z 0000000180009bf0 f   CanvasRenderingContext2d.obj
 0001:00008d00       ?GetTextDrawingMode@Context2d@@SAXV?$Local@VString@v8@@@v8@@AEBV?$PropertyCallbackInfo@VValue@v8@@@Nan@@@Z 0000000180009d00 f   CanvasRenderingContext2d.obj
 0001:00008dc0       ?SetTextDrawingMode@Context2d@@SAXV?$Local@VString@v8@@@v8@@V?$Local@VValue@v8@@@3@AEBV?$PropertyCallbackInfo@X@Nan@@@Z 0000000180009dc0 f   CanvasRenderingContext2d.obj
 0001:00008e90       ?GetFilter@Context2d@@SAXV?$Local@VString@v8@@@v8@@AEBV?$PropertyCallbackInfo@VValue@v8@@@Nan@@@Z 0000000180009e90 f   CanvasRenderingContext2d.obj
 0001:00008f70       ?SetFilter@Context2d@@SAXV?$Local@VString@v8@@@v8@@V?$Local@VValue@v8@@@3@AEBV?$PropertyCallbackInfo@X@Nan@@@Z 0000000180009f70 f   CanvasRenderingContext2d.obj
 0001:00009080       ?GetMiterLimit@Context2d@@SAXV?$Local@VString@v8@@@v8@@AEBV?$PropertyCallbackInfo@VValue@v8@@@Nan@@@Z 000000018000a080 f   CanvasRenderingContext2d.obj
 0001:00009100       ?SetMiterLimit@Context2d@@SAXV?$Local@VString@v8@@@v8@@V?$Local@VValue@v8@@@3@AEBV?$PropertyCallbackInfo@X@Nan@@@Z 000000018000a100 f   CanvasRenderingContext2d.obj
 0001:00009150       ?GetLineWidth@Context2d@@SAXV?$Local@VString@v8@@@v8@@AEBV?$PropertyCallbackInfo@VValue@v8@@@Nan@@@Z 000000018000a150 f   CanvasRenderingContext2d.obj
 0001:000091d0       ?SetLineWidth@Context2d@@SAXV?$Local@VString@v8@@@v8@@V?$Local@VValue@v8@@@3@AEBV?$PropertyCallbackInfo@X@Nan@@@Z 000000018000a1d0 f   CanvasRenderingContext2d.obj
 0001:00009230       ?GetLineJoin@Context2d@@SAXV?$Local@VString@v8@@@v8@@AEBV?$PropertyCallbackInfo@VValue@v8@@@Nan@@@Z 000000018000a230 f   CanvasRenderingContext2d.obj
 0001:000092f0       ?SetLineJoin@Context2d@@SAXV?$Local@VString@v8@@@v8@@V?$Local@VValue@v8@@@3@AEBV?$PropertyCallbackInfo@X@Nan@@@Z 000000018000a2f0 f   CanvasRenderingContext2d.obj
 0001:000093a0       ?GetLineCap@Context2d@@SAXV?$Local@VString@v8@@@v8@@AEBV?$PropertyCallbackInfo@VValue@v8@@@Nan@@@Z 000000018000a3a0 f   CanvasRenderingContext2d.obj
 0001:00009460       ?SetLineCap@Context2d@@SAXV?$Local@VString@v8@@@v8@@V?$Local@VValue@v8@@@3@AEBV?$PropertyCallbackInfo@X@Nan@@@Z 000000018000a460 f   CanvasRenderingContext2d.obj
 0001:00009510       ?IsPointInPath@Context2d@@SAXAEBV?$FunctionCallbackInfo@VValue@v8@@@Nan@@@Z 000000018000a510 f   CanvasRenderingContext2d.obj
 0001:000096c0       ?SetFillPattern@Context2d@@SAXAEBV?$FunctionCallbackInfo@VValue@v8@@@Nan@@@Z 000000018000a6c0 f   CanvasRenderingContext2d.obj
 0001:00009800       ?SetStrokePattern@Context2d@@SAXAEBV?$FunctionCallbackInfo@VValue@v8@@@Nan@@@Z 000000018000a800 f   CanvasRenderingContext2d.obj
 0001:00009940       ?SetShadowColor@Context2d@@SAXV?$Local@VString@v8@@@v8@@V?$Local@VValue@v8@@@3@AEBV?$PropertyCallbackInfo@X@Nan@@@Z 000000018000a940 f   CanvasRenderingContext2d.obj
 0001:00009a40       ?GetShadowColor@Context2d@@SAXV?$Local@VString@v8@@@v8@@AEBV?$PropertyCallbackInfo@VValue@v8@@@Nan@@@Z 000000018000aa40 f   CanvasRenderingContext2d.obj
 0001:00009bc0       ?SetFillColor@Context2d@@SAXAEBV?$FunctionCallbackInfo@VValue@v8@@@Nan@@@Z 000000018000abc0 f   CanvasRenderingContext2d.obj
 0001:00009d10       ?GetFillColor@Context2d@@SAXV?$Local@VString@v8@@@v8@@AEBV?$PropertyCallbackInfo@VValue@v8@@@Nan@@@Z 000000018000ad10 f   CanvasRenderingContext2d.obj
 0001:00009e90       ?SetStrokeColor@Context2d@@SAXAEBV?$FunctionCallbackInfo@VValue@v8@@@Nan@@@Z 000000018000ae90 f   CanvasRenderingContext2d.obj
 0001:00009fe0       ?GetStrokeColor@Context2d@@SAXV?$Local@VString@v8@@@v8@@AEBV?$PropertyCallbackInfo@VValue@v8@@@Nan@@@Z 000000018000afe0 f   CanvasRenderingContext2d.obj
 0001:0000a160       ?BezierCurveTo@Context2d@@SAXAEBV?$FunctionCallbackInfo@VValue@v8@@@Nan@@@Z 000000018000b160 f   CanvasRenderingContext2d.obj
 0001:0000a440       ?QuadraticCurveTo@Context2d@@SAXAEBV?$FunctionCallbackInfo@VValue@v8@@@Nan@@@Z 000000018000b440 f   CanvasRenderingContext2d.obj
 0001:0000a6c0       ?Save@Context2d@@SAXAEBV?$FunctionCallbackInfo@VValue@v8@@@Nan@@@Z 000000018000b6c0 f   CanvasRenderingContext2d.obj
 0001:0000a700       ?Restore@Context2d@@SAXAEBV?$FunctionCallbackInfo@VValue@v8@@@Nan@@@Z 000000018000b700 f   CanvasRenderingContext2d.obj
 0001:0000a770       ?BeginPath@Context2d@@SAXAEBV?$FunctionCallbackInfo@VValue@v8@@@Nan@@@Z 000000018000b770 f   CanvasRenderingContext2d.obj
 0001:0000a7a0       ?ClosePath@Context2d@@SAXAEBV?$FunctionCallbackInfo@VValue@v8@@@Nan@@@Z 000000018000b7a0 f   CanvasRenderingContext2d.obj
 0001:0000a7d0       ?Rotate@Context2d@@SAXAEBV?$FunctionCallbackInfo@VValue@v8@@@Nan@@@Z 000000018000b7d0 f   CanvasRenderingContext2d.obj
 0001:0000a860       ?Transform@Context2d@@SAXAEBV?$FunctionCallbackInfo@VValue@v8@@@Nan@@@Z 000000018000b860 f   CanvasRenderingContext2d.obj
 0001:0000ab50       ?ResetTransform@Context2d@@SAXAEBV?$FunctionCallbackInfo@VValue@v8@@@Nan@@@Z 000000018000bb50 f   CanvasRenderingContext2d.obj
 0001:0000ab80       ?Translate@Context2d@@SAXAEBV?$FunctionCallbackInfo@VValue@v8@@@Nan@@@Z 000000018000bb80 f   CanvasRenderingContext2d.obj
 0001:0000ac80       ?Scale@Context2d@@SAXAEBV?$FunctionCallbackInfo@VValue@v8@@@Nan@@@Z 000000018000bc80 f   CanvasRenderingContext2d.obj
 0001:0000ad80       ?Clip@Context2d@@SAXAEBV?$FunctionCallbackInfo@VValue@v8@@@Nan@@@Z 000000018000bd80 f   CanvasRenderingContext2d.obj
 0001:0000ade0       ?Fill@Context2d@@SAXAEBV?$FunctionCallbackInfo@VValue@v8@@@Nan@@@Z 000000018000bde0 f   CanvasRenderingContext2d.obj
 0001:0000ae40       ?Stroke@Context2d@@SAXAEBV?$FunctionCallbackInfo@VValue@v8@@@Nan@@@Z 000000018000be40 f   CanvasRenderingContext2d.obj
 0001:0000ae70       ?FillText@Context2d@@SAXAEBV?$FunctionCallbackInfo@VValue@v8@@@Nan@@@Z 000000018000be70 f   CanvasRenderingContext2d.obj
 0001:0000b040       ?StrokeText@Context2d@@SAXAEBV?$FunctionCallbackInfo@VValue@v8@@@Nan@@@Z 000000018000c040 f   CanvasRenderingContext2d.obj
 0001:0000b210       ?setTextPath@Context2d@@QEAAXPEBDNN@Z 000000018000c210 f   CanvasRenderingContext2d.obj
 0001:0000b390       ?LineTo@Context2d@@SAXAEBV?$FunctionCallbackInfo@VValue@v8@@@Nan@@@Z 000000018000c390 f   CanvasRenderingContext2d.obj
 0001:0000b490       ?MoveTo@Context2d@@SAXAEBV?$FunctionCallbackInfo@VValue@v8@@@Nan@@@Z 000000018000c490 f   CanvasRenderingContext2d.obj
 0001:0000b590       ?SetFont@Context2d@@SAXAEBV?$FunctionCallbackInfo@VValue@v8@@@Nan@@@Z 000000018000c590 f   CanvasRenderingContext2d.obj
 0001:0000b8d0       ?MeasureText@Context2d@@SAXAEBV?$FunctionCallbackInfo@VValue@v8@@@Nan@@@Z 000000018000c8d0 f   CanvasRenderingContext2d.obj
 0001:0000bdb0       ?SetTextBaseline@Context2d@@SAXAEBV?$FunctionCallbackInfo@VValue@v8@@@Nan@@@Z 000000018000cdb0 f   CanvasRenderingContext2d.obj
 0001:0000be30       ?SetTextAlignment@Context2d@@SAXAEBV?$FunctionCallbackInfo@VValue@v8@@@Nan@@@Z 000000018000ce30 f   CanvasRenderingContext2d.obj
 0001:0000beb0       ?SetLineDash@Context2d@@SAXAEBV?$FunctionCallbackInfo@VValue@v8@@@Nan@@@Z 000000018000ceb0 f   CanvasRenderingContext2d.obj
 0001:0000c190       ?GetLineDash@Context2d@@SAXAEBV?$FunctionCallbackInfo@VValue@v8@@@Nan@@@Z 000000018000d190 f   CanvasRenderingContext2d.obj
 0001:0000c3e0       ?SetLineDashOffset@Context2d@@SAXV?$Local@VString@v8@@@v8@@V?$Local@VValue@v8@@@3@AEBV?$PropertyCallbackInfo@X@Nan@@@Z 000000018000d3e0 f   CanvasRenderingContext2d.obj
 0001:0000c580       ?GetLineDashOffset@Context2d@@SAXV?$Local@VString@v8@@@v8@@AEBV?$PropertyCallbackInfo@VValue@v8@@@Nan@@@Z 000000018000d580 f   CanvasRenderingContext2d.obj
 0001:0000c610       ?FillRect@Context2d@@SAXAEBV?$FunctionCallbackInfo@VValue@v8@@@Nan@@@Z 000000018000d610 f   CanvasRenderingContext2d.obj
 0001:0000c810       ?StrokeRect@Context2d@@SAXAEBV?$FunctionCallbackInfo@VValue@v8@@@Nan@@@Z 000000018000d810 f   CanvasRenderingContext2d.obj
 0001:0000ca10       ?ClearRect@Context2d@@SAXAEBV?$FunctionCallbackInfo@VValue@v8@@@Nan@@@Z 000000018000da10 f   CanvasRenderingContext2d.obj
 0001:0000cc30       ?Rect@Context2d@@SAXAEBV?$FunctionCallbackInfo@VValue@v8@@@Nan@@@Z 000000018000dc30 f   CanvasRenderingContext2d.obj
 0001:0000ce50       ?Arc@Context2d@@SAXAEBV?$FunctionCallbackInfo@VValue@v8@@@Nan@@@Z 000000018000de50 f   CanvasRenderingContext2d.obj
 0001:0000d200       ?ArcTo@Context2d@@SAXAEBV?$FunctionCallbackInfo@VValue@v8@@@Nan@@@Z 000000018000e200 f   CanvasRenderingContext2d.obj
 0001:0000d8b0       ??1?$vector@NV?$allocator@N@std@@@std@@QEAA@XZ 000000018000e8b0 f i CanvasRenderingContext2d.obj
 0001:0000d8c0       ??0?$TypedArrayContents@E@Nan@@QEAA@V?$Local@VValue@v8@@@v8@@@Z 000000018000e8c0 f i CanvasRenderingContext2d.obj
 0001:0000d980       ?_Tidy@?$vector@NV?$allocator@N@std@@@std@@IEAAXXZ 000000018000e980 f i CanvasRenderingContext2d.obj
 0001:0000da20       __local_stdio_printf_options 000000018000ea20 f i color.obj
 0001:0000da30       snprintf                   000000018000ea30 f i color.obj
 0001:0000e800       ?rgba_from_string@@YAHPEBDPEAF@Z 000000018000f800 f   color.obj
 0001:0000ead0       ?Initialize@Image@@SAXV?$Local@VObject@v8@@@v8@@@Z 000000018000fad0 f   Image.obj
 0001:0000f150       ?New@Image@@SAXAEBV?$FunctionCallbackInfo@VValue@v8@@@Nan@@@Z 0000000180010150 f   Image.obj
 0001:0000f220       ?GetComplete@Image@@SAXV?$Local@VString@v8@@@v8@@AEBV?$PropertyCallbackInfo@VValue@v8@@@Nan@@@Z 0000000180010220 f   Image.obj
 0001:0000f290       ?GetDataMode@Image@@SAXV?$Local@VString@v8@@@v8@@AEBV?$PropertyCallbackInfo@VValue@v8@@@Nan@@@Z 0000000180010290 f   Image.obj
 0001:0000f310       ?SetDataMode@Image@@SAXV?$Local@VString@v8@@@v8@@V?$Local@VValue@v8@@@3@AEBV?$PropertyCallbackInfo@X@Nan@@@Z 0000000180010310 f   Image.obj
 0001:0000f350       ?GetWidth@Image@@SAXV?$Local@VString@v8@@@v8@@AEBV?$PropertyCallbackInfo@VValue@v8@@@Nan@@@Z 0000000180010350 f   Image.obj
 0001:0000f3d0       ?GetHeight@Image@@SAXV?$Local@VString@v8@@@v8@@AEBV?$PropertyCallbackInfo@VValue@v8@@@Nan@@@Z 00000001800103d0 f   Image.obj
 0001:0000f450       ?GetSource@Image@@SAXV?$Local@VString@v8@@@v8@@AEBV?$PropertyCallbackInfo@VValue@v8@@@Nan@@@Z 0000000180010450 f   Image.obj
 0001:0000f4f0       ?clearData@Image@@QEAAXXZ  00000001800104f0 f   Image.obj
 0001:0000f580       ?SetSource@Image@@SAXV?$Local@VString@v8@@@v8@@V?$Local@VValue@v8@@@3@AEBV?$PropertyCallbackInfo@X@Nan@@@Z 0000000180010580 f   Image.obj
 0001:0000f760       ?loadFromBuffer@Image@@QEAA?AW4_cairo_status@@PEAEI@Z 0000000180010760 f   Image.obj
 0001:0000f7f0       ?readPNG@Image@@SA?AW4_cairo_status@@PEAXPEAEI@Z 00000001800107f0 f   Image.obj
 0001:0000f830       ?GetOnload@Image@@SAXV?$Local@VString@v8@@@v8@@AEBV?$PropertyCallbackInfo@VValue@v8@@@Nan@@@Z 0000000180010830 f   Image.obj
 0001:0000f8c0       ?SetOnload@Image@@SAXV?$Local@VString@v8@@@v8@@V?$Local@VValue@v8@@@3@AEBV?$PropertyCallbackInfo@X@Nan@@@Z 00000001800108c0 f   Image.obj
 0001:0000f9a0       ?GetOnerror@Image@@SAXV?$Local@VString@v8@@@v8@@AEBV?$PropertyCallbackInfo@VValue@v8@@@Nan@@@Z 00000001800109a0 f   Image.obj
 0001:0000fa30       ?SetOnerror@Image@@SAXV?$Local@VString@v8@@@v8@@V?$Local@VValue@v8@@@3@AEBV?$PropertyCallbackInfo@X@Nan@@@Z 0000000180010a30 f   Image.obj
 0001:0000fb10       ??_EImage@@EEAAPEAXI@Z     0000000180010b10 f i * CIL library *:* CIL module *
 0001:0000fb10       ??_GImage@@EEAAPEAXI@Z     0000000180010b10 f i Image.obj
 0001:0000fb40       ??1Image@@EEAA@XZ          0000000180010b40 f   Image.obj
 0001:0000fbe0       ?loaded@Image@@QEAAXXZ     0000000180010be0 f   Image.obj
 0001:0000fca0       ?loadSurface@Image@@QEAA?AW4_cairo_status@@XZ 0000000180010ca0 f   Image.obj
 0001:0000fd60       ?Initialize@ImageData@@SAXV?$Local@VObject@v8@@@v8@@@Z 0000000180010d60 f   ImageData.obj
 0001:000100b0       ?New@ImageData@@SAXAEBV?$FunctionCallbackInfo@VValue@v8@@@Nan@@@Z 00000001800110b0 f   ImageData.obj
 0001:00010450       ?init@@YAXV?$Local@VObject@v8@@@v8@@@Z 0000000180011450 f   init.obj
 0001:00010530       ??0bad_alloc@std@@QEAA@AEBV01@@Z 0000000180011530 f i libcpmt:xthrow.obj
 0001:00010570       ??0bad_alloc@std@@QEAA@XZ  0000000180011570 f i libcpmt:xthrow.obj
 0001:00010590       ??0exception@std@@QEAA@AEBV01@@Z 0000000180011590 f i libcpmt:xthrow.obj
 0001:000105c8       ??0length_error@std@@QEAA@AEBV01@@Z 00000001800115c8 f i libcpmt:xthrow.obj
 0001:00010608       ??0length_error@std@@QEAA@PEBD@Z 0000000180011608 f i libcpmt:xthrow.obj
 0001:00010654       ??0logic_error@std@@QEAA@AEBV01@@Z 0000000180011654 f i libcpmt:xthrow.obj
 0001:00010694       ??1bad_array_new_length@std@@UEAA@XZ 0000000180011694 f i LIBCMT:throw_bad_alloc.obj
 0001:00010694       ??1length_error@std@@UEAA@XZ 0000000180011694 f i libcpmt:xthrow.obj
 0001:00010694       ??1bad_exception@std@@UEAA@XZ 0000000180011694 f i libvcruntime:frame.obj
 0001:00010694       ??1bad_alloc@std@@UEAA@XZ  0000000180011694 f i libcpmt:xthrow.obj
 0001:000106a8       ?_Xbad_alloc@std@@YAXXZ    00000001800116a8 f   libcpmt:xthrow.obj
 0001:000106a8       ?__scrt_throw_std_bad_alloc@@YAXXZ 00000001800116a8 f   LIBCMT:throw_bad_alloc.obj
 0001:000106c8       ?_Xlength_error@std@@YAXPEBD@Z 00000001800116c8 f   libcpmt:xthrow.obj
 0001:000106ec       ?what@exception@std@@UEBAPEBDXZ 00000001800116ec f i libcpmt:xthrow.obj
 0001:00010710       __security_check_cookie    0000000180011710 f   LIBCMT:_amdsecgs_.obj
 0001:00010734       ??2@YAPEAX_K@Z             0000000180011734 f   LIBCMT:new_scalar.obj
 0001:00010770       __scrt_acquire_startup_lock 0000000180011770 f   LIBCMT:utility.obj
 0001:000107ac       __scrt_dllmain_after_initialize_c 00000001800117ac f   LIBCMT:utility.obj
 0001:000107e0       __scrt_dllmain_before_initialize_c 00000001800117e0 f   LIBCMT:utility.obj
 0001:000107f8       __scrt_dllmain_crt_thread_attach 00000001800117f8 f   LIBCMT:utility.obj
 0001:00010820       __scrt_dllmain_crt_thread_detach 0000000180011820 f   LIBCMT:utility.obj
 0001:00010838       __scrt_dllmain_exception_filter 0000000180011838 f   LIBCMT:utility.obj
 0001:0001089c       __scrt_dllmain_uninitialize_c 000000018001189c f   LIBCMT:utility.obj
 0001:000108cc       __scrt_dllmain_uninitialize_critical 00000001800118cc f   LIBCMT:utility.obj
 0001:000108e0       __scrt_initialize_crt      00000001800118e0 f   LIBCMT:utility.obj
 0001:0001092c       __scrt_initialize_onexit_tables 000000018001192c f   LIBCMT:utility.obj
 0001:000109f8       __scrt_is_nonwritable_in_current_image 00000001800119f8 f   LIBCMT:utility.obj
 0001:00010a94       __scrt_release_startup_lock 0000000180011a94 f   LIBCMT:utility.obj
 0001:00010ab8       __scrt_uninitialize_crt    0000000180011ab8 f   LIBCMT:utility.obj
 0001:00010ae4       _onexit                    0000000180011ae4 f   LIBCMT:utility.obj
 0001:00010b34       atexit                     0000000180011b34 f   LIBCMT:utility.obj
 0001:00010b4c       ??3@YAXPEAX@Z              0000000180011b4c f   LIBCMT:delete_scalar.obj
 0001:00010ea0       _DllMainCRTStartup         0000000180011ea0 f   LIBCMT:dll_dllmain.obj
 0001:00010ee0       ??3@YAXPEAX_K@Z            0000000180011ee0 f   LIBCMT:delete_scalar_size.obj
 0001:00010ee8       ??_Etype_info@@UEAAPEAXI@Z 0000000180011ee8 f i LIBCMT:std_type_info_static.obj
 0001:00010ee8       ??_Gtype_info@@UEAAPEAXI@Z 0000000180011ee8 f i LIBCMT:std_type_info_static.obj
 0001:00010f14       __raise_securityfailure    0000000180011f14 f   LIBCMT:gs_report.obj
 0001:00010f48       __report_gsfailure         0000000180011f48 f   LIBCMT:gs_report.obj
 0001:0001101c       __report_rangecheckfailure 000000018001201c f   LIBCMT:gs_report.obj
 0001:00011030       __report_securityfailure   0000000180012030 f   LIBCMT:gs_report.obj
 0001:000111b0       ??0bad_array_new_length@std@@QEAA@AEBV01@@Z 00000001800121b0 f i LIBCMT:throw_bad_alloc.obj
 0001:000111f0       ??0bad_array_new_length@std@@QEAA@XZ 00000001800121f0 f i LIBCMT:throw_bad_alloc.obj
 0001:00011210       ?__scrt_throw_std_bad_array_new_length@@YAXXZ 0000000180012210 f   LIBCMT:throw_bad_alloc.obj
 0001:00011230       __isa_available_init       0000000180012230 f   LIBCMT:_cpu_disp_.obj
 0001:000113f8       _get_startup_argv_mode     00000001800123f8 f   LIBCMT:argv_mode.obj
 0001:000113f8       DllMain                    00000001800123f8 f   LIBCMT:dll_dllmain_stub.obj
 0001:00011400       __scrt_is_ucrt_dll_in_use  0000000180012400 f   LIBCMT:ucrt_detection.obj
 0001:0001140c       __crt_debugger_hook        000000018001240c f   LIBCMT:utility_desktop.obj
 0001:00011414       __scrt_fastfail            0000000180012414 f   LIBCMT:utility_desktop.obj
 0001:0001155c       _guard_check_icall         000000018001255c f i LIBCMT:checkcfg.obj
 0001:00011564       __security_init_cookie     0000000180012564 f   LIBCMT:gs_support.obj
 0001:00011610       ?__scrt_initialize_type_info@@YAXXZ 0000000180012610 f   LIBCMT:tncleanup.obj
 0001:00011620       ?__scrt_uninitialize_type_info@@YAXXZ 0000000180012620 f   LIBCMT:tncleanup.obj
 0001:0001162c       __local_stdio_scanf_options 000000018001262c f i LIBCMT:default_local_stdio_options.obj
 0001:00011634       __scrt_initialize_default_local_stdio_options 0000000180012634 f   LIBCMT:default_local_stdio_options.obj
 0001:00011650       __scrt_get_dyn_tls_init_callback 0000000180012650 f   LIBCMT:dyn_tls_init.obj
 0001:00011658       _RTC_Initialize            0000000180012658 f   LIBCMT:_initsect_.obj
 0001:000116a4       _RTC_Terminate             00000001800126a4 f   LIBCMT:_initsect_.obj
 0001:000116f0       longjmp                    00000001800126f0 f   libvcruntime:longjmpc.obj
 0001:00011718       __DestructExceptionObject  0000000180012718 f   libvcruntime:frame.obj
 0001:000117a0       ??0bad_exception@std@@QEAA@AEBV01@@Z 00000001800127a0 f i libvcruntime:frame.obj
 0001:000117e0       ??0bad_exception@std@@QEAA@XZ 00000001800127e0 f i libvcruntime:frame.obj
 0001:00011800       ??_Ebad_array_new_length@std@@UEAAPEAXI@Z 0000000180012800 f i LIBCMT:throw_bad_alloc.obj
 0001:00011800       ??_Elength_error@std@@UEAAPEAXI@Z 0000000180012800 f i libcpmt:xthrow.obj
 0001:00011800       ??_Gbad_array_new_length@std@@UEAAPEAXI@Z 0000000180012800 f i LIBCMT:throw_bad_alloc.obj
 0001:00011800       ??_Gbad_exception@std@@UEAAPEAXI@Z 0000000180012800 f i libvcruntime:frame.obj
 0001:00011800       ??_Ebad_exception@std@@UEAAPEAXI@Z 0000000180012800 f i libvcruntime:frame.obj
 0001:00011800       ??_Gexception@std@@UEAAPEAXI@Z 0000000180012800 f i libcpmt:xthrow.obj
 0001:00011800       ??_Glength_error@std@@UEAAPEAXI@Z 0000000180012800 f i libcpmt:xthrow.obj
 0001:00011800       ??_Elogic_error@std@@UEAAPEAXI@Z 0000000180012800 f i libcpmt:xthrow.obj
 0001:00011800       ??_Eexception@std@@UEAAPEAXI@Z 0000000180012800 f i libcpmt:xthrow.obj
 0001:00011800       ??_Glogic_error@std@@UEAAPEAXI@Z 0000000180012800 f i libcpmt:xthrow.obj
 0001:00011800       ??_Gbad_alloc@std@@UEAAPEAXI@Z 0000000180012800 f i libcpmt:xthrow.obj
 0001:00011800       ??_Ebad_alloc@std@@UEAAPEAXI@Z 0000000180012800 f i libcpmt:xthrow.obj
 0001:000121a0       ?_CallMemberFunction0@@YAXPEAXP6AX0@Z@Z 00000001800131a0 f i libvcruntime:frame.obj
 0001:000121a4       ?_CallMemberFunction1@@YAXPEAXP6AX0@Z0@Z 00000001800131a4 f i libvcruntime:frame.obj
 0001:000121b0       ?_CallMemberFunction2@@YAXPEAXP6AX0@Z0H@Z 00000001800131b0 f i libvcruntime:frame.obj
 0001:000121c0       __AdjustPointer            00000001800131c0 f   libvcruntime:frame.obj
 0001:000121e4       __BuildCatchObject         00000001800131e4 f   libvcruntime:frame.obj
 0001:000122a8       __BuildCatchObjectHelper   00000001800132a8 f   libvcruntime:frame.obj
 0001:00012488       __CxxCallCatchBlock        0000000180013488 f   libvcruntime:frame.obj
 0001:00012674       __FrameUnwindFilter        0000000180013674 f   libvcruntime:frame.obj
 0001:000126c0       __FrameUnwindToState       00000001800136c0 f   libvcruntime:frame.obj
 0001:00012854       __InternalCxxFrameHandler  0000000180013854 f   libvcruntime:frame.obj
 0001:00012aac       __TypeMatch                0000000180013aac f   libvcruntime:frame.obj
 0001:00012bec       __std_terminate            0000000180013bec f   libvcruntime:frame.obj
 0001:00012bf8       strstr                     0000000180013bf8 f   libvcruntime:strstr.obj
 0001:00012dec       __std_exception_copy       0000000180013dec f   libvcruntime:std_exception.obj
 0001:00012e7c       __std_exception_destroy    0000000180013e7c f   libvcruntime:std_exception.obj
 0001:00012ea4       _CxxThrowException         0000000180013ea4 f   libvcruntime:throw.obj
 0001:00012f7c       __vcrt_initialize          0000000180013f7c f   libvcruntime:initialization.obj
 0001:00012fb0       __vcrt_thread_attach       0000000180013fb0 f   libvcruntime:initialization.obj
 0001:00012fc4       __vcrt_thread_detach       0000000180013fc4 f   libvcruntime:initialization.obj
 0001:00012fd8       __vcrt_uninitialize        0000000180013fd8 f   libvcruntime:initialization.obj
 0001:00012ff8       __vcrt_uninitialize_critical 0000000180013ff8 f   libvcruntime:initialization.obj
 0001:00013008       __C_specific_handler       0000000180014008 f   libvcruntime:_chandler_.obj
 0001:00013220       memset                     0000000180014220 f   libvcruntime:memset.obj
 0001:000133c0       __std_type_info_compare    00000001800143c0 f   libvcruntime:std_type_info.obj
 0001:000133e8       __std_type_info_destroy_list 00000001800143e8 f   libvcruntime:std_type_info.obj
 0001:00013430       memmove                    0000000180014430 f   libvcruntime:memcpy.obj
 0001:00013430       memcpy                     0000000180014430 f   libvcruntime:memcpy.obj
 0001:00013868       __vcrt_freefls             0000000180014868 f   libvcruntime:per_thread_data.obj
 0001:00013888       __vcrt_freeptd             0000000180014888 f   libvcruntime:per_thread_data.obj
 0001:000138d8       __vcrt_getptd              00000001800148d8 f   libvcruntime:per_thread_data.obj
 0001:000138f4       __vcrt_getptd_noexit       00000001800148f4 f   libvcruntime:per_thread_data.obj
 0001:000139ac       __vcrt_initialize_ptd      00000001800149ac f   libvcruntime:per_thread_data.obj
 0001:000139ec       __vcrt_uninitialize_ptd    00000001800149ec f   libvcruntime:per_thread_data.obj
 0001:00013a10       ?__GetCurrentState@@YAHPEA_KPEAU_xDISPATCHER_CONTEXT@@PEBU_s_FuncInfo@@@Z 0000000180014a10 f   libvcruntime:ehstate.obj
 0001:00013a38       ?__GetUnwindTryBlock@@YAHPEA_KPEAU_xDISPATCHER_CONTEXT@@PEBU_s_FuncInfo@@@Z 0000000180014a38 f   libvcruntime:ehstate.obj
 0001:00013a64       ?__SetState@@YAXPEA_KPEAU_xDISPATCHER_CONTEXT@@PEBU_s_FuncInfo@@H@Z 0000000180014a64 f   libvcruntime:ehstate.obj
 0001:00013a70       ?__SetUnwindTryBlock@@YAXPEA_KPEAU_xDISPATCHER_CONTEXT@@PEBU_s_FuncInfo@@H@Z 0000000180014a70 f   libvcruntime:ehstate.obj
 0001:00013aac       ?__StateFromControlPc@@YAHPEBU_s_FuncInfo@@PEAU_xDISPATCHER_CONTEXT@@@Z 0000000180014aac f   libvcruntime:ehstate.obj
 0001:00013ab4       ?__StateFromIp@@YAHPEBU_s_FuncInfo@@PEAU_xDISPATCHER_CONTEXT@@_J@Z 0000000180014ab4 f   libvcruntime:ehstate.obj
 0001:00013b30       _CallSettingFrame          0000000180014b30 f   libvcruntime:handlers.obj
 0001:00013b70       ?_ExecutionInCatch@@YAHPEAU_xDISPATCHER_CONTEXT@@PEBU_s_FuncInfo@@@Z 0000000180014b70 f   libvcruntime:trnsctrl.obj
 0001:00013be4       ?_GetEstablisherFrame@@YAPEA_KPEA_KPEAU_xDISPATCHER_CONTEXT@@PEBU_s_FuncInfo@@0@Z 0000000180014be4 f   libvcruntime:trnsctrl.obj
 0001:00013cb0       ?_GetRangeOfTrysToCheck@@YAPEBU_s_TryBlockMapEntry@@PEA_KPEBU_s_FuncInfo@@HHPEAI2PEAU_xDISPATCHER_CONTEXT@@@Z 0000000180014cb0 f   libvcruntime:trnsctrl.obj
 0001:00013ddc       ?__FrameUnwindToEmptyState@@YAXPEA_KPEAU_xDISPATCHER_CONTEXT@@PEBU_s_FuncInfo@@@Z 0000000180014ddc f   libvcruntime:trnsctrl.obj
 0001:00013e70       ?__SehTransFilter@@YAHPEAU_EXCEPTION_POINTERS@@PEAUEHExceptionRecord@@PEA_KPEAU_CONTEXT@@PEAU_xDISPATCHER_CONTEXT@@PEBU_s_FuncInfo@@PEAH@Z 0000000180014e70 f   libvcruntime:trnsctrl.obj
 0001:00013f08       _CallSETranslator          0000000180014f08 f   libvcruntime:trnsctrl.obj
 0001:00013f60       _CreateFrameInfo           0000000180014f60 f   libvcruntime:trnsctrl.obj
 0001:00013f9c       _FindAndUnlinkFrame        0000000180014f9c f   libvcruntime:trnsctrl.obj
 0001:00013ff4       _GetImageBase              0000000180014ff4 f   libvcruntime:trnsctrl.obj
 0001:00014008       _GetThrowImageBase         0000000180015008 f   libvcruntime:trnsctrl.obj
 0001:0001401c       _IsExceptionObjectToBeDestroyed 000000018001501c f   libvcruntime:trnsctrl.obj
 0001:0001404c       _SetImageBase              000000018001504c f   libvcruntime:trnsctrl.obj
 0001:00014064       _SetThrowImageBase         0000000180015064 f   libvcruntime:trnsctrl.obj
 0001:0001407c       _UnwindNestedFrames        000000018001507c f   libvcruntime:trnsctrl.obj
 0001:000141a0       __CxxFrameHandler3         00000001800151a0 f   libvcruntime:trnsctrl.obj
 0001:00014230       _local_unwind              0000000180015230 f   libvcruntime:_jmpuwind_.obj
 0001:00014260       _NLG_Notify                0000000180015260 f   libvcruntime:_jmpuwind_.obj
 0001:00014280       __NLG_Dispatch2            0000000180015280 f   libvcruntime:_jmpuwind_.obj
 0001:00014290       __NLG_Return2              0000000180015290 f   libvcruntime:_jmpuwind_.obj
 0001:00014294       __vcrt_initialize_locks    0000000180015294 f   libvcruntime:locks.obj
 0001:000142dc       __vcrt_uninitialize_locks  00000001800152dc f   libvcruntime:locks.obj
 0001:000144dc       __vcrt_FlsAlloc            00000001800154dc f   libvcruntime:winapi_downlevel.obj
 0001:00014530       __vcrt_FlsFree             0000000180015530 f   libvcruntime:winapi_downlevel.obj
 0001:00014584       __vcrt_FlsGetValue         0000000180015584 f   libvcruntime:winapi_downlevel.obj
 0001:000145d8       __vcrt_FlsSetValue         00000001800155d8 f   libvcruntime:winapi_downlevel.obj
 0001:00014640       __vcrt_InitializeCriticalSectionEx 0000000180015640 f   libvcruntime:winapi_downlevel.obj
 0001:000146b8       __vcrt_initialize_winapi_thunks 00000001800156b8 f   libvcruntime:winapi_downlevel.obj
 0001:00014704       __vcrt_uninitialize_winapi_thunks 0000000180015704 f   libvcruntime:winapi_downlevel.obj
 0001:00014744       __vcrt_initialize_pure_virtual_call_handler 0000000180015744 f   libvcruntime:purevirt_data.obj
 0001:00014768       realloc                    0000000180015768 f   libucrt:realloc.obj
 0001:00014770       free                       0000000180015770 f   libucrt:free.obj
 0001:00015160       ??$ftprintf@PEAU_iobuf@@PEB_WAEBQEB_WAEBQEB_WAEBI@?$__crt_char_traits@_W@@SAH$$QEAPEAU_iobuf@@$$QEAPEB_WAEBQEB_W2AEBI@Z 0000000180016160 f i libucrt:assert.obj
 0001:00015188       _wassert                   0000000180016188 f   libucrt:assert.obj
 0001:0001520c       fwprintf                   000000018001620c f i libucrt:assert.obj
 0001:00015250       swprintf                   0000000180016250 f i libucrt:assert.obj
 0001:000152a4       malloc                     00000001800162a4 f   libucrt:malloc.obj
 0001:000152ac       _isnan                     00000001800162ac f   libucrt:ieeemisc.obj
 0001:000152d8       _finite                    00000001800162d8 f   libucrt:_finite.obj
 0001:00015304       __acrt_call_reportfault    0000000180016304 f   libucrt:invalid_parameter.obj
 0001:00015460       __acrt_initialize_invalid_parameter_handler 0000000180016460 f   libucrt:invalid_parameter.obj
 0001:00015468       _invalid_parameter         0000000180016468 f   libucrt:invalid_parameter.obj
 0001:00015510       _invalid_parameter_noinfo  0000000180016510 f   libucrt:invalid_parameter.obj
 0001:00015530       _invalid_parameter_noinfo_noreturn 0000000180016530 f   libucrt:invalid_parameter.obj
 0001:00015560       _invoke_watson             0000000180016560 f   libucrt:invalid_parameter.obj
 0001:000155a8       __acrt_initialize_stdio    00000001800165a8 f   libucrt:_file.obj
 0001:000156c8       __acrt_iob_func            00000001800166c8 f   libucrt:_file.obj
 0001:000156dc       __acrt_uninitialize_stdio  00000001800166dc f   libucrt:_file.obj
 0001:00015738       _lock_file                 0000000180016738 f   libucrt:_file.obj
 0001:00015744       _unlock_file               0000000180016744 f   libucrt:_file.obj
 0001:00015750       ??$?RV<lambda_7b91131dde12e1c3dfc74ff76b3f2eac>@@AEAV<lambda_dd75445284c072d0bd3768540cc698fa>@@V<lambda_16bc4ecb55b4718497c16bceaea2ceaf>@@@?$__crt_seh_guarded_call@H@@QEAAH$$QEAV<lambda_7b91131dde12e1c3dfc74ff76b3f2eac>@@AEAV<lambda_dd75445284c072d0bd3768540cc698fa>@@$$QEAV<lambda_16bc4ecb55b4718497c16bceaea2ceaf>@@@Z 0000000180016750 f i libucrt:output.obj
 0001:00015790       ??$ensure_buffer_is_big_enough@D@formatting_buffer@__crt_stdio_output@@QEAA_N_K@Z 0000000180016790 f i libucrt:output.obj
 0001:0001583c       ??$is_wide_character_specifier@D@__crt_stdio_output@@YA_N_KDW4length_modifier@0@@Z 000000018001683c f i libucrt:output.obj
 0001:0001586c       ??$is_wide_character_specifier@_W@__crt_stdio_output@@YA_N_K_WW4length_modifier@0@@Z 000000018001686c f i libucrt:output.obj
 0001:000158b0       ??$type_case_integer_parse_into_buffer@I@?$output_processor@_WV?$stream_output_adapter@_W@__crt_stdio_output@@V?$standard_base@_WV?$stream_output_adapter@_W@__crt_stdio_output@@@2@@__crt_stdio_output@@AEAAXII_N@Z 00000001800168b0 f i libucrt:output.obj
 0001:000158b0       ??$type_case_integer_parse_into_buffer@I@?$output_processor@_WV?$string_output_adapter@_W@__crt_stdio_output@@V?$standard_base@_WV?$string_output_adapter@_W@__crt_stdio_output@@@2@@__crt_stdio_output@@AEAAXII_N@Z 00000001800168b0 f i libucrt:output.obj
 0001:000158b0       ??$type_case_integer_parse_into_buffer@I@?$output_processor@DV?$string_output_adapter@D@__crt_stdio_output@@V?$standard_base@DV?$string_output_adapter@D@__crt_stdio_output@@@2@@__crt_stdio_output@@AEAAXII_N@Z 00000001800168b0 f i libucrt:output.obj
 0001:0001594c       ??$type_case_integer_parse_into_buffer@_K@?$output_processor@_WV?$stream_output_adapter@_W@__crt_stdio_output@@V?$standard_base@_WV?$stream_output_adapter@_W@__crt_stdio_output@@@2@@__crt_stdio_output@@AEAAX_KI_N@Z 000000018001694c f i libucrt:output.obj
 0001:0001594c       ??$type_case_integer_parse_into_buffer@_K@?$output_processor@_WV?$string_output_adapter@_W@__crt_stdio_output@@V?$standard_base@_WV?$string_output_adapter@_W@__crt_stdio_output@@@2@@__crt_stdio_output@@AEAAX_KI_N@Z 000000018001694c f i libucrt:output.obj
 0001:0001594c       ??$type_case_integer_parse_into_buffer@_K@?$output_processor@DV?$string_output_adapter@D@__crt_stdio_output@@V?$standard_base@DV?$string_output_adapter@D@__crt_stdio_output@@@2@@__crt_stdio_output@@AEAAX_KI_N@Z 000000018001694c f i libucrt:output.obj
 0001:000159e8       ??$write_multiple_characters@V?$stream_output_adapter@_W@__crt_stdio_output@@D@__crt_stdio_output@@YAXAEBV?$stream_output_adapter@_W@0@DHQEAH@Z 00000001800169e8 f i libucrt:output.obj
 0001:00015a78       ??$write_multiple_characters@V?$string_output_adapter@D@__crt_stdio_output@@D@__crt_stdio_output@@YAXAEBV?$string_output_adapter@D@0@DHQEAH@Z 0000000180016a78 f i libucrt:output.obj
 0001:00015ad4       ??$write_multiple_characters@V?$string_output_adapter@_W@__crt_stdio_output@@D@__crt_stdio_output@@YAXAEBV?$string_output_adapter@_W@0@DHQEAH@Z 0000000180016ad4 f i libucrt:output.obj
 0001:00015b44       ??0?$output_processor@DV?$string_output_adapter@D@__crt_stdio_output@@V?$standard_base@DV?$string_output_adapter@D@__crt_stdio_output@@@2@@__crt_stdio_output@@QEAA@AEBV?$string_output_adapter@D@1@_KQEBDQEAU__crt_locale_pointers@@QEAD@Z 0000000180016b44 f i libucrt:output.obj
 0001:00015bc0       ??0?$output_processor@_WV?$string_output_adapter@_W@__crt_stdio_output@@V?$standard_base@_WV?$string_output_adapter@_W@__crt_stdio_output@@@2@@__crt_stdio_output@@QEAA@AEBV?$string_output_adapter@_W@1@_KQEB_WQEAU__crt_locale_pointers@@QEAD@Z 0000000180016bc0 f i libucrt:output.obj
 0001:00015bc0       ??0?$output_processor@_WV?$stream_output_adapter@_W@__crt_stdio_output@@V?$standard_base@_WV?$stream_output_adapter@_W@__crt_stdio_output@@@2@@__crt_stdio_output@@QEAA@AEBV?$stream_output_adapter@_W@1@_KQEB_WQEAU__crt_locale_pointers@@QEAD@Z 0000000180016bc0 f i libucrt:output.obj
 0001:00015c40       ??0_LocaleUpdate@@QEAA@QEAU__crt_locale_pointers@@@Z 0000000180016c40 f i libucrt:output.obj
 0001:00015dc0       ?force_decimal_point@__crt_stdio_output@@YAXPEADQEAU__crt_locale_pointers@@@Z 0000000180016dc0 f i libucrt:output.obj
 0001:00015e30       ?parse_int_from_format_string@?$output_processor@DV?$string_output_adapter@D@__crt_stdio_output@@V?$standard_base@DV?$string_output_adapter@D@__crt_stdio_output@@@2@@__crt_stdio_output@@AEAA_NQEAH@Z 0000000180016e30 f i libucrt:output.obj
 0001:00015eb4       ?parse_int_from_format_string@?$output_processor@_WV?$stream_output_adapter@_W@__crt_stdio_output@@V?$standard_base@_WV?$stream_output_adapter@_W@__crt_stdio_output@@@2@@__crt_stdio_output@@AEAA_NQEAH@Z 0000000180016eb4 f i libucrt:output.obj
 0001:00015eb4       ?parse_int_from_format_string@?$output_processor@_WV?$string_output_adapter@_W@__crt_stdio_output@@V?$standard_base@_WV?$string_output_adapter@_W@__crt_stdio_output@@@2@@__crt_stdio_output@@AEAA_NQEAH@Z 0000000180016eb4 f i libucrt:output.obj
 0001:00015f34       ?process@?$output_processor@DV?$string_output_adapter@D@__crt_stdio_output@@V?$standard_base@DV?$string_output_adapter@D@__crt_stdio_output@@@2@@__crt_stdio_output@@QEAAHXZ 0000000180016f34 f i libucrt:output.obj
 0001:00016138       ?process@?$output_processor@_WV?$stream_output_adapter@_W@__crt_stdio_output@@V?$standard_base@_WV?$stream_output_adapter@_W@__crt_stdio_output@@@2@@__crt_stdio_output@@QEAAHXZ 0000000180017138 f i libucrt:output.obj
 0001:000163b0       ?process@?$output_processor@_WV?$string_output_adapter@_W@__crt_stdio_output@@V?$standard_base@_WV?$string_output_adapter@_W@__crt_stdio_output@@@2@@__crt_stdio_output@@QEAAHXZ 00000001800173b0 f i libucrt:output.obj
 0001:0001662c       ?state_case_normal@?$output_processor@DV?$string_output_adapter@D@__crt_stdio_output@@V?$standard_base@DV?$string_output_adapter@D@__crt_stdio_output@@@2@@__crt_stdio_output@@AEAA_NXZ 000000018001762c f i libucrt:output.obj
 0001:000166a0       ?state_case_normal_tchar@?$output_processor@DV?$string_output_adapter@D@__crt_stdio_output@@V?$standard_base@DV?$string_output_adapter@D@__crt_stdio_output@@@2@@__crt_stdio_output@@AEAA_ND@Z 00000001800176a0 f i libucrt:output.obj
 0001:00016738       ?state_case_size@?$output_processor@DV?$string_output_adapter@D@__crt_stdio_output@@V?$standard_base@DV?$string_output_adapter@D@__crt_stdio_output@@@2@@__crt_stdio_output@@AEAA_NXZ 0000000180017738 f i libucrt:output.obj
 0001:000168b4       ?state_case_size@?$output_processor@_WV?$stream_output_adapter@_W@__crt_stdio_output@@V?$standard_base@_WV?$stream_output_adapter@_W@__crt_stdio_output@@@2@@__crt_stdio_output@@AEAA_NXZ 00000001800178b4 f i libucrt:output.obj
 0001:00016a58       ?state_case_size@?$output_processor@_WV?$string_output_adapter@_W@__crt_stdio_output@@V?$standard_base@_WV?$string_output_adapter@_W@__crt_stdio_output@@@2@@__crt_stdio_output@@AEAA_NXZ 0000000180017a58 f i libucrt:output.obj
 0001:00016bfc       ?state_case_type@?$output_processor@DV?$string_output_adapter@D@__crt_stdio_output@@V?$standard_base@DV?$string_output_adapter@D@__crt_stdio_output@@@2@@__crt_stdio_output@@AEAA_NXZ 0000000180017bfc f i libucrt:output.obj
 0001:00016e78       ?state_case_type@?$output_processor@_WV?$stream_output_adapter@_W@__crt_stdio_output@@V?$standard_base@_WV?$stream_output_adapter@_W@__crt_stdio_output@@@2@@__crt_stdio_output@@AEAA_NXZ 0000000180017e78 f i libucrt:output.obj
 0001:00017144       ?state_case_type@?$output_processor@_WV?$string_output_adapter@_W@__crt_stdio_output@@V?$standard_base@_WV?$string_output_adapter@_W@__crt_stdio_output@@@2@@__crt_stdio_output@@AEAA_NXZ 0000000180018144 f i libucrt:output.obj
 0001:00017410       ?type_case_Z@?$output_processor@DV?$string_output_adapter@D@__crt_stdio_output@@V?$standard_base@DV?$string_output_adapter@D@__crt_stdio_output@@@2@@__crt_stdio_output@@AEAA_NXZ 0000000180018410 f i libucrt:output.obj
 0001:00017490       ?type_case_Z@?$output_processor@_WV?$string_output_adapter@_W@__crt_stdio_output@@V?$standard_base@_WV?$string_output_adapter@_W@__crt_stdio_output@@@2@@__crt_stdio_output@@AEAA_NXZ 0000000180018490 f i libucrt:output.obj
 0001:00017490       ?type_case_Z@?$output_processor@_WV?$stream_output_adapter@_W@__crt_stdio_output@@V?$standard_base@_WV?$stream_output_adapter@_W@__crt_stdio_output@@@2@@__crt_stdio_output@@AEAA_NXZ 0000000180018490 f i libucrt:output.obj
 0001:00017510       ?type_case_a@?$output_processor@DV?$string_output_adapter@D@__crt_stdio_output@@V?$standard_base@DV?$string_output_adapter@D@__crt_stdio_output@@@2@@__crt_stdio_output@@AEAA_NXZ 0000000180018510 f i libucrt:output.obj
 0001:0001772c       ?type_case_a@?$output_processor@_WV?$string_output_adapter@_W@__crt_stdio_output@@V?$standard_base@_WV?$string_output_adapter@_W@__crt_stdio_output@@@2@@__crt_stdio_output@@AEAA_NXZ 000000018001872c f i libucrt:output.obj
 0001:0001772c       ?type_case_a@?$output_processor@_WV?$stream_output_adapter@_W@__crt_stdio_output@@V?$standard_base@_WV?$stream_output_adapter@_W@__crt_stdio_output@@@2@@__crt_stdio_output@@AEAA_NXZ 000000018001872c f i libucrt:output.obj
 0001:00017970       ?type_case_c_tchar@?$output_processor@DV?$string_output_adapter@D@__crt_stdio_output@@V?$standard_base@DV?$string_output_adapter@D@__crt_stdio_output@@@2@@__crt_stdio_output@@AEAA_ND@Z 0000000180018970 f i libucrt:output.obj
 0001:00017a24       ?type_case_c_tchar@?$output_processor@_WV?$stream_output_adapter@_W@__crt_stdio_output@@V?$standard_base@_WV?$stream_output_adapter@_W@__crt_stdio_output@@@2@@__crt_stdio_output@@AEAA_N_W@Z 0000000180018a24 f i libucrt:output.obj
 0001:00017a24       ?type_case_c_tchar@?$output_processor@_WV?$string_output_adapter@_W@__crt_stdio_output@@V?$standard_base@_WV?$string_output_adapter@_W@__crt_stdio_output@@@2@@__crt_stdio_output@@AEAA_N_W@Z 0000000180018a24 f i libucrt:output.obj
 0001:00017acc       ?type_case_integer@?$output_processor@_WV?$stream_output_adapter@_W@__crt_stdio_output@@V?$standard_base@_WV?$stream_output_adapter@_W@__crt_stdio_output@@@2@@__crt_stdio_output@@AEAA_NI_N@Z 0000000180018acc f i libucrt:output.obj
 0001:00017acc       ?type_case_integer@?$output_processor@_WV?$string_output_adapter@_W@__crt_stdio_output@@V?$standard_base@_WV?$string_output_adapter@_W@__crt_stdio_output@@@2@@__crt_stdio_output@@AEAA_NI_N@Z 0000000180018acc f i libucrt:output.obj
 0001:00017acc       ?type_case_integer@?$output_processor@DV?$string_output_adapter@D@__crt_stdio_output@@V?$standard_base@DV?$string_output_adapter@D@__crt_stdio_output@@@2@@__crt_stdio_output@@AEAA_NI_N@Z 0000000180018acc f i libucrt:output.obj
 0001:00017c6c       ?type_case_n@?$output_processor@DV?$string_output_adapter@D@__crt_stdio_output@@V?$standard_base@DV?$string_output_adapter@D@__crt_stdio_output@@@2@@__crt_stdio_output@@AEAA_NXZ 0000000180018c6c f i libucrt:output.obj
 0001:00017c6c       ?type_case_n@?$output_processor@_WV?$stream_output_adapter@_W@__crt_stdio_output@@V?$standard_base@_WV?$stream_output_adapter@_W@__crt_stdio_output@@@2@@__crt_stdio_output@@AEAA_NXZ 0000000180018c6c f i libucrt:output.obj
 0001:00017c6c       ?type_case_n@?$output_processor@_WV?$string_output_adapter@_W@__crt_stdio_output@@V?$standard_base@_WV?$string_output_adapter@_W@__crt_stdio_output@@@2@@__crt_stdio_output@@AEAA_NXZ 0000000180018c6c f i libucrt:output.obj
 0001:00017d48       ?type_case_s@?$output_processor@DV?$string_output_adapter@D@__crt_stdio_output@@V?$standard_base@DV?$string_output_adapter@D@__crt_stdio_output@@@2@@__crt_stdio_output@@AEAA_NXZ 0000000180018d48 f i libucrt:output.obj
 0001:00017dd8       ?type_case_s@?$output_processor@_WV?$string_output_adapter@_W@__crt_stdio_output@@V?$standard_base@_WV?$string_output_adapter@_W@__crt_stdio_output@@@2@@__crt_stdio_output@@AEAA_NXZ 0000000180018dd8 f i libucrt:output.obj
 0001:00017dd8       ?type_case_s@?$output_processor@_WV?$stream_output_adapter@_W@__crt_stdio_output@@V?$standard_base@_WV?$stream_output_adapter@_W@__crt_stdio_output@@@2@@__crt_stdio_output@@AEAA_NXZ 0000000180018dd8 f i libucrt:output.obj
 0001:00017ea0       ?write_stored_string_tchar@?$output_processor@DV?$string_output_adapter@D@__crt_stdio_output@@V?$standard_base@DV?$string_output_adapter@D@__crt_stdio_output@@@2@@__crt_stdio_output@@AEAA_ND@Z 0000000180018ea0 f i libucrt:output.obj
 0001:00017f78       ?write_stored_string_tchar@?$output_processor@_WV?$stream_output_adapter@_W@__crt_stdio_output@@V?$standard_base@_WV?$stream_output_adapter@_W@__crt_stdio_output@@@2@@__crt_stdio_output@@AEAA_N_W@Z 0000000180018f78 f i libucrt:output.obj
 0001:00018064       ?write_stored_string_tchar@?$output_processor@_WV?$string_output_adapter@_W@__crt_stdio_output@@V?$standard_base@_WV?$string_output_adapter@_W@__crt_stdio_output@@@2@@__crt_stdio_output@@AEAA_N_W@Z 0000000180019064 f i libucrt:output.obj
 0001:00018154       ?write_string@?$stream_output_adapter@_W@__crt_stdio_output@@QEBAXQEB_WHQEAH1@Z 0000000180019154 f i libucrt:output.obj
 0001:00018260       ?write_string@?$string_output_adapter@D@__crt_stdio_output@@QEBAXQEBDHQEAH1@Z 0000000180019260 f i libucrt:output.obj
 0001:0001831c       ?write_string@?$string_output_adapter@_W@__crt_stdio_output@@QEBAXQEB_WHQEAH1@Z 000000018001931c f i libucrt:output.obj
 0001:000183dc       __stdio_common_vfwprintf   00000001800193dc f   libucrt:output.obj
 0001:00018468       __stdio_common_vsprintf    0000000180019468 f   libucrt:output.obj
 0001:0001869c       __stdio_common_vswprintf   000000018001969c f   libucrt:output.obj
 0001:000189a4       fopen                      00000001800199a4 f   libucrt:fopen.obj
 0001:000189b0       _fclose_nolock             00000001800199b0 f   libucrt:fclose.obj
 0001:00018a34       fclose                     0000000180019a34 f   libucrt:fclose.obj
 0001:00018d14       fseek                      0000000180019d14 f   libucrt:fseek.obj
 0001:00018d1c       _fread_nolock_s            0000000180019d1c f   libucrt:fread.obj
 0001:00018f9c       fread                      0000000180019f9c f   libucrt:fread.obj
 0001:00018fbc       fread_s                    0000000180019fbc f   libucrt:fread.obj
 0001:00019064       __acrt_initialize_new_handler 000000018001a064 f   libucrt:new_handler.obj
 0001:0001906c       _callnewh                  000000018001a06c f   libucrt:new_handler.obj
 0001:000190ac       _query_new_handler         000000018001a0ac f   libucrt:new_handler.obj
 0001:000190e0       _seh_filter_dll            000000018001a0e0 f   libucrt:exception_filter.obj
 0001:000190f4       _seh_filter_exe            000000018001a0f4 f   libucrt:exception_filter.obj
 0001:000194b4       __acrt_initialize_thread_local_exit_callback 000000018001a4b4 f   libucrt:exit.obj
 0001:000194bc       _cexit                     000000018001a4bc f   libucrt:exit.obj
 0001:000194cc       _exit                      000000018001a4cc f   libucrt:exit.obj
 0001:000194d8       _is_c_termination_complete 000000018001a4d8 f   libucrt:exit.obj
 0001:0001969c       __acrt_allocate_buffer_for_argv 000000018001a69c f   libucrt:argv_parsing.obj
 0001:00019700       _configure_narrow_argv     000000018001a700 f   libucrt:argv_parsing.obj
 0001:00019a5c       __dcrt_uninitialize_environments_nolock 000000018001aa5c f   libucrt:environment_initialization.obj
 0001:00019a94       _initialize_narrow_environment 000000018001aa94 f   libucrt:environment_initialization.obj
 0001:00019a9c       ??$?RV<lambda_b8c45f8f788dd370798f47cfe8ac3a86>@@AEAV<lambda_4e60a939b0d047cfe11ddc22648dfba9>@@V<lambda_332c3edc96d0294ec56c57d38c1cdfd5>@@@?$__crt_seh_guarded_call@H@@QEAAH$$QEAV<lambda_b8c45f8f788dd370798f47cfe8ac3a86>@@AEAV<lambda_4e60a939b0d047cfe11ddc22648dfba9>@@$$QEAV<lambda_332c3edc96d0294ec56c57d38c1cdfd5>@@@Z 000000018001aa9c f i libucrt:onexit.obj
 0001:00019ad8       ??$?RV<lambda_e24bbb7b643b32fcea6fa61b31d4c984>@@AEAV<lambda_275893d493268fdec8709772e3fcec0e>@@V<lambda_9d71df4d7cf3f480f8d633942495c3b0>@@@?$__crt_seh_guarded_call@H@@QEAAH$$QEAV<lambda_e24bbb7b643b32fcea6fa61b31d4c984>@@AEAV<lambda_275893d493268fdec8709772e3fcec0e>@@$$QEAV<lambda_9d71df4d7cf3f480f8d633942495c3b0>@@@Z 000000018001aad8 f i libucrt:onexit.obj
 0001:00019e54       _crt_atexit                000000018001ae54 f   libucrt:onexit.obj
 0001:00019e64       _execute_onexit_table      000000018001ae64 f   libucrt:onexit.obj
 0001:00019ea0       _initialize_onexit_table   000000018001aea0 f   libucrt:onexit.obj
 0001:00019ee0       _register_onexit_function  000000018001aee0 f   libucrt:onexit.obj
 0001:00019f60       __acrt_uninitialize_command_line 000000018001af60 f   libucrt:argv_data.obj
 0001:0001a060       __acrt_initialize          000000018001b060 f   libucrt:initialization.obj
 0001:0001a074       __acrt_thread_attach       000000018001b074 f   libucrt:initialization.obj
 0001:0001a088       __acrt_thread_detach       000000018001b088 f   libucrt:initialization.obj
 0001:0001a098       __acrt_uninitialize        000000018001b098 f   libucrt:initialization.obj
 0001:0001a0ac       __acrt_uninitialize_critical 000000018001b0ac f   libucrt:initialization.obj
 0001:0001a0bc       _initterm                  000000018001b0bc f   libucrt:initterm.obj
 0001:0001a134       _initterm_e                000000018001b134 f   libucrt:initterm.obj
 0001:0001a180       terminate                  000000018001b180 f   libucrt:terminate.obj
 0001:0001a1a8       strdup                     000000018001b1a8 f   libucrt:strdup.obj
 0001:0001a1a8       _strdup                    000000018001b1a8 f   libucrt:strdup.obj
 0001:0001a220       strcpy_s                   000000018001b220 f   libucrt:strcpy_s.obj
 0001:0001a280       _free_base                 000000018001b280 f   libucrt:free_base.obj
 0001:0001a2c0       _malloc_base               000000018001b2c0 f   libucrt:malloc_base.obj
 0001:0001a320       abort                      000000018001b320 f   libucrt:abort.obj
 0001:0001a378       _calloc_base               000000018001b378 f   libucrt:calloc_base.obj
 0001:0001a3f0       ??$is_overflow_condition@K@__crt_strtox@@YA_NIK@Z 000000018001b3f0 f i libucrt:atox.obj
 0001:0001a41c       ??$parse_integer@KV?$c_string_character_source@D@__crt_strtox@@@__crt_strtox@@YAKQEAU__crt_locale_pointers@@V?$c_string_character_source@D@0@H_N@Z 000000018001b41c f i libucrt:atox.obj
 0001:0001a730       ??$parse_integer@KV?$c_string_character_source@_W@__crt_strtox@@@__crt_strtox@@YAKQEAU__crt_locale_pointers@@V?$c_string_character_source@_W@0@H_N@Z 000000018001b730 f i libucrt:atox.obj
 0001:0001ae04       _realloc_base              000000018001be04 f   libucrt:realloc_base.obj
 0001:0001ae88       _query_app_type            000000018001be88 f   libucrt:report_runtime_error.obj
 0001:0001ae90       __acrt_errno_from_os_error 000000018001be90 f   libucrt:errno.obj
 0001:0001aed8       __acrt_errno_map_os_error  000000018001bed8 f   libucrt:errno.obj
 0001:0001af28       __doserrno                 000000018001bf28 f   libucrt:errno.obj
 0001:0001af48       _errno                     000000018001bf48 f   libucrt:errno.obj
 0001:0001b090       _itow_s                    000000018001c090 f   libucrt:xtoa.obj
 0001:0001b0b0       _set_error_mode            000000018001c0b0 f   libucrt:set_error_mode.obj
 0001:0001b0f0       wcscat_s                   000000018001c0f0 f   libucrt:wcscat_s.obj
 0001:0001b170       wcscpy_s                   000000018001c170 f   libucrt:wcscpy_s.obj
 0001:0001b1d8       wcsncat_s                  000000018001c1d8 f   libucrt:wcsncat_s.obj
 0001:0001b300       __acrt_show_wide_message_box 000000018001c300 f   libucrt:crtmbox.obj
 0001:0001b41c       __acrt_stdio_flush_nolock  000000018001c41c f   libucrt:fflush.obj
 0001:0001b494       _fflush_nolock             000000018001c494 f   libucrt:fflush.obj
 0001:0001b4e0       _flushall                  000000018001c4e0 f   libucrt:fflush.obj
 0001:0001b5d0       fflush                     000000018001c5d0 f   libucrt:fflush.obj
 0001:0001b614       ??$?RV<lambda_7a5ef57ff966f610505f1d28a3d40618>@@AEAV<lambda_b721fa326cdb32351d23dfa67958c160>@@V<lambda_5e0fb27672408a07956fe59e48ccb2aa>@@@?$__crt_seh_guarded_call@H@@QEAAH$$QEAV<lambda_7a5ef57ff966f610505f1d28a3d40618>@@AEAV<lambda_b721fa326cdb32351d23dfa67958c160>@@$$QEAV<lambda_5e0fb27672408a07956fe59e48ccb2aa>@@@Z 000000018001c614 f i libucrt:setvbuf.obj
 0001:0001b744       setvbuf                    000000018001c744 f   libucrt:setvbuf.obj
 0001:0001b7e4       ??$?RV<lambda_c36588078e9f5dfd39652860aa6b3aaf>@@AEAV<lambda_ec61778202f4f5fc7e7711acc23c3bca>@@V<lambda_dc9d2797ccde5d239b4a0efae8ebd7db>@@@?$__crt_seh_guarded_call@P6AXH@Z@@QEAAP6AXH@Z$$QEAV<lambda_c36588078e9f5dfd39652860aa6b3aaf>@@AEAV<lambda_ec61778202f4f5fc7e7711acc23c3bca>@@$$QEAV<lambda_dc9d2797ccde5d239b4a0efae8ebd7db>@@@Z 000000018001c7e4 f i libucrt:signal.obj
 0001:0001b82c       __acrt_get_sigabrt_handler 000000018001c82c f   libucrt:signal.obj
 0001:0001b85c       __acrt_initialize_signal_handlers 000000018001c85c f   libucrt:signal.obj
 0001:0001b87c       raise                      000000018001c87c f   libucrt:signal.obj
 0001:0001bc3c       _handle_error              000000018001cc3c f   libucrt:libm_error.obj
 0001:0001bd64       _handle_errorf             000000018001cd64 f   libucrt:libm_error.obj
 0001:0001be98       _handle_nan                000000018001ce98 f   libucrt:libm_error.obj
 0001:0001beb4       _handle_nanf               000000018001ceb4 f   libucrt:libm_error.obj
 0001:0001bec4       ??$?RV<lambda_46352004c1216016012b18bd6f87e700>@@AEAV<lambda_3bd07e1a1191394380780325891bf33f>@@V<lambda_334532d3f185bcaa59b5be82d7d22bff>@@@?$__crt_seh_guarded_call@X@@QEAAX$$QEAV<lambda_46352004c1216016012b18bd6f87e700>@@AEAV<lambda_3bd07e1a1191394380780325891bf33f>@@$$QEAV<lambda_334532d3f185bcaa59b5be82d7d22bff>@@@Z 000000018001cec4 f i libucrt:per_thread_data.obj
 0001:0001bf24       ??$?RV<lambda_5e887d1dcbef67a5eb4283622ba103bf>@@AEAV<lambda_4466841279450cc726390878d4a41900>@@V<lambda_341c25c0346d94847f1f3c463c57e077>@@@?$__crt_seh_guarded_call@X@@QEAAX$$QEAV<lambda_5e887d1dcbef67a5eb4283622ba103bf>@@AEAV<lambda_4466841279450cc726390878d4a41900>@@$$QEAV<lambda_341c25c0346d94847f1f3c463c57e077>@@@Z 000000018001cf24 f i libucrt:per_thread_data.obj
 0001:0001bf6c       ??$?RV<lambda_72d1df2b273a38828b1ce30cbf4cdab5>@@AEAV<lambda_876a65b173b8412d3a47c70a915b0cf4>@@V<lambda_41932305e351933ebe8f8be3ed8bb5dc>@@@?$__crt_seh_guarded_call@X@@QEAAX$$QEAV<lambda_72d1df2b273a38828b1ce30cbf4cdab5>@@AEAV<lambda_876a65b173b8412d3a47c70a915b0cf4>@@$$QEAV<lambda_41932305e351933ebe8f8be3ed8bb5dc>@@@Z 000000018001cf6c f i libucrt:per_thread_data.obj
 0001:0001bfac       ??$?RV<lambda_fb3a7dec4e47f37f22dae91bb15c9095>@@AEAV<lambda_698284760c8add0bfb0756c19673e34b>@@V<lambda_dfb8eca1e75fef3034a8fb18dd509707>@@@?$__crt_seh_guarded_call@X@@QEAAX$$QEAV<lambda_fb3a7dec4e47f37f22dae91bb15c9095>@@AEAV<lambda_698284760c8add0bfb0756c19673e34b>@@$$QEAV<lambda_dfb8eca1e75fef3034a8fb18dd509707>@@@Z 000000018001cfac f i libucrt:per_thread_data.obj
 0001:0001c23c       __acrt_freeptd             000000018001d23c f   libucrt:per_thread_data.obj
 0001:0001c280       __acrt_getptd              000000018001d280 f   libucrt:per_thread_data.obj
 0001:0001c314       __acrt_getptd_noexit       000000018001d314 f   libucrt:per_thread_data.obj
 0001:0001c3b4       __acrt_initialize_ptd      000000018001d3b4 f   libucrt:per_thread_data.obj
 0001:0001c3f0       __acrt_uninitialize_ptd    000000018001d3f0 f   libucrt:per_thread_data.obj
 0001:0001c5b4       __acrt_AreFileApisANSI     000000018001d5b4 f   libucrt:winapi_thunks.obj
 0001:0001c600       __acrt_FlsAlloc            000000018001d600 f   libucrt:winapi_thunks.obj
 0001:0001c658       __acrt_FlsFree             000000018001d658 f   libucrt:winapi_thunks.obj
 0001:0001c6b0       __acrt_FlsGetValue         000000018001d6b0 f   libucrt:winapi_thunks.obj
 0001:0001c708       __acrt_FlsSetValue         000000018001d708 f   libucrt:winapi_thunks.obj
 0001:0001c770       __acrt_InitializeCriticalSectionEx 000000018001d770 f   libucrt:winapi_thunks.obj
 0001:0001c7e8       __acrt_LCMapStringEx       000000018001d7e8 f   libucrt:winapi_thunks.obj
 0001:0001c8d8       __acrt_LocaleNameToLCID    000000018001d8d8 f   libucrt:winapi_thunks.obj
 0001:0001c940       __acrt_MessageBoxW         000000018001d940 f   libucrt:winapi_thunks.obj
 0001:0001c9c8       __acrt_can_show_message_box 000000018001d9c8 f   libucrt:winapi_thunks.obj
 0001:0001ca24       __acrt_get_parent_window   000000018001da24 f   libucrt:winapi_thunks.obj
 0001:0001cab4       __acrt_initialize_winapi_thunks 000000018001dab4 f   libucrt:winapi_thunks.obj
 0001:0001caec       __acrt_is_interactive      000000018001daec f   libucrt:winapi_thunks.obj
 0001:0001cbc0       __acrt_is_packaged_app     000000018001dbc0 f   libucrt:winapi_thunks.obj
 0001:0001cc48       __acrt_uninitialize_winapi_thunks 000000018001dc48 f   libucrt:winapi_thunks.obj
 0001:0001cc8c       _fcloseall                 000000018001dc8c f   libucrt:closeall.obj
 0001:0001cd40       __acrt_stdio_free_buffer_nolock 000000018001dd40 f   libucrt:_freebuf.obj
 0001:0001cf68       __acrt_initialize_lowio    000000018001df68 f   libucrt:ioinit.obj
 0001:0001cfa4       __acrt_uninitialize_lowio  000000018001dfa4 f   libucrt:ioinit.obj
 0001:0001cfe4       isdigit                    000000018001dfe4 f i libucrt:_ctype.obj
 0001:0001d0a8       _tolower_l                 000000018001e0a8 f   libucrt:tolower_toupper.obj
 0001:0001d1e8       tolower                    000000018001e1e8 f   libucrt:tolower_toupper.obj
 0001:0001d214       ??$make_c_string_character_source@_WPEAPEA_W@__crt_strtox@@YA?AV?$c_string_character_source@_W@0@QEB_WQEAPEA_W@Z 000000018001e214 f i libucrt:strtox.obj
 0001:0001d214       ??$make_c_string_character_source@DPEAPEAD@__crt_strtox@@YA?AV?$c_string_character_source@D@0@QEBDQEAPEAD@Z 000000018001e214 f i libucrt:strtox.obj
 0001:0001d228       strtol                     000000018001e228 f   libucrt:strtox.obj
 0001:0001d258       wcstol                     000000018001e258 f   libucrt:strtox.obj
 0001:0001d288       _mbtowc_l                  000000018001e288 f   libucrt:mbtowc.obj
 0001:0001d3d0       mbtowc                     000000018001e3d0 f   libucrt:mbtowc.obj
 0001:0001d3d8       _wctomb_s_l                000000018001e3d8 f   libucrt:wctomb.obj
 0001:0001d55c       wctomb_s                   000000018001e55c f   libucrt:wctomb.obj
 0001:0001d570       strnlen                    000000018001e570 f   libucrt:strnlen.obj
 0001:0001d6cc       wcsnlen                    000000018001e6cc f   libucrt:strnlen.obj
 0001:0001d8bc       __acrt_update_locale_info  000000018001e8bc f   libucrt:locale_update.obj
 0001:0001d8f0       __acrt_update_multibyte_info 000000018001e8f0 f   libucrt:locale_update.obj
 0001:0001d924       ?__acrt_fp_classify@@YA?AW4__acrt_fp_class@@AEBN@Z 000000018001e924 f i libucrt:cvt.obj
 0001:0001e35c       __acrt_fp_format           000000018001f35c f   libucrt:cvt.obj
 0001:0001e5a0       _fputwc_nolock             000000018001f5a0 f   libucrt:fputwc.obj
 0001:0001e71c       _fileno                    000000018001f71c f   libucrt:fileno.obj
 0001:0001e744       _fputc_nolock              000000018001f744 f   libucrt:fputc.obj
 0001:0001e75c       _get_printf_count_output   000000018001f75c f   libucrt:printf_count_output.obj
 0001:0001e774       __acrt_stdio_begin_temporary_buffering_nolock 000000018001f774 f   libucrt:_sftbuf.obj
 0001:0001e844       __acrt_stdio_end_temporary_buffering_nolock 000000018001f844 f   libucrt:_sftbuf.obj
 0001:0001e880       __acrt_set_locale_changed  000000018001f880 f   libucrt:wsetlocale.obj
 0001:0001e88c       __acrt_uninitialize_locale 000000018001f88c f   libucrt:wsetlocale.obj
 0001:0001e8d4       ?__acrt_stdio_allocate_stream@@YA?AV__crt_stdio_stream@@XZ 000000018001f8d4 f   libucrt:stream.obj
 0001:0001e930       ?__acrt_stdio_free_stream@@YAXV__crt_stdio_stream@@@Z 000000018001f930 f   libucrt:stream.obj
 0001:0001ea60       ??$__acrt_stdio_parse_mode@D@@YA?AU__acrt_stdio_stream_mode@@QEBD@Z 000000018001fa60 f i libucrt:openfile.obj
 0001:0001ecfc       _openfile                  000000018001fcfc f   libucrt:openfile.obj
 0001:0001ed98       ??$?RV<lambda_bfedae4ebbf01fab1bb6dcc6a9e276e0>@@AEAV<lambda_2fe9b910cf3cbf4a0ab98a02ba45b3ec>@@V<lambda_237c231691f317818eb88cc1d5d642d6>@@@?$__crt_seh_guarded_call@H@@QEAAH$$QEAV<lambda_bfedae4ebbf01fab1bb6dcc6a9e276e0>@@AEAV<lambda_2fe9b910cf3cbf4a0ab98a02ba45b3ec>@@$$QEAV<lambda_237c231691f317818eb88cc1d5d642d6>@@@Z 000000018001fd98 f i libucrt:close.obj
 0001:0001ee0c       _close                     000000018001fe0c f   libucrt:close.obj
 0001:0001eeb0       _close_nolock              000000018001feb0 f   libucrt:close.obj
 0001:0001f3d4       _ftelli64_nolock           00000001800203d4 f   libucrt:ftell.obj
 0001:0001f568       _lseeki64                  0000000180020568 f   libucrt:lseek.obj
 0001:0001f570       _lseeki64_nolock           0000000180020570 f   libucrt:lseek.obj
 0001:0001faa8       _read                      0000000180020aa8 f   libucrt:read.obj
 0001:0001fbc0       _read_nolock               0000000180020bc0 f   libucrt:read.obj
 0001:000201d0       __acrt_stdio_refill_and_read_narrow_nolock 00000001800211d0 f   libucrt:_filbuf.obj
 0001:000201d8       __acrt_initialize_locks    00000001800211d8 f   libucrt:locks.obj
 0001:00020220       __acrt_lock                0000000180021220 f   libucrt:locks.obj
 0001:0002023c       __acrt_uninitialize_locks  000000018002123c f   libucrt:locks.obj
 0001:00020274       __acrt_unlock              0000000180021274 f   libucrt:locks.obj
 0001:0002076c       ?expand_if_necessary@?$argument_list@D@?A0xca0879c4@@AEAAHXZ 000000018002176c f i libucrt:argv_wildcards.obj
 0001:00020834       __acrt_expand_narrow_argv_wildcards 0000000180021834 f   libucrt:argv_wildcards.obj
 0001:0002083c       ??$?RV<lambda_99476a1ad63dd22509b5d3e65b0ffc95>@@AEAV<lambda_ad1ced32f4ac17aa236e5ef05d6b3b7c>@@V<lambda_f7424dd8d45958661754dc4f2697e9c3>@@@?$__crt_seh_guarded_call@X@@QEAAX$$QEAV<lambda_99476a1ad63dd22509b5d3e65b0ffc95>@@AEAV<lambda_ad1ced32f4ac17aa236e5ef05d6b3b7c>@@$$QEAV<lambda_f7424dd8d45958661754dc4f2697e9c3>@@@Z 000000018002183c f i libucrt:mbctype.obj
 0001:00020f38       __acrt_initialize_multibyte 0000000180021f38 f   libucrt:mbctype.obj
 0001:00020f60       __acrt_update_thread_multibyte_data 0000000180021f60 f   libucrt:mbctype.obj
 0001:00021020       _setmbcp_nolock            0000000180022020 f   libucrt:mbctype.obj
 0001:00021340       _ismbblead                 0000000180022340 f   libucrt:ismbbyte.obj
 0001:00021354       __acrt_initialize_command_line 0000000180022354 f   libucrt:argv_data.obj
 0001:0002137c       __dcrt_get_narrow_environment_from_os 000000018002237c f   libucrt:get_environment_from_os.obj
 0001:00021480       _recalloc                  0000000180022480 f   libucrt:recalloc.obj
 0001:00021488       _recalloc_base             0000000180022488 f   libucrt:recalloc.obj
 0001:00021520       __acrt_initialize_heap     0000000180022520 f   libucrt:heap_handle.obj
 0001:0002153c       __acrt_uninitialize_heap   000000018002253c f   libucrt:heap_handle.obj
 0001:00021548       __acrt_execute_initializers 0000000180022548 f   libucrt:shared_initialization.obj
 0001:000215dc       __acrt_execute_uninitializers 00000001800225dc f   libucrt:shared_initialization.obj
 0001:0002162c       __acrt_has_user_matherr    000000018002262c f   libucrt:matherr.obj
 0001:0002164c       __acrt_initialize_user_matherr 000000018002264c f   libucrt:matherr.obj
 0001:00021654       __acrt_invoke_user_matherr 0000000180022654 f   libucrt:matherr.obj
 0001:0002169c       _query_new_mode            000000018002269c f   libucrt:new_mode.obj
 0001:000216a4       __pctype_func              00000001800226a4 f   libucrt:ctype.obj
 0001:000216d4       iswctype                   00000001800226d4 f   libucrt:iswctype.obj
 0001:00021744       _isctype_l                 0000000180022744 f   libucrt:isctype.obj
 0001:00021854       ??$?RV<lambda_b521505b218e5242e90febf6bfebc422>@@AEAV<lambda_6978c1fb23f02e42e1d9e99668cc68aa>@@V<lambda_314360699dd331753a4119843814e9a7>@@@?$__crt_seh_guarded_call@H@@QEAAH$$QEAV<lambda_b521505b218e5242e90febf6bfebc422>@@AEAV<lambda_6978c1fb23f02e42e1d9e99668cc68aa>@@$$QEAV<lambda_314360699dd331753a4119843814e9a7>@@@Z 0000000180022854 f i libucrt:commit.obj
 0001:000218e0       _commit                    00000001800228e0 f   libucrt:commit.obj
 0001:00021f14       _write                     0000000180022f14 f   libucrt:write.obj
 0001:00022000       _write_nolock              0000000180023000 f   libucrt:write.obj
 0001:000222e4       _raise_exc                 00000001800232e4 f   libucrt:fpexcept.obj
 0001:0002230c       _raise_exc_ex              000000018002330c f   libucrt:fpexcept.obj
 0001:00022614       _raise_excf                0000000180023614 f   libucrt:fpexcept.obj
 0001:00022640       _set_errno_from_matherr    0000000180023640 f   libucrt:fpexcept.obj
 0001:00022670       _clrfp                     0000000180023670 f   libucrt:fpctrl.obj
 0001:00022690       _ctrlfp                    0000000180023690 f   libucrt:fpctrl.obj
 0001:0002270c       _set_statfp                000000018002370c f   libucrt:fpctrl.obj
 0001:0002272c       _statfp                    000000018002372c f   libucrt:fpctrl.obj
 0001:00022740       __acrt_add_locale_ref      0000000180023740 f   libucrt:locale_refcounting.obj
 0001:000227cc       __acrt_free_locale         00000001800237cc f   libucrt:locale_refcounting.obj
 0001:00022944       __acrt_locale_add_lc_time_reference 0000000180023944 f   libucrt:locale_refcounting.obj
 0001:0002296c       __acrt_locale_free_lc_time_if_unreferenced 000000018002396c f   libucrt:locale_refcounting.obj
 0001:000229a4       __acrt_locale_release_lc_time_reference 00000001800239a4 f   libucrt:locale_refcounting.obj
 0001:000229cc       __acrt_release_locale_ref  00000001800239cc f   libucrt:locale_refcounting.obj
 0001:00022a74       __acrt_update_thread_locale_data 0000000180023a74 f   libucrt:locale_refcounting.obj
 0001:00022ae4       _updatetlocinfoEx_nolock   0000000180023ae4 f   libucrt:locale_refcounting.obj
 0001:00022c14       __acrt_DownlevelLocaleNameToLCID 0000000180023c14 f   libucrt:lcidtoname_downlevel.obj
 0001:00022c48       __acrt_lowio_create_handle_array 0000000180023c48 f   libucrt:osfinfo.obj
 0001:00022ce0       __acrt_lowio_destroy_handle_array 0000000180023ce0 f   libucrt:osfinfo.obj
 0001:00022d30       __acrt_lowio_ensure_fh_exists 0000000180023d30 f   libucrt:osfinfo.obj
 0001:00022de8       __acrt_lowio_lock_fh       0000000180023de8 f   libucrt:osfinfo.obj
 0001:00022e0c       __acrt_lowio_set_os_handle 0000000180023e0c f   libucrt:osfinfo.obj
 0001:00022ecc       __acrt_lowio_unlock_fh     0000000180023ecc f   libucrt:osfinfo.obj
 0001:00022ef0       _alloc_osfhnd              0000000180023ef0 f   libucrt:osfinfo.obj
 0001:00023020       _free_osfhnd               0000000180024020 f   libucrt:osfinfo.obj
 0001:000230dc       _get_osfhandle             00000001800240dc f   libucrt:osfinfo.obj
 0001:00023154       _isleadbyte_l              0000000180024154 f i libucrt:_wctype.obj
 0001:000234f0       __acrt_LCMapStringA        00000001800244f0 f   libucrt:lcmapstringa.obj
 0001:00023588       __acrt_fp_strflt_to_string 0000000180024588 f   libucrt:_fptostr.obj
 0001:00023650       ?divide@__crt_strtox@@YA_KAEAUbig_integer@1@AEBU21@@Z 0000000180024650 f i libucrt:cfout.obj
 0001:00023b20       __acrt_fltout              0000000180024b20 f   libucrt:cfout.obj
 0001:00025124       __acrt_stdio_flush_and_write_narrow_nolock 0000000180026124 f   libucrt:_flsbuf.obj
 0001:0002520c       __acrt_stdio_flush_and_write_wide_nolock 000000018002620c f   libucrt:_flsbuf.obj
 0001:000252f8       _isatty                    00000001800262f8 f   libucrt:isatty.obj
 0001:00025358       __acrt_locale_free_monetary 0000000180026358 f   libucrt:initmon.obj
 0001:00025464       __acrt_locale_free_numeric 0000000180026464 f   libucrt:initnum.obj
 0001:00025528       __acrt_locale_free_time    0000000180026528 f   libucrt:inittime.obj
 0001:00025630       __acrt_GetStringTypeA      0000000180026630 f   libucrt:getstringtypea.obj
 0001:00025800       strncmp                    0000000180026800 f   libucrt:strncmp.obj
 0001:00025880       __ascii_strnicmp           0000000180026880 f   libucrt:strnicmp.obj
 0001:000258c8       _strnicmp                  00000001800268c8 f   libucrt:strnicmp.obj
 0001:00025918       _strnicmp_l                0000000180026918 f   libucrt:strnicmp.obj
 0001:00026038       _sopen_nolock              0000000180027038 f   libucrt:open.obj
 0001:000260c8       _sopen_s                   00000001800270c8 f   libucrt:open.obj
 0001:000260fc       _wsopen_nolock             00000001800270fc f   libucrt:open.obj
 0001:000264ec       __acrt_stdio_allocate_buffer_nolock 00000001800274ec f   libucrt:_getbuf.obj
 0001:00026620       qsort                      0000000180027620 f   libucrt:qsort.obj
 0001:00026954       strncpy_s                  0000000180027954 f   libucrt:strncpy_s.obj
 0001:00026a28       strpbrk                    0000000180027a28 f   libucrt:strpbrk.obj
 0001:00026ac8       _mbsdec                    0000000180027ac8 f   libucrt:mbsdec.obj
 0001:00026ad0       _mbsdec_l                  0000000180027ad0 f   libucrt:mbsdec.obj
 0001:00026b80       _msize                     0000000180027b80 f   libucrt:msize.obj
 0001:00026bbc       _putwch_nolock             0000000180027bbc f   libucrt:putwch.obj
 0001:00026c30       _get_fpsr                  0000000180027c30 f   libucrt:fpsr.obj
 0001:00026c40       _set_fpsr                  0000000180027c40 f   libucrt:fpsr.obj
 0001:00026c4a       _fclrf                     0000000180027c4a f   libucrt:fpsr.obj
 0001:00026c5e       _frnd                      0000000180027c5e f   libucrt:fpsr.obj
 0001:00026c80       __strncnt                  0000000180027c80 f   libucrt:strncnt.obj
 0001:00026c98       fegetenv                   0000000180027c98 f   libucrt:fegetenv.obj
 0001:00026cb8       fesetenv                   0000000180027cb8 f   libucrt:fesetenv.obj
 0001:00026d04       feholdexcept               0000000180027d04 f   libucrt:feholdexcept.obj
 0001:00026d54       ceil                       0000000180027d54 f   libucrt:ceil.obj
 0001:00026e20       log10                      0000000180027e20 f   libucrt:log10.obj
 0001:000273cc       _get_fmode                 00000001800283cc f   libucrt:setmode.obj
 0001:000273fc       _setmode_nolock            00000001800283fc f   libucrt:setmode.obj
 0001:000274dc       __acrt_copy_path_to_wide_string 00000001800284dc f   libucrt:string_utilities.obj
 0001:000275d4       _chsize_nolock             00000001800285d4 f   libucrt:chsize.obj
 0001:00027750       __dcrt_lowio_initialize_console_output 0000000180028750 f   libucrt:initcon.obj
 0001:0002778c       __dcrt_terminate_console_output 000000018002878c f   libucrt:initcon.obj
 0001:000277ac       _getfpcontrolword          00000001800287ac f   libucrt:_fenvutils.obj
 0001:000277c4       _getfpstatusword           00000001800287c4 f   libucrt:_fenvutils.obj
 0001:000277d8       _setfpcontrolword          00000001800287d8 f   libucrt:_fenvutils.obj
 0001:000277e4       _setfpstatusword           00000001800287e4 f   libucrt:_fenvutils.obj
 0001:00027834       _clearfp                   0000000180028834 f   libucrt:ieee.obj
 0001:00027888       _controlfp                 0000000180028888 f   libucrt:ieee.obj
 0001:00027894       _statusfp                  0000000180028894 f   libucrt:ieee.obj
 0001:00027b80       __acrt_initialize_fma3     0000000180028b80 f   libucrt:fma3_available.obj
 0001:00027bf0       _log10_special             0000000180028bf0 f   libucrt:log_special.obj
 0001:00027ca6       IsProcessorFeaturePresent  0000000180028ca6 f   kernel32:KERNEL32.dll
 0001:00027cac       RtlUnwindEx                0000000180028cac f   kernel32:KERNEL32.dll
 0001:00027cc0       _FindPESection             0000000180028cc0 f   LIBCMT:pesect.obj
 0001:00027d10       _IsNonwritableInCurrentImage 0000000180028d10 f   LIBCMT:pesect.obj
 0001:00027d60       _ValidateImageBase         0000000180028d60 f   LIBCMT:pesect.obj
 0001:00027d90       __GSHandlerCheck           0000000180028d90 f   LIBCMT:_gshandler_.obj
 0001:00027db0       __GSHandlerCheckCommon     0000000180028db0 f   LIBCMT:_gshandler_.obj
 0001:00027e20       __chkstk                   0000000180028e20 f   LIBCMT:_chkstk_.obj
 0001:00027e20       _alloca_probe              0000000180028e20 f   LIBCMT:_chkstk_.obj
 0001:00027e74       strrchr                    0000000180028e74 f   libvcruntime:strrchr.obj
 0001:00027fd0       memcmp                     0000000180028fd0 f   libvcruntime:memcmp.obj
 0001:00028098       __GSHandlerCheck_EH        0000000180029098 f   LIBCMT:gshandlereh.obj
 0001:00028120       acos                       0000000180029120 f   libucrt:acos.obj
 0001:000283e0       acosf                      00000001800293e0 f   libucrt:acosf.obj
 0001:00028650       floor                      0000000180029650 f   libucrt:floor.obj
 0001:00028700       fmodf                      0000000180029700 f   libucrt:fmodf.obj
 0001:00028944       sqrtf                      0000000180029944 f   libucrt:sqrtf.obj
 0001:00028a00       strcmp                     0000000180029a00 f   libucrt:strcmp.obj
 0001:00028a70       tan                        0000000180029a70 f   libucrt:tan.obj
 0001:000292ac       _tan_special               000000018002a2ac f   libucrt:sincos_special.obj
 0001:000292c0       __remainder_piby2_fma3     000000018002a2c0 f   libucrt:remainder_piby2_forfma3.obj
 0001:000294b0       __remainder_piby2_fma3_bdl 000000018002a4b0 f   libucrt:remainder_piby2_forfma3.obj
 0001:00029530       __remainder_piby2_forAsm   000000018002a530 f   libucrt:remainder_piby2_forasm.obj
 0001:00029740       __remainder_piby2_cw_forAsm 000000018002a740 f   libucrt:remainder_piby2_forasm.obj
 0001:00029890       _guard_dispatch_icall_nop  000000018002a890 f   LIBCMT:_guard_dispatch_.obj
 0001:000298b0       __longjmp_internal         000000018002a8b0 f   libvcruntime:_longjmp_.obj
 0001:000299b0       _setjmp                    000000018002a9b0 f   libvcruntime:_setjmp_.obj
 0001:000299b0       __intrinsic_setjmp         000000018002a9b0 f   libvcruntime:_setjmp_.obj
 0001:00029a50       setjmp                     000000018002aa50 f   libvcruntime:_setjmp_.obj
 0002:00000000       __imp_GetProcAddress       000000018002c000     kernel32:KERNEL32.dll
 0002:00000008       __imp_HeapSize             000000018002c008     kernel32:KERNEL32.dll
 0002:00000010       __imp_CreateFileW          000000018002c010     kernel32:KERNEL32.dll
 0002:00000018       __imp_SetStdHandle         000000018002c018     kernel32:KERNEL32.dll
 0002:00000020       __imp_GetConsoleCP         000000018002c020     kernel32:KERNEL32.dll
 0002:00000028       __imp_FlushFileBuffers     000000018002c028     kernel32:KERNEL32.dll
 0002:00000030       __imp_GetStringTypeW       000000018002c030     kernel32:KERNEL32.dll
 0002:00000038       __imp_GetProcessHeap       000000018002c038     kernel32:KERNEL32.dll
 0002:00000040       __imp_FreeEnvironmentStringsW 000000018002c040     kernel32:KERNEL32.dll
 0002:00000048       __imp_GetEnvironmentStringsW 000000018002c048     kernel32:KERNEL32.dll
 0002:00000050       __imp_GetCommandLineW      000000018002c050     kernel32:KERNEL32.dll
 0002:00000058       __imp_GetCommandLineA      000000018002c058     kernel32:KERNEL32.dll
 0002:00000060       __imp_GetCPInfo            000000018002c060     kernel32:KERNEL32.dll
 0002:00000068       __imp_GetOEMCP             000000018002c068     kernel32:KERNEL32.dll
 0002:00000070       __imp_IsValidCodePage      000000018002c070     kernel32:KERNEL32.dll
 0002:00000078       __imp_FindNextFileA        000000018002c078     kernel32:KERNEL32.dll
 0002:00000080       __imp_FindFirstFileExA     000000018002c080     kernel32:KERNEL32.dll
 0002:00000088       __imp_FindClose            000000018002c088     kernel32:KERNEL32.dll
 0002:00000090       __imp_ReadConsoleW         000000018002c090     kernel32:KERNEL32.dll
 0002:00000098       __imp_GetConsoleMode       000000018002c098     kernel32:KERNEL32.dll
 0002:000000a0       __imp_SetFilePointerEx     000000018002c0a0     kernel32:KERNEL32.dll
 0002:000000a8       __imp_ReadFile             000000018002c0a8     kernel32:KERNEL32.dll
 0002:000000b0       __imp_GetACP               000000018002c0b0     kernel32:KERNEL32.dll
 0002:000000b8       __imp_LCMapStringW         000000018002c0b8     kernel32:KERNEL32.dll
 0002:000000c0       __imp_CreateThread         000000018002c0c0     kernel32:KERNEL32.dll
 0002:000000c8       __imp_WaitForSingleObjectEx 000000018002c0c8     kernel32:KERNEL32.dll
 0002:000000d0       __imp_CloseHandle          000000018002c0d0     kernel32:KERNEL32.dll
 0002:000000d8       __imp_OutputDebugStringW   000000018002c0d8     kernel32:KERNEL32.dll
 0002:000000e0       __imp_WriteFile            000000018002c0e0     kernel32:KERNEL32.dll
 0002:000000e8       __imp_HeapReAlloc          000000018002c0e8     kernel32:KERNEL32.dll
 0002:000000f0       __imp_HeapAlloc            000000018002c0f0     kernel32:KERNEL32.dll
 0002:000000f8       __imp_HeapFree             000000018002c0f8     kernel32:KERNEL32.dll
 0002:00000100       __imp_WideCharToMultiByte  000000018002c100     kernel32:KERNEL32.dll
 0002:00000108       __imp_MultiByteToWideChar  000000018002c108     kernel32:KERNEL32.dll
 0002:00000110       __imp_ExitProcess          000000018002c110     kernel32:KERNEL32.dll
 0002:00000118       __imp_WriteConsoleW        000000018002c118     kernel32:KERNEL32.dll
 0002:00000120       __imp_GetModuleHandleExW   000000018002c120     kernel32:KERNEL32.dll
 0002:00000128       __imp_GetModuleFileNameW   000000018002c128     kernel32:KERNEL32.dll
 0002:00000130       __imp_GetModuleFileNameA   000000018002c130     kernel32:KERNEL32.dll
 0002:00000138       __imp_GetFileType          000000018002c138     kernel32:KERNEL32.dll
 0002:00000140       __imp_GetStdHandle         000000018002c140     kernel32:KERNEL32.dll
 0002:00000148       __imp_LoadLibraryExW       000000018002c148     kernel32:KERNEL32.dll
 0002:00000150       __imp_FreeLibrary          000000018002c150     kernel32:KERNEL32.dll
 0002:00000158       __imp_TlsFree              000000018002c158     kernel32:KERNEL32.dll
 0002:00000160       __imp_TlsSetValue          000000018002c160     kernel32:KERNEL32.dll
 0002:00000168       __imp_TlsGetValue          000000018002c168     kernel32:KERNEL32.dll
 0002:00000170       __imp_TlsAlloc             000000018002c170     kernel32:KERNEL32.dll
 0002:00000178       __imp_InitializeCriticalSectionAndSpinCount 000000018002c178     kernel32:KERNEL32.dll
 0002:00000180       __imp_DeleteCriticalSection 000000018002c180     kernel32:KERNEL32.dll
 0002:00000188       __imp_LeaveCriticalSection 000000018002c188     kernel32:KERNEL32.dll
 0002:00000190       __imp_EnterCriticalSection 000000018002c190     kernel32:KERNEL32.dll
 0002:00000198       __imp_SetLastError         000000018002c198     kernel32:KERNEL32.dll
 0002:000001a0       __imp_GetLastError         000000018002c1a0     kernel32:KERNEL32.dll
 0002:000001a8       __imp_InterlockedFlushSList 000000018002c1a8     kernel32:KERNEL32.dll
 0002:000001b0       __imp_RtlUnwindEx          000000018002c1b0     kernel32:KERNEL32.dll
 0002:000001b8       __imp_RaiseException       000000018002c1b8     kernel32:KERNEL32.dll
 0002:000001c0       __imp_EncodePointer        000000018002c1c0     kernel32:KERNEL32.dll
 0002:000001c8       __imp_RtlPcToFileHeader    000000018002c1c8     kernel32:KERNEL32.dll
 0002:000001d0       __imp_InitializeSListHead  000000018002c1d0     kernel32:KERNEL32.dll
 0002:000001d8       __imp_GetSystemTimeAsFileTime 000000018002c1d8     kernel32:KERNEL32.dll
 0002:000001e0       __imp_GetCurrentThreadId   000000018002c1e0     kernel32:KERNEL32.dll
 0002:000001e8       __imp_GetCurrentProcessId  000000018002c1e8     kernel32:KERNEL32.dll
 0002:000001f0       __imp_QueryPerformanceCounter 000000018002c1f0     kernel32:KERNEL32.dll
 0002:000001f8       __imp_GetModuleHandleW     000000018002c1f8     kernel32:KERNEL32.dll
 0002:00000200       __imp_GetStartupInfoW      000000018002c200     kernel32:KERNEL32.dll
 0002:00000208       __imp_IsDebuggerPresent    000000018002c208     kernel32:KERNEL32.dll
 0002:00000210       __imp_IsProcessorFeaturePresent 000000018002c210     kernel32:KERNEL32.dll
 0002:00000218       __imp_TerminateProcess     000000018002c218     kernel32:KERNEL32.dll
 0002:00000220       __imp_GetCurrentProcess    000000018002c220     kernel32:KERNEL32.dll
 0002:00000228       __imp_SetUnhandledExceptionFilter 000000018002c228     kernel32:KERNEL32.dll
 0002:00000230       __imp_UnhandledExceptionFilter 000000018002c230     kernel32:KERNEL32.dll
 0002:00000238       __imp_RtlVirtualUnwind     000000018002c238     kernel32:KERNEL32.dll
 0002:00000240       __imp_RtlLookupFunctionEntry 000000018002c240     kernel32:KERNEL32.dll
 0002:00000248       __imp_RtlCaptureContext    000000018002c248     kernel32:KERNEL32.dll
 0002:00000250       __imp_SetEndOfFile         000000018002c250     kernel32:KERNEL32.dll
 0002:00000258       \177KERNEL32_NULL_THUNK_DATA 000000018002c258     kernel32:KERNEL32.dll
 0002:00000260       __imp_cairo_translate      000000018002c260     cairo:libcairo-2.dll
 0002:00000268       __imp_cairo_version_string 000000018002c268     cairo:libcairo-2.dll
 0002:00000270       __imp_cairo_image_surface_create_from_png_stream 000000018002c270     cairo:libcairo-2.dll
 0002:00000278       __imp_cairo_image_surface_create_from_png 000000018002c278     cairo:libcairo-2.dll
 0002:00000280       __imp_cairo_curve_to       000000018002c280     cairo:libcairo-2.dll
 0002:00000288       __imp_cairo_font_extents   000000018002c288     cairo:libcairo-2.dll
 0002:00000290       __imp_cairo_get_current_point 000000018002c290     cairo:libcairo-2.dll
 0002:00000298       __imp_cairo_set_miter_limit 000000018002c298     cairo:libcairo-2.dll
 0002:000002a0       __imp_cairo_set_line_width 000000018002c2a0     cairo:libcairo-2.dll
 0002:000002a8       __imp_cairo_clip_preserve  000000018002c2a8     cairo:libcairo-2.dll
 0002:000002b0       __imp_cairo_get_line_width 000000018002c2b0     cairo:libcairo-2.dll
 0002:000002b8       __imp_cairo_arc            000000018002c2b8     cairo:libcairo-2.dll
 0002:000002c0       __imp_cairo_close_path     000000018002c2c0     cairo:libcairo-2.dll
 0002:000002c8       __imp_cairo_transform      000000018002c2c8     cairo:libcairo-2.dll
 0002:000002d0       __imp_cairo_set_dash       000000018002c2d0     cairo:libcairo-2.dll
 0002:000002d8       __imp_cairo_get_dash_count 000000018002c2d8     cairo:libcairo-2.dll
 0002:000002e0       __imp_cairo_set_antialias  000000018002c2e0     cairo:libcairo-2.dll
 0002:000002e8       __imp_cairo_paint_with_alpha 000000018002c2e8     cairo:libcairo-2.dll
 0002:000002f0       __imp_cairo_in_stroke      000000018002c2f0     cairo:libcairo-2.dll
 0002:000002f8       __imp_cairo_get_line_join  000000018002c2f8     cairo:libcairo-2.dll
 0002:00000300       __imp_cairo_identity_matrix 000000018002c300     cairo:libcairo-2.dll
 0002:00000308       __imp_cairo_new_path       000000018002c308     cairo:libcairo-2.dll
 0002:00000310       __imp_cairo_append_path    000000018002c310     cairo:libcairo-2.dll
 0002:00000318       __imp_cairo_get_miter_limit 000000018002c318     cairo:libcairo-2.dll
 0002:00000320       __imp_cairo_surface_destroy 000000018002c320     cairo:libcairo-2.dll
 0002:00000328       __imp_cairo_image_surface_get_stride 000000018002c328     cairo:libcairo-2.dll
 0002:00000330       __imp_cairo_image_surface_get_format 000000018002c330     cairo:libcairo-2.dll
 0002:00000338       __imp_cairo_destroy        000000018002c338     cairo:libcairo-2.dll
 0002:00000340       __imp_cairo_surface_finish 000000018002c340     cairo:libcairo-2.dll
 0002:00000348       __imp_cairo_image_surface_get_data 000000018002c348     cairo:libcairo-2.dll
 0002:00000350       __imp_cairo_pdf_surface_set_size 000000018002c350     cairo:libcairo-2.dll
 0002:00000358       __imp_cairo_image_surface_get_height 000000018002c358     cairo:libcairo-2.dll
 0002:00000360       __imp_cairo_pdf_surface_create_for_stream 000000018002c360     cairo:libcairo-2.dll
 0002:00000368       __imp_cairo_image_surface_create 000000018002c368     cairo:libcairo-2.dll
 0002:00000370       __imp_cairo_status_to_string 000000018002c370     cairo:libcairo-2.dll
 0002:00000378       __imp_cairo_surface_flush  000000018002c378     cairo:libcairo-2.dll
 0002:00000380       __imp_cairo_svg_surface_create_for_stream 000000018002c380     cairo:libcairo-2.dll
 0002:00000388       __imp_cairo_surface_status 000000018002c388     cairo:libcairo-2.dll
 0002:00000390       __imp_cairo_image_surface_get_width 000000018002c390     cairo:libcairo-2.dll
 0002:00000398       __imp_cairo_create         000000018002c398     cairo:libcairo-2.dll
 0002:000003a0       __imp_cairo_pattern_add_color_stop_rgba 000000018002c3a0     cairo:libcairo-2.dll
 0002:000003a8       __imp_cairo_pattern_create_radial 000000018002c3a8     cairo:libcairo-2.dll
 0002:000003b0       __imp_cairo_pattern_create_linear 000000018002c3b0     cairo:libcairo-2.dll
 0002:000003b8       __imp_cairo_pattern_destroy 000000018002c3b8     cairo:libcairo-2.dll
 0002:000003c0       __imp_cairo_pattern_create_for_surface 000000018002c3c0     cairo:libcairo-2.dll
 0002:000003c8       __imp_cairo_path_destroy   000000018002c3c8     cairo:libcairo-2.dll
 0002:000003d0       __imp_cairo_in_fill        000000018002c3d0     cairo:libcairo-2.dll
 0002:000003d8       __imp_cairo_select_font_face 000000018002c3d8     cairo:libcairo-2.dll
 0002:000003e0       __imp_cairo_set_operator   000000018002c3e0     cairo:libcairo-2.dll
 0002:000003e8       __imp_cairo_surface_mark_dirty_rectangle 000000018002c3e8     cairo:libcairo-2.dll
 0002:000003f0       __imp_cairo_save           000000018002c3f0     cairo:libcairo-2.dll
 0002:000003f8       __imp_cairo_get_matrix     000000018002c3f8     cairo:libcairo-2.dll
 0002:00000400       __imp_cairo_arc_negative   000000018002c400     cairo:libcairo-2.dll
 0002:00000408       __imp_cairo_stroke_preserve 000000018002c408     cairo:libcairo-2.dll
 0002:00000410       __imp_cairo_rectangle      000000018002c410     cairo:libcairo-2.dll
 0002:00000418       __imp_cairo_set_line_join  000000018002c418     cairo:libcairo-2.dll
 0002:00000420       __imp_cairo_pattern_get_filter 000000018002c420     cairo:libcairo-2.dll
 0002:00000428       __imp_cairo_set_source_surface 000000018002c428     cairo:libcairo-2.dll
 0002:00000430       __imp_cairo_fill           000000018002c430     cairo:libcairo-2.dll
 0002:00000438       __imp_cairo_set_line_cap   000000018002c438     cairo:libcairo-2.dll
 0002:00000440       __imp_cairo_get_source     000000018002c440     cairo:libcairo-2.dll
 0002:00000448       __imp_cairo_mask_surface   000000018002c448     cairo:libcairo-2.dll
 0002:00000450       __imp_cairo_pattern_set_filter 000000018002c450     cairo:libcairo-2.dll
 0002:00000458       __imp_cairo_fill_extents   000000018002c458     cairo:libcairo-2.dll
 0002:00000460       __imp_cairo_show_page      000000018002c460     cairo:libcairo-2.dll
 0002:00000468       __imp_cairo_restore        000000018002c468     cairo:libcairo-2.dll
 0002:00000470       __imp_cairo_get_dash       000000018002c470     cairo:libcairo-2.dll
 0002:00000478       __imp_cairo_line_to        000000018002c478     cairo:libcairo-2.dll
 0002:00000480       __imp_cairo_set_fill_rule  000000018002c480     cairo:libcairo-2.dll
 0002:00000488       __imp_cairo_paint          000000018002c488     cairo:libcairo-2.dll
 0002:00000490       __imp_cairo_push_group     000000018002c490     cairo:libcairo-2.dll
 0002:00000498       __imp_cairo_stroke         000000018002c498     cairo:libcairo-2.dll
 0002:000004a0       __imp_cairo_move_to        000000018002c4a0     cairo:libcairo-2.dll
 0002:000004a8       __imp_cairo_get_line_cap   000000018002c4a8     cairo:libcairo-2.dll
 0002:000004b0       __imp_cairo_pattern_set_extend 000000018002c4b0     cairo:libcairo-2.dll
 0002:000004b8       __imp_cairo_get_operator   000000018002c4b8     cairo:libcairo-2.dll
 0002:000004c0       __imp_cairo_text_path      000000018002c4c0     cairo:libcairo-2.dll
 0002:000004c8       __imp_cairo_clip           000000018002c4c8     cairo:libcairo-2.dll
 0002:000004d0       __imp_cairo_get_antialias  000000018002c4d0     cairo:libcairo-2.dll
 0002:000004d8       __imp_cairo_set_source_rgba 000000018002c4d8     cairo:libcairo-2.dll
 0002:000004e0       __imp_cairo_copy_path_flat 000000018002c4e0     cairo:libcairo-2.dll
 0002:000004e8       __imp_cairo_set_source     000000018002c4e8     cairo:libcairo-2.dll
 0002:000004f0       __imp_cairo_scale          000000018002c4f0     cairo:libcairo-2.dll
 0002:000004f8       __imp_cairo_user_to_device_distance 000000018002c4f8     cairo:libcairo-2.dll
 0002:00000500       __imp_cairo_show_text      000000018002c500     cairo:libcairo-2.dll
 0002:00000508       __imp_cairo_surface_mark_dirty 000000018002c508     cairo:libcairo-2.dll
 0002:00000510       __imp_cairo_set_font_size  000000018002c510     cairo:libcairo-2.dll
 0002:00000518       __imp_cairo_fill_preserve  000000018002c518     cairo:libcairo-2.dll
 0002:00000520       __imp_cairo_rotate         000000018002c520     cairo:libcairo-2.dll
 0002:00000528       __imp_cairo_stroke_extents 000000018002c528     cairo:libcairo-2.dll
 0002:00000530       __imp_cairo_matrix_init    000000018002c530     cairo:libcairo-2.dll
 0002:00000538       __imp_cairo_text_extents   000000018002c538     cairo:libcairo-2.dll
 0002:00000540       __imp_cairo_pop_group_to_source 000000018002c540     cairo:libcairo-2.dll
 0002:00000548       \177libcairo-2_NULL_THUNK_DATA 000000018002c548     cairo:libcairo-2.dll
 0002:00000550       __imp_png_error            000000018002c550     libpng:libpng14-14.dll
 0002:00000558       __imp_png_write_end        000000018002c558     libpng:libpng14-14.dll
 0002:00000560       __imp_png_set_filler       000000018002c560     libpng:libpng14-14.dll
 0002:00000568       __imp_png_create_info_struct 000000018002c568     libpng:libpng14-14.dll
 0002:00000570       __imp_png_set_write_fn     000000018002c570     libpng:libpng14-14.dll
 0002:00000578       __imp_png_set_IHDR         000000018002c578     libpng:libpng14-14.dll
 0002:00000580       __imp_png_set_compression_level 000000018002c580     libpng:libpng14-14.dll
 0002:00000588       __imp_png_set_filter       000000018002c588     libpng:libpng14-14.dll
 0002:00000590       __imp_png_get_error_ptr    000000018002c590     libpng:libpng14-14.dll
 0002:00000598       __imp_png_write_image      000000018002c598     libpng:libpng14-14.dll
 0002:000005a0       __imp_png_set_packswap     000000018002c5a0     libpng:libpng14-14.dll
 0002:000005a8       __imp_png_write_info       000000018002c5a8     libpng:libpng14-14.dll
 0002:000005b0       __imp_png_get_io_ptr       000000018002c5b0     libpng:libpng14-14.dll
 0002:000005b8       __imp_png_set_longjmp_fn   000000018002c5b8     libpng:libpng14-14.dll
 0002:000005c0       __imp_png_set_write_user_transform_fn 000000018002c5c0     libpng:libpng14-14.dll
 0002:000005c8       __imp_png_set_bKGD         000000018002c5c8     libpng:libpng14-14.dll
 0002:000005d0       __imp_png_destroy_write_struct 000000018002c5d0     libpng:libpng14-14.dll
 0002:000005d8       __imp_png_create_write_struct_2 000000018002c5d8     libpng:libpng14-14.dll
 0002:000005e0       \177libpng14-14_NULL_THUNK_DATA 000000018002c5e0     libpng:libpng14-14.dll
 0002:000005e8       __imp_?Length@Buffer@node@@YA_KV?$Local@VObject@v8@@@v8@@@Z 000000018002c5e8     node:node.dll
 0002:000005f0       __imp_?HasInstance@Buffer@node@@YA_NV?$Local@VValue@v8@@@v8@@@Z 000000018002c5f0     node:node.dll
 0002:000005f8       __imp_uv_default_loop      000000018002c5f8     node:node.dll
 0002:00000600       __imp_?MakeCallback@node@@YA?AV?$Local@VValue@v8@@@v8@@PEAVIsolate@3@V?$Local@VObject@v8@@@3@V?$Local@VFunction@v8@@@3@HPEAV23@@Z 000000018002c600     node:node.dll
 0002:00000608       __imp_?Copy@Buffer@node@@YA?AV?$MaybeLocal@VObject@v8@@@v8@@PEAVIsolate@4@PEBD_K@Z 000000018002c608     node:node.dll
 0002:00000610       __imp_?Data@Buffer@node@@YAPEADV?$Local@VObject@v8@@@v8@@@Z 000000018002c610     node:node.dll
 0002:00000618       __imp_?New@Buffer@node@@YA?AV?$MaybeLocal@VObject@v8@@@v8@@PEAVIsolate@4@PEAD_KP6AX1PEAX@Z3@Z 000000018002c618     node:node.dll
 0002:00000620       __imp_uv_queue_work        000000018002c620     node:node.dll
 0002:00000628       __imp_node_module_register 000000018002c628     node:node.dll
 0002:00000630       \177node_NULL_THUNK_DATA   000000018002c630     node:node.dll
 0002:00000638       __imp_?IsUint8ClampedArray@Value@v8@@QEBA_NXZ 000000018002c638     nw:nw.dll
 0002:00000640       __imp_?Length@TypedArray@v8@@QEAA_KXZ 000000018002c640     nw:nw.dll
 0002:00000648       __imp_?Get@Object@v8@@QEAA?AV?$Local@VValue@v8@@@2@I@Z 000000018002c648     nw:nw.dll
 0002:00000650       __imp_?Set@Object@v8@@QEAA_NV?$Local@VValue@v8@@@2@0@Z 000000018002c650     nw:nw.dll
 0002:00000658       __imp_?NewInstance@Function@v8@@QEBA?AV?$MaybeLocal@VObject@v8@@@2@V?$Local@VContext@v8@@@2@HQEAV?$Local@VValue@v8@@@2@@Z 000000018002c658     nw:nw.dll
 0002:00000660       __imp_?ToString@Value@v8@@QEBA?AV?$Local@VString@v8@@@2@XZ 000000018002c660     nw:nw.dll
 0002:00000668       __imp_?IsArray@Value@v8@@QEBA_NXZ 000000018002c668     nw:nw.dll
 0002:00000670       __imp_?IsObject@Value@v8@@QEBA_NXZ 000000018002c670     nw:nw.dll
 0002:00000678       __imp_?IsInt32@Value@v8@@QEBA_NXZ 000000018002c678     nw:nw.dll
 0002:00000680       __imp_?IsArrayBufferView@Value@v8@@QEBA_NXZ 000000018002c680     nw:nw.dll
 0002:00000688       __imp_?ToInt32@Value@v8@@QEBA?AV?$MaybeLocal@VInt32@v8@@@2@V?$Local@VContext@v8@@@2@@Z 000000018002c688     nw:nw.dll
 0002:00000690       __imp_?BooleanValue@Value@v8@@QEBA_NXZ 000000018002c690     nw:nw.dll
 0002:00000698       __imp_?Int32Value@Value@v8@@QEBAHXZ 000000018002c698     nw:nw.dll
 0002:000006a0       __imp_?New@ArrayBuffer@v8@@SA?AV?$Local@VArrayBuffer@v8@@@2@PEAVIsolate@2@_K@Z 000000018002c6a0     nw:nw.dll
 0002:000006a8       __imp_?GetContents@ArrayBuffer@v8@@QEAA?AVContents@12@XZ 000000018002c6a8     nw:nw.dll
 0002:000006b0       __imp_?GetFunction@FunctionTemplate@v8@@QEAA?AV?$MaybeLocal@VFunction@v8@@@2@V?$Local@VContext@v8@@@2@@Z 000000018002c6b0     nw:nw.dll
 0002:000006b8       __imp_?Length@Array@v8@@QEBAIXZ 000000018002c6b8     nw:nw.dll
 0002:000006c0       __imp_?New@Array@v8@@SA?AV?$Local@VArray@v8@@@2@PEAVIsolate@2@H@Z 000000018002c6c0     nw:nw.dll
 0002:000006c8       __imp_?Buffer@ArrayBufferView@v8@@QEAA?AV?$Local@VArrayBuffer@v8@@@2@XZ 000000018002c6c8     nw:nw.dll
 0002:000006d0       __imp_?ByteOffset@ArrayBufferView@v8@@QEAA_KXZ 000000018002c6d0     nw:nw.dll
 0002:000006d8       __imp_?ByteLength@ArrayBufferView@v8@@QEAA_KXZ 000000018002c6d8     nw:nw.dll
 0002:000006e0       __imp_?New@Integer@v8@@SA?AV?$Local@VInteger@v8@@@2@PEAVIsolate@2@H@Z 000000018002c6e0     nw:nw.dll
 0002:000006e8       __imp_?New@Uint8ClampedArray@v8@@SA?AV?$Local@VUint8ClampedArray@v8@@@2@V?$Local@VArrayBuffer@v8@@@2@_K1@Z 000000018002c6e8     nw:nw.dll
 0002:000006f0       __imp_?HasInstance@FunctionTemplate@v8@@QEAA_NV?$Local@VValue@v8@@@2@@Z 000000018002c6f0     nw:nw.dll
 0002:000006f8       __imp_?NumberValue@Value@v8@@QEBANXZ 000000018002c6f8     nw:nw.dll
 0002:00000700       __imp_??1EscapableHandleScope@v8@@QEAA@XZ 000000018002c700     nw:nw.dll
 0002:00000708       __imp_?ToObject@Value@v8@@QEBA?AV?$Local@VObject@v8@@@2@XZ 000000018002c708     nw:nw.dll
 0002:00000710       __imp_?New@ObjectTemplate@v8@@SA?AV?$Local@VObjectTemplate@v8@@@2@PEAVIsolate@2@V?$Local@VFunctionTemplate@v8@@@2@@Z 000000018002c710     nw:nw.dll
 0002:00000718       __imp_?NewInstance@ObjectTemplate@v8@@QEAA?AV?$MaybeLocal@VObject@v8@@@2@V?$Local@VContext@v8@@@2@@Z 000000018002c718     nw:nw.dll
 0002:00000720       __imp_?SetAccessor@ObjectTemplate@v8@@QEAAXV?$Local@VName@v8@@@2@P6AX0AEBV?$PropertyCallbackInfo@VValue@v8@@@2@@ZP6AX0V?$Local@VValue@v8@@@2@AEBV?$PropertyCallbackInfo@X@2@@Z3W4AccessControl@2@W4PropertyAttribute@2@V?$Local@VAccessorSignature@v8@@@2@@Z 000000018002c720     nw:nw.dll
 0002:00000728       __imp_?SetInternalFieldCount@ObjectTemplate@v8@@QEAAXH@Z 000000018002c728     nw:nw.dll
 0002:00000730       __imp_?Call@Function@v8@@QEAA?AV?$MaybeLocal@VValue@v8@@@2@V?$Local@VContext@v8@@@2@V?$Local@VValue@v8@@@2@HQEAV52@@Z 000000018002c730     nw:nw.dll
 0002:00000738       __imp_?Set@Object@v8@@QEAA?AV?$Maybe@_N@2@V?$Local@VContext@v8@@@2@V?$Local@VValue@v8@@@2@1@Z 000000018002c738     nw:nw.dll
 0002:00000740       __imp_?Get@Object@v8@@QEAA?AV?$Local@VValue@v8@@@2@V32@@Z 000000018002c740     nw:nw.dll
 0002:00000748       __imp_?InternalFieldCount@Object@v8@@QEAAHXZ 000000018002c748     nw:nw.dll
 0002:00000750       __imp_?SetInternalField@Object@v8@@QEAAXHV?$Local@VValue@v8@@@2@@Z 000000018002c750     nw:nw.dll
 0002:00000758       __imp_?SetAlignedPointerInInternalField@Object@v8@@QEAAXHPEAX@Z 000000018002c758     nw:nw.dll
 0002:00000760       __imp_?SlowGetInternalField@Object@v8@@AEAA?AV?$Local@VValue@v8@@@2@H@Z 000000018002c760     nw:nw.dll
 0002:00000768       __imp_?SlowGetAlignedPointerFromInternalField@Object@v8@@AEAAPEAXH@Z 000000018002c768     nw:nw.dll
 0002:00000770       __imp_?New@Number@v8@@SA?AV?$Local@VNumber@v8@@@2@PEAVIsolate@2@N@Z 000000018002c770     nw:nw.dll
 0002:00000778       __imp_?NewFromUtf8@String@v8@@SA?AV?$MaybeLocal@VString@v8@@@2@PEAVIsolate@2@PEBDW4NewStringType@2@H@Z 000000018002c778     nw:nw.dll
 0002:00000780       __imp_??0Utf8Value@String@v8@@QEAA@V?$Local@VValue@v8@@@2@@Z 000000018002c780     nw:nw.dll
 0002:00000788       __imp_??1Utf8Value@String@v8@@QEAA@XZ 000000018002c788     nw:nw.dll
 0002:00000790       __imp_??0EscapableHandleScope@v8@@QEAA@PEAVIsolate@1@@Z 000000018002c790     nw:nw.dll
 0002:00000798       __imp_?Escape@EscapableHandleScope@v8@@AEAAPEAPEAVObject@internal@2@PEAPEAV342@@Z 000000018002c798     nw:nw.dll
 0002:000007a0       __imp_??0TryCatch@v8@@QEAA@PEAVIsolate@1@@Z 000000018002c7a0     nw:nw.dll
 0002:000007a8       __imp_??1TryCatch@v8@@QEAA@XZ 000000018002c7a8     nw:nw.dll
 0002:000007b0       __imp_?HasCaught@TryCatch@v8@@QEBA_NXZ 000000018002c7b0     nw:nw.dll
 0002:000007b8       __imp_?ReThrow@TryCatch@v8@@QEAA?AV?$Local@VValue@v8@@@2@XZ 000000018002c7b8     nw:nw.dll
 0002:000007c0       __imp_?IsFunction@Value@v8@@QEBA_NXZ 000000018002c7c0     nw:nw.dll
 0002:000007c8       __imp_?IsNumber@Value@v8@@QEBA_NXZ 000000018002c7c8     nw:nw.dll
 0002:000007d0       __imp_?IsUint32@Value@v8@@QEBA_NXZ 000000018002c7d0     nw:nw.dll
 0002:000007d8       __imp_?ToUint32@Value@v8@@QEBA?AV?$MaybeLocal@VUint32@v8@@@2@V?$Local@VContext@v8@@@2@@Z 000000018002c7d8     nw:nw.dll
 0002:000007e0       __imp_?Uint32Value@Value@v8@@QEBAIXZ 000000018002c7e0     nw:nw.dll
 0002:000007e8       __imp_?StrictEquals@Value@v8@@QEBA_NV?$Local@VValue@v8@@@2@@Z 000000018002c7e8     nw:nw.dll
 0002:000007f0       __imp_?GlobalizeReference@V8@v8@@CAPEAPEAVObject@internal@2@PEAVIsolate@42@PEAPEAV342@@Z 000000018002c7f0     nw:nw.dll
 0002:000007f8       __imp_?DisposeGlobal@V8@v8@@CAXPEAPEAVObject@internal@2@@Z 000000018002c7f8     nw:nw.dll
 0002:00000800       __imp_?MakeWeak@V8@v8@@CAXPEAPEAVObject@internal@2@PEAXP6AXAEBV?$WeakCallbackInfo@X@2@@ZW4WeakCallbackType@2@@Z 000000018002c800     nw:nw.dll
 0002:00000808       __imp_?ClearWeak@V8@v8@@CAPEAXPEAPEAVObject@internal@2@@Z 000000018002c808     nw:nw.dll
 0002:00000810       __imp_?ToLocalEmpty@V8@v8@@CAXXZ 000000018002c810     nw:nw.dll
 0002:00000818       __imp_?New@FunctionTemplate@v8@@SA?AV?$Local@VFunctionTemplate@v8@@@2@PEAVIsolate@2@P6AXAEBV?$FunctionCallbackInfo@VValue@v8@@@2@@ZV?$Local@VValue@v8@@@2@V?$Local@VSignature@v8@@@2@HW4ConstructorBehavior@2@@Z 000000018002c818     nw:nw.dll
 0002:00000820       __imp_?GetFunction@FunctionTemplate@v8@@QEAA?AV?$Local@VFunction@v8@@@2@XZ 000000018002c820     nw:nw.dll
 0002:00000828       __imp_?InstanceTemplate@FunctionTemplate@v8@@QEAA?AV?$Local@VObjectTemplate@v8@@@2@XZ 000000018002c828     nw:nw.dll
 0002:00000830       __imp_?PrototypeTemplate@FunctionTemplate@v8@@QEAA?AV?$Local@VObjectTemplate@v8@@@2@XZ 000000018002c830     nw:nw.dll
 0002:00000838       __imp_?SetClassName@FunctionTemplate@v8@@QEAAXV?$Local@VString@v8@@@2@@Z 000000018002c838     nw:nw.dll
 0002:00000840       __imp_?RangeError@Exception@v8@@SA?AV?$Local@VValue@v8@@@2@V?$Local@VString@v8@@@2@@Z 000000018002c840     nw:nw.dll
 0002:00000848       __imp_?TypeError@Exception@v8@@SA?AV?$Local@VValue@v8@@@2@V?$Local@VString@v8@@@2@@Z 000000018002c848     nw:nw.dll
 0002:00000850       __imp_?Error@Exception@v8@@SA?AV?$Local@VValue@v8@@@2@V?$Local@VString@v8@@@2@@Z 000000018002c850     nw:nw.dll
 0002:00000858       __imp_?Set@Template@v8@@QEAAXV?$Local@VName@v8@@@2@V?$Local@VData@v8@@@2@W4PropertyAttribute@2@@Z 000000018002c858     nw:nw.dll
 0002:00000860       __imp_??0HandleScope@v8@@QEAA@PEAVIsolate@1@@Z 000000018002c860     nw:nw.dll
 0002:00000868       __imp_??1HandleScope@v8@@QEAA@XZ 000000018002c868     nw:nw.dll
 0002:00000870       __imp_?CreateHandle@HandleScope@v8@@CAPEAPEAVObject@internal@2@PEAVHeapObject@42@PEAV342@@Z 000000018002c870     nw:nw.dll
 0002:00000878       __imp_?CreateHandle@HandleScope@v8@@KAPEAPEAVObject@internal@2@PEAVIsolate@42@PEAV342@@Z 000000018002c878     nw:nw.dll
 0002:00000880       __imp_?GetCurrent@Isolate@v8@@SAPEAV12@XZ 000000018002c880     nw:nw.dll
 0002:00000888       __imp_?GetCurrentContext@Isolate@v8@@QEAA?AV?$Local@VContext@v8@@@2@XZ 000000018002c888     nw:nw.dll
 0002:00000890       __imp_?ThrowException@Isolate@v8@@QEAA?AV?$Local@VValue@v8@@@2@V32@@Z 000000018002c890     nw:nw.dll
 0002:00000898       __imp_?ReportExternalAllocationLimitReached@Isolate@v8@@AEAAXXZ 000000018002c898     nw:nw.dll
 0002:000008a0       __imp_?New@Signature@v8@@SA?AV?$Local@VSignature@v8@@@2@PEAVIsolate@2@V?$Local@VFunctionTemplate@v8@@@2@@Z 000000018002c8a0     nw:nw.dll
 0002:000008a8       __imp_?NewFromUnsigned@Integer@v8@@SA?AV?$Local@VInteger@v8@@@2@PEAVIsolate@2@I@Z 000000018002c8a8     nw:nw.dll
 0002:000008b0       __imp_?New@External@v8@@SA?AV?$Local@VExternal@v8@@@2@PEAVIsolate@2@PEAX@Z 000000018002c8b0     nw:nw.dll
 0002:000008b8       __imp_?Value@External@v8@@QEBAPEAXXZ 000000018002c8b8     nw:nw.dll
 0002:000008c0       __imp_?Global@Context@v8@@QEAA?AV?$Local@VObject@v8@@@2@XZ 000000018002c8c0     nw:nw.dll
 0002:000008c8       __imp_?New@Object@v8@@SA?AV?$Local@VObject@v8@@@2@PEAVIsolate@2@@Z 000000018002c8c8     nw:nw.dll
 0002:000008d0       \177nw_NULL_THUNK_DATA     000000018002c8d0     nw:nw.dll
 0002:000008d8       __guard_check_icall_fptr   000000018002c8d8     LIBCMT:guard_support.obj
 0002:000008e0       __guard_dispatch_icall_fptr 000000018002c8e0     LIBCMT:guard_support.obj
 0002:000008e8       __xc_a                     000000018002c8e8     LIBCMT:initializers.obj
 0002:00000920       _register_canvas_          000000018002c920     init.obj
 0002:00000928       __xc_z                     000000018002c928     LIBCMT:initializers.obj
 0002:00000930       __xi_a                     000000018002c930     LIBCMT:initializers.obj
 0002:00000938       __acrt_stdio_initializer   000000018002c938     libucrt:stdio_initializer.obj
 0002:00000940       __acrt_multibyte_initializer 000000018002c940     libucrt:multibyte_initializer.obj
 0002:00000948       __acrt_tran_fma3_initializer 000000018002c948     libucrt:fma3_initializer.obj
 0002:00000950       __xi_z                     000000018002c950     LIBCMT:initializers.obj
 0002:00000958       __xp_a                     000000018002c958     LIBCMT:initializers.obj
 0002:00000960       __acrt_locale_terminator   000000018002c960     libucrt:locale_initializer.obj
 0002:00000968       __dcrt_console_output_terminator 000000018002c968     libucrt:console_output_initializer.obj
 0002:00000970       __acrt_stdio_terminator    000000018002c970     libucrt:stdio_initializer.obj
 0002:00000978       __xp_z                     000000018002c978     LIBCMT:initializers.obj
 0002:00000980       __xt_a                     000000018002c980     LIBCMT:initializers.obj
 0002:00000988       __xt_z                     000000018002c988     LIBCMT:initializers.obj
 0002:00000998       ??_7exception@std@@6B@     000000018002c998     libcpmt:xthrow.obj
 0002:000009a8       ??_C@_0BC@EOODALEL@Unknown?5exception?$AA@ 000000018002c9a8     libcpmt:xthrow.obj
 0002:000009c8       ??_7bad_alloc@std@@6B@     000000018002c9c8     libcpmt:xthrow.obj
 0002:000009d8       ??_C@_0P@GHFPNOJB@bad?5allocation?$AA@ 000000018002c9d8     libcpmt:xthrow.obj
 0002:000009f0       ??_7logic_error@std@@6B@   000000018002c9f0     libcpmt:xthrow.obj
 0002:00000a08       ??_7length_error@std@@6B@  000000018002ca08     libcpmt:xthrow.obj
 0002:00000a18       _pDefaultRawDllMain        000000018002ca18     LIBCMT:dll_dllmain.obj
 0002:00000a18       _pRawDllMain               000000018002ca18     LIBCMT:dll_dllmain.obj
 0002:00000a28       ??_7type_info@@6B@         000000018002ca28     LIBCMT:std_type_info_static.obj
 0002:00000a48       ??_7bad_array_new_length@std@@6B@ 000000018002ca48     LIBCMT:throw_bad_alloc.obj
 0002:00000a58       ??_C@_0BF@KINCDENJ@bad?5array?5new?5length?$AA@ 000000018002ca58     LIBCMT:throw_bad_alloc.obj
 0002:00000a70       _pDestructExceptionObject  000000018002ca70     libvcruntime:frame.obj
 0002:00000a80       ??_7bad_exception@std@@6B@ 000000018002ca80     libvcruntime:frame.obj
 0002:00000a90       ??_C@_0O@DPKOEFFH@bad?5exception?$AA@ 000000018002ca90     libvcruntime:frame.obj
 0002:00000b98       ??_C@_1BC@DNHGCMLG@?$AAa?$AAd?$AAv?$AAa?$AAp?$AAi?$AA3?$AA2?$AA?$AA@ 000000018002cb98     libvcruntime:winapi_downlevel.obj
 0002:00000bb0       ??_C@_1DM@KHCHBNEB@?$AAa?$AAp?$AAi?$AA?9?$AAm?$AAs?$AA?9?$AAw?$AAi?$AAn?$AA?9?$AAc?$AAo?$AAr?$AAe?$AA?9?$AAf?$AAi?$AAb?$AAe?$AAr?$AAs?$AA?9?$AAl?$AA1?$AA?9?$AA1?$AA?9?$AA1?$AA?$AA@ 000000018002cbb0     libvcruntime:winapi_downlevel.obj
 0002:00000bf0       ??_C@_1DK@LPPGFMPP@?$AAa?$AAp?$AAi?$AA?9?$AAm?$AAs?$AA?9?$AAw?$AAi?$AAn?$AA?9?$AAc?$AAo?$AAr?$AAe?$AA?9?$AAs?$AAy?$AAn?$AAc?$AAh?$AA?9?$AAl?$AA1?$AA?9?$AA2?$AA?9?$AA0?$AA?$AA@ 000000018002cbf0     libvcruntime:winapi_downlevel.obj
 0002:00000c30       ??_C@_1BC@GDMECMAK@?$AAk?$AAe?$AAr?$AAn?$AAe?$AAl?$AA3?$AA2?$AA?$AA@ 000000018002cc30     libvcruntime:winapi_downlevel.obj
 0002:00000c50       ??_C@_08KNHFBNJ@FlsAlloc?$AA@ 000000018002cc50     libvcruntime:winapi_downlevel.obj
 0002:00000c68       ??_C@_07PEJMOBNF@FlsFree?$AA@ 000000018002cc68     libvcruntime:winapi_downlevel.obj
 0002:00000c78       ??_C@_0M@GDNOONDI@FlsGetValue?$AA@ 000000018002cc78     libvcruntime:winapi_downlevel.obj
 0002:00000c90       ??_C@_0M@JCPCPOEF@FlsSetValue?$AA@ 000000018002cc90     libvcruntime:winapi_downlevel.obj
 0002:00000ca8       ??_C@_0BM@HCFOFFN@InitializeCriticalSectionEx?$AA@ 000000018002cca8     libvcruntime:winapi_downlevel.obj
 0002:00000ff0       ??_C@_08EHJDFFNH@__based?$CI?$AA@ 000000018002cff0     libvcruntime:undname.obj
 0002:00001000       ??_C@_07KOLFKCDI@__cdecl?$AA@ 000000018002d000     libvcruntime:undname.obj
 0002:00001008       ??_C@_08GHMPAG@__pascal?$AA@ 000000018002d008     libvcruntime:undname.obj
 0002:00001018       ??_C@_09IFJBGAPI@__stdcall?$AA@ 000000018002d018     libvcruntime:undname.obj
 0002:00001028       ??_C@_0L@NPHFGOKO@__thiscall?$AA@ 000000018002d028     libvcruntime:undname.obj
 0002:00001038       ??_C@_0L@JMKHOMEK@__fastcall?$AA@ 000000018002d038     libvcruntime:undname.obj
 0002:00001048       ??_C@_0N@BCKKPABJ@__vectorcall?$AA@ 000000018002d048     libvcruntime:undname.obj
 0002:00001058       ??_C@_09HIJEGCPM@__clrcall?$AA@ 000000018002d058     libvcruntime:undname.obj
 0002:00001064       ??_C@_06GHPCKEAG@__eabi?$AA@ 000000018002d064     libvcruntime:undname.obj
 0002:00001070       ??_C@_07JOMMBBKO@__ptr64?$AA@ 000000018002d070     libvcruntime:undname.obj
 0002:00001078       ??_C@_0L@PILCLIHE@__restrict?$AA@ 000000018002d078     libvcruntime:undname.obj
 0002:00001088       ??_C@_0M@GFIIJFMG@__unaligned?$AA@ 000000018002d088     libvcruntime:undname.obj
 0002:00001098       ??_C@_09DHDLOLLB@restrict?$CI?$AA@ 000000018002d098     libvcruntime:undname.obj
 0002:000010a4       ??_C@_04NIHEBCM@?5new?$AA@ 000000018002d0a4     libvcruntime:undname.obj
 0002:000010b0       ??_C@_07FPCDHGMM@?5delete?$AA@ 000000018002d0b0     libvcruntime:undname.obj
 0002:000010b8       ??_C@_01NEMOKFLO@?$DN?$AA@ 000000018002d0b8     libvcruntime:undname.obj
 0002:000010bc       ??_C@_02GPIOPFAK@?$DO?$DO?$AA@ 000000018002d0bc     libvcruntime:undname.obj
 0002:000010c0       ??_C@_02FODMEDOG@?$DM?$DM?$AA@ 000000018002d0c0     libvcruntime:undname.obj
 0002:000010c4       ??_C@_01DCLJPIOD@?$CB?$AA@ 000000018002d0c4     libvcruntime:undname.obj
 0002:000010c8       ??_C@_02EGOFBIJA@?$DN?$DN?$AA@ 000000018002d0c8     libvcruntime:undname.obj
 0002:000010cc       ??_C@_02FDNJECIE@?$CB?$DN?$AA@ 000000018002d0cc     libvcruntime:undname.obj
 0002:000010d0       ??_C@_02GPECMEKF@?$FL?$FN?$AA@ 000000018002d0d0     libvcruntime:undname.obj
 0002:000010d8       ??_C@_08LHJFAFGD@operator?$AA@ 000000018002d0d8     libvcruntime:undname.obj
 0002:000010e4       ??_C@_02HBOOOICD@?9?$DO?$AA@ 000000018002d0e4     libvcruntime:undname.obj
 0002:000010e8       ??_C@_01NBENCBCI@?$CK?$AA@ 000000018002d0e8     libvcruntime:undname.obj
 0002:000010ec       ??_C@_02ECNGHCIF@?$CL?$CL?$AA@ 000000018002d0ec     libvcruntime:undname.obj
 0002:000010f0       ??_C@_02BAABKJLB@?9?9?$AA@ 000000018002d0f0     libvcruntime:undname.obj
 0002:000010f4       ??_C@_01JOAMLHOP@?9?$AA@   000000018002d0f4     libvcruntime:undname.obj
 0002:000010f8       ??_C@_01MIFGBAGJ@?$CL?$AA@ 000000018002d0f8     libvcruntime:undname.obj
 0002:000010fc       ??_C@_01HNPIGOCE@?$CG?$AA@ 000000018002d0fc     libvcruntime:undname.obj
 0002:00001100       ??_C@_03MNHNFDLC@?9?$DO?$CK?$AA@ 000000018002d100     libvcruntime:undname.obj
 0002:00001104       ??_C@_01KMDKNFGN@?1?$AA@   000000018002d104     libvcruntime:undname.obj
 0002:00001108       ??_C@_01FGNFDNOH@?$CF?$AA@ 000000018002d108     libvcruntime:undname.obj
 0002:0000110c       ??_C@_01MNNFJEPP@?$DM?$AA@ 000000018002d10c     libvcruntime:undname.obj
 0002:00001110       ??_C@_02EHCHHCKH@?$DM?$DN?$AA@ 000000018002d110     libvcruntime:undname.obj
 0002:00001114       ??_C@_01PPODPGHN@?$DO?$AA@ 000000018002d114     libvcruntime:undname.obj
 0002:00001118       ??_C@_02EEKDKGMJ@?$DO?$DN?$AA@ 000000018002d118     libvcruntime:undname.obj
 0002:0000111c       ??_C@_01IHBHIGKO@?0?$AA@   000000018002d11c     libvcruntime:undname.obj
 0002:00001120       ??_C@_02HCKGKOFO@?$CI?$CJ?$AA@ 000000018002d120     libvcruntime:undname.obj
 0002:00001124       ??_C@_01PJKLJHI@?$HO?$AA@  000000018002d124     libvcruntime:undname.obj
 0002:00001128       ??_C@_01JKBOJNNK@?$FO?$AA@ 000000018002d128     libvcruntime:undname.obj
 0002:0000112c       ??_C@_01DNKMNLPK@?$HM?$AA@ 000000018002d12c     libvcruntime:undname.obj
 0002:00001130       ??_C@_02PPKAJPJL@?$CG?$CG?$AA@ 000000018002d130     libvcruntime:undname.obj
 0002:00001134       ??_C@_02NONPIBCD@?$HM?$HM?$AA@ 000000018002d134     libvcruntime:undname.obj
 0002:00001138       ??_C@_02FPIMKNGF@?$CK?$DN?$AA@ 000000018002d138     libvcruntime:undname.obj
 0002:0000113c       ??_C@_02FOEOMHFC@?$CL?$DN?$AA@ 000000018002d13c     libvcruntime:undname.obj
 0002:00001140       ??_C@_02FKMDLLOA@?9?$DN?$AA@ 000000018002d140     libvcruntime:undname.obj
 0002:00001144       ??_C@_02FJEHGPIO@?1?$DN?$AA@ 000000018002d144     libvcruntime:undname.obj
 0002:00001148       ??_C@_02FENAOKFI@?$CF?$DN?$AA@ 000000018002d148     libvcruntime:undname.obj
 0002:0000114c       ??_C@_03IKFCCPFF@?$DO?$DO?$DN?$AA@ 000000018002d14c     libvcruntime:undname.obj
 0002:00001150       ??_C@_03CDNPDDLA@?$DM?$DM?$DN?$AA@ 000000018002d150     libvcruntime:undname.obj
 0002:00001154       ??_C@_02FGJGFEAB@?$CG?$DN?$AA@ 000000018002d154     libvcruntime:undname.obj
 0002:00001158       ??_C@_02DHLNPPGH@?$HM?$DN?$AA@ 000000018002d158     libvcruntime:undname.obj
 0002:0000115c       ??_C@_02MHEGNOJ@?$FO?$DN?$AA@ 000000018002d15c     libvcruntime:undname.obj
 0002:00001160       ??_C@_09IFPLHPGF@?$GAvftable?8?$AA@ 000000018002d160     libvcruntime:undname.obj
 0002:00001170       ??_C@_09BLBHBJP@?$GAvbtable?8?$AA@ 000000018002d170     libvcruntime:undname.obj
 0002:00001180       ??_C@_07FEEIOKP@?$GAvcall?8?$AA@ 000000018002d180     libvcruntime:undname.obj
 0002:00001188       ??_C@_08LLFFHHDJ@?$GAtypeof?8?$AA@ 000000018002d188     libvcruntime:undname.obj
 0002:00001198       ??_C@_0BF@KDPPACIK@?$GAlocal?5static?5guard?8?$AA@ 000000018002d198     libvcruntime:undname.obj
 0002:000011b0       ??_C@_08OBABFOLI@?$GAstring?8?$AA@ 000000018002d1b0     libvcruntime:undname.obj
 0002:000011c0       ??_C@_0BD@JDLKDPAB@?$GAvbase?5destructor?8?$AA@ 000000018002d1c0     libvcruntime:undname.obj
 0002:000011d8       ??_C@_0BN@DEGPLNFK@?$GAvector?5deleting?5destructor?8?$AA@ 000000018002d1d8     libvcruntime:undname.obj
 0002:000011f8       ??_C@_0BO@OBMKPJIG@?$GAdefault?5constructor?5closure?8?$AA@ 000000018002d1f8     libvcruntime:undname.obj
 0002:00001218       ??_C@_0BN@IMDCHIKM@?$GAscalar?5deleting?5destructor?8?$AA@ 000000018002d218     libvcruntime:undname.obj
 0002:00001238       ??_C@_0BO@PFGOCPJJ@?$GAvector?5constructor?5iterator?8?$AA@ 000000018002d238     libvcruntime:undname.obj
 0002:00001258       ??_C@_0BN@LFPFMEDL@?$GAvector?5destructor?5iterator?8?$AA@ 000000018002d258     libvcruntime:undname.obj
 0002:00001278       ??_C@_0CE@IKBNEHA@?$GAvector?5vbase?5constructor?5iterat@ 000000018002d278     libvcruntime:undname.obj
 0002:000012a0       ??_C@_0BL@NILFHHPC@?$GAvirtual?5displacement?5map?8?$AA@ 000000018002d2a0     libvcruntime:undname.obj
 0002:000012c0       ??_C@_0CB@JONCMFFK@?$GAeh?5vector?5constructor?5iterator?8@ 000000018002d2c0     libvcruntime:undname.obj
 0002:000012e8       ??_C@_0CA@GCEOPDGL@?$GAeh?5vector?5destructor?5iterator?8?$AA@ 000000018002d2e8     libvcruntime:undname.obj
 0002:00001308       ??_C@_0CH@OOJPLCPH@?$GAeh?5vector?5vbase?5constructor?5ite@ 000000018002d308     libvcruntime:undname.obj
 0002:00001330       ??_C@_0BL@LLKPOHJI@?$GAcopy?5constructor?5closure?8?$AA@ 000000018002d330     libvcruntime:undname.obj
 0002:00001350       ??_C@_0BA@KBCDOMBN@?$GAudt?5returning?8?$AA@ 000000018002d350     libvcruntime:undname.obj
 0002:00001360       ??_C@_03KLGMFNMG@?$GAEH?$AA@ 000000018002d360     libvcruntime:undname.obj
 0002:00001364       ??_C@_05KHLCHHI@?$GARTTI?$AA@ 000000018002d364     libvcruntime:undname.obj
 0002:00001370       ??_C@_0BA@KKLDJDLB@?$GAlocal?5vftable?8?$AA@ 000000018002d370     libvcruntime:undname.obj
 0002:00001380       ??_C@_0CE@IIHCMGGL@?$GAlocal?5vftable?5constructor?5closu@ 000000018002d380     libvcruntime:undname.obj
 0002:000013a4       ??_C@_06FHBGPFGH@?5new?$FL?$FN?$AA@ 000000018002d3a4     libvcruntime:undname.obj
 0002:000013b0       ??_C@_09LBNFPBCA@?5delete?$FL?$FN?$AA@ 000000018002d3b0     libvcruntime:undname.obj
 0002:000013c0       ??_C@_0P@HJKNJFNN@?$GAomni?5callsig?8?$AA@ 000000018002d3c0     libvcruntime:undname.obj
 0002:000013d0       ??_C@_0BL@CNOONJFP@?$GAplacement?5delete?5closure?8?$AA@ 000000018002d3d0     libvcruntime:undname.obj
 0002:000013f0       ??_C@_0BN@CKNJLHMB@?$GAplacement?5delete?$FL?$FN?5closure?8?$AA@ 000000018002d3f0     libvcruntime:undname.obj
 0002:00001410       ??_C@_0CG@CFDHKGGD@?$GAmanaged?5vector?5constructor?5iter@ 000000018002d410     libvcruntime:undname.obj
 0002:00001438       ??_C@_0CF@IMGKMJNO@?$GAmanaged?5vector?5destructor?5itera@ 000000018002d438     libvcruntime:undname.obj
 0002:00001460       ??_C@_0CG@HLDDJMAG@?$GAeh?5vector?5copy?5constructor?5iter@ 000000018002d460     libvcruntime:undname.obj
 0002:00001488       ??_C@_0CM@FCBBDIGB@?$GAeh?5vector?5vbase?5copy?5constructo@ 000000018002d488     libvcruntime:undname.obj
 0002:000014b8       ??_C@_0BL@CLIPGLGB@?$GAdynamic?5initializer?5for?5?8?$AA@ 000000018002d4b8     libvcruntime:undname.obj
 0002:000014d8       ??_C@_0CB@PDBIFEP@?$GAdynamic?5atexit?5destructor?5for?5?8@ 000000018002d4d8     libvcruntime:undname.obj
 0002:00001500       ??_C@_0CD@CGAJBKEJ@?$GAvector?5copy?5constructor?5iterato@ 000000018002d500     libvcruntime:undname.obj
 0002:00001528       ??_C@_0CJ@GJELGAMM@?$GAvector?5vbase?5copy?5constructor?5i@ 000000018002d528     libvcruntime:undname.obj
 0002:00001558       ??_C@_0CL@FGIJHLCE@?$GAmanaged?5vector?5copy?5constructor@ 000000018002d558     libvcruntime:undname.obj
 0002:00001588       ??_C@_0BM@PMGGMLDN@?$GAlocal?5static?5thread?5guard?8?$AA@ 000000018002d588     libvcruntime:undname.obj
 0002:000015a8       ??_C@_0N@BDNMDMOL@operator?5?$CC?$CC?5?$AA@ 000000018002d5a8     libvcruntime:undname.obj
 0002:000015b8       ??_C@_0BC@DAFEJGAK@?5Type?5Descriptor?8?$AA@ 000000018002d5b8     libvcruntime:undname.obj
 0002:000015d0       ??_C@_0BM@LDKODKLH@?5Base?5Class?5Descriptor?5at?5?$CI?$AA@ 000000018002d5d0     libvcruntime:undname.obj
 0002:000015f0       ??_C@_0BD@LGICGFMM@?5Base?5Class?5Array?8?$AA@ 000000018002d5f0     libvcruntime:undname.obj
 0002:00001608       ??_C@_0BN@MECKDCOJ@?5Class?5Hierarchy?5Descriptor?8?$AA@ 000000018002d608     libvcruntime:undname.obj
 0002:00001628       ??_C@_0BK@CFCOFLF@?5Complete?5Object?5Locator?8?$AA@ 000000018002d628     libvcruntime:undname.obj
 0002:00001650       ??_C@_1EK@MBDPDCGA@?$AAM?$AAi?$AAc?$AAr?$AAo?$AAs?$AAo?$AAf?$AAt?$AA?5?$AAV?$AAi?$AAs?$AAu?$AAa?$AAl?$AA?5?$AAC?$AA?$CL?$AA?$CL?$AA?5?$AAR?$AAu?$AAn?$AAt?$AAi?$AAm?$AAe?$AA?5?$AAL?$AAi?$AAb@ 000000018002d650     libucrt:assert.obj
 0002:000016a0       ??_C@_1FE@LHBLIKM@?$AAA?$AAs?$AAs?$AAe?$AAr?$AAt?$AAi?$AAo?$AAn?$AA?5?$AAf?$AAa?$AAi?$AAl?$AAe?$AAd?$AA?3?$AA?5?$AA?$CF?$AAT?$AAs?$AA?0?$AA?5?$AAf?$AAi?$AAl?$AAe?$AA?5?$AA?$CF?$AAT?$AAs?$AA?0@ 000000018002d6a0     libucrt:assert.obj
 0002:000016f8       ??_C@_1CE@OJBNHDMO@?$AAA?$AAs?$AAs?$AAe?$AAr?$AAt?$AAi?$AAo?$AAn?$AA?5?$AAf?$AAa?$AAi?$AAl?$AAe?$AAd?$AA?$CB?$AA?$AA@ 000000018002d6f8     libucrt:assert.obj
 0002:00001720       ??_C@_1BE@PHKBBGE@?$AAP?$AAr?$AAo?$AAg?$AAr?$AAa?$AAm?$AA?3?$AA?5?$AA?$AA@ 000000018002d720     libucrt:assert.obj
 0002:00001738       ??_C@_1O@HEMHKNDC@?$AAF?$AAi?$AAl?$AAe?$AA?3?$AA?5?$AA?$AA@ 000000018002d738     libucrt:assert.obj
 0002:00001748       ??_C@_1O@KCAFKHJE@?$AAL?$AAi?$AAn?$AAe?$AA?3?$AA?5?$AA?$AA@ 000000018002d748     libucrt:assert.obj
 0002:00001758       ??_C@_1BK@PEDCIPMA@?$AAE?$AAx?$AAp?$AAr?$AAe?$AAs?$AAs?$AAi?$AAo?$AAn?$AA?3?$AA?5?$AA?$AA@ 000000018002d758     libucrt:assert.obj
 0002:00001780       ??_C@_1OA@EGMLFBHJ@?$AAF?$AAo?$AAr?$AA?5?$AAi?$AAn?$AAf?$AAo?$AAr?$AAm?$AAa?$AAt?$AAi?$AAo?$AAn?$AA?5?$AAo?$AAn?$AA?5?$AAh?$AAo?$AAw?$AA?5?$AAy?$AAo?$AAu?$AAr?$AA?5?$AAp?$AAr?$AAo?$AAg@ 000000018002d780     libucrt:assert.obj
 0002:00001860       ??_C@_1HK@POCJMFGK@?$AA?$CI?$AAP?$AAr?$AAe?$AAs?$AAs?$AA?5?$AAR?$AAe?$AAt?$AAr?$AAy?$AA?5?$AAt?$AAo?$AA?5?$AAd?$AAe?$AAb?$AAu?$AAg?$AA?5?$AAt?$AAh?$AAe?$AA?5?$AAa?$AAp?$AAp?$AAl?$AAi?$AAc@ 000000018002d860     libucrt:assert.obj
 0002:000018e0       ??_C@_17LGKOMLJ@?$AA?4?$AA?4?$AA?4?$AA?$AA@ 000000018002d8e0     libucrt:assert.obj
 0002:000018e8       ??_C@_13LBAGMAIH@?$AA?6?$AA?$AA@ 000000018002d8e8     libucrt:assert.obj
 0002:000018ec       ??_C@_15IABLJNFO@?$AA?6?$AA?6?$AA?$AA@ 000000018002d8ec     libucrt:assert.obj
 0002:000018f8       ??_C@_1CO@EAEJAADC@?$AA?$DM?$AAp?$AAr?$AAo?$AAg?$AAr?$AAa?$AAm?$AA?5?$AAn?$AAa?$AAm?$AAe?$AA?5?$AAu?$AAn?$AAk?$AAn?$AAo?$AAw?$AAn?$AA?$DO?$AA?$AA@ 000000018002d8f8     libucrt:assert.obj
 0002:00001930       standard_lookup_table      000000018002d930     libucrt:output.obj
 0002:0000198c       ??_C@_06OJHGLDPL@?$CInull?$CJ?$AA@ 000000018002d98c     libucrt:output.obj
 0002:00001998       ??_C@_1O@CEDCILHN@?$AA?$CI?$AAn?$AAu?$AAl?$AAl?$AA?$CJ?$AA?$AA@ 000000018002d998     libucrt:output.obj
 0002:000019b0       __acrt_exception_action_table 000000018002d9b0     libucrt:exception_filter.obj
 0002:00001a70       __acrt_signal_action_table_count 000000018002da70     libucrt:exception_filter.obj
 0002:00001a78       __acrt_signal_action_first_fpe_index 000000018002da78     libucrt:exception_filter.obj
 0002:00001a80       __acrt_signal_action_fpe_count 000000018002da80     libucrt:exception_filter.obj
 0002:00001a88       ??_C@_1BI@BGOHAHKC@?$AAm?$AAs?$AAc?$AAo?$AAr?$AAe?$AAe?$AA?4?$AAd?$AAl?$AAl?$AA?$AA@ 000000018002da88     libucrt:exit.obj
 0002:00001aa0       ??_C@_0P@MIGLKIOC@CorExitProcess?$AA@ 000000018002daa0     libucrt:exit.obj
 0002:00001db0       ??_C@_1EG@CNNIPFIM@?$AAa?$AAp?$AAi?$AA?9?$AAm?$AAs?$AA?9?$AAw?$AAi?$AAn?$AA?9?$AAa?$AAp?$AAp?$AAm?$AAo?$AAd?$AAe?$AAl?$AA?9?$AAr?$AAu?$AAn?$AAt?$AAi?$AAm?$AAe?$AA?9?$AAl?$AA1?$AA?9?$AA1@ 000000018002ddb0     libucrt:winapi_thunks.obj
 0002:00001e00       ??_C@_1EA@JGEFHKEI@?$AAa?$AAp?$AAi?$AA?9?$AAm?$AAs?$AA?9?$AAw?$AAi?$AAn?$AA?9?$AAc?$AAo?$AAr?$AAe?$AA?9?$AAd?$AAa?$AAt?$AAe?$AAt?$AAi?$AAm?$AAe?$AA?9?$AAl?$AA1?$AA?9?$AA1?$AA?9?$AA1?$AA?$AA@ 000000018002de00     libucrt:winapi_thunks.obj
 0002:00001e40       ??_C@_1DI@GCIAAENM@?$AAa?$AAp?$AAi?$AA?9?$AAm?$AAs?$AA?9?$AAw?$AAi?$AAn?$AA?9?$AAc?$AAo?$AAr?$AAe?$AA?9?$AAf?$AAi?$AAl?$AAe?$AA?9?$AAl?$AA2?$AA?9?$AA1?$AA?9?$AA1?$AA?$AA@ 000000018002de40     libucrt:winapi_thunks.obj
 0002:00001e80       ??_C@_1EI@MPIAOHOC@?$AAa?$AAp?$AAi?$AA?9?$AAm?$AAs?$AA?9?$AAw?$AAi?$AAn?$AA?9?$AAc?$AAo?$AAr?$AAe?$AA?9?$AAl?$AAo?$AAc?$AAa?$AAl?$AAi?$AAz?$AAa?$AAt?$AAi?$AAo?$AAn?$AA?9?$AAl?$AA1?$AA?9@ 000000018002de80     libucrt:winapi_thunks.obj
 0002:00001ed0       ??_C@_1FK@FPHCKFIE@?$AAa?$AAp?$AAi?$AA?9?$AAm?$AAs?$AA?9?$AAw?$AAi?$AAn?$AA?9?$AAc?$AAo?$AAr?$AAe?$AA?9?$AAl?$AAo?$AAc?$AAa?$AAl?$AAi?$AAz?$AAa?$AAt?$AAi?$AAo?$AAn?$AA?9?$AAo?$AAb?$AAs@ 000000018002ded0     libucrt:winapi_thunks.obj
 0002:00001f30       ??_C@_1EM@DILCGIIO@?$AAa?$AAp?$AAi?$AA?9?$AAm?$AAs?$AA?9?$AAw?$AAi?$AAn?$AA?9?$AAc?$AAo?$AAr?$AAe?$AA?9?$AAp?$AAr?$AAo?$AAc?$AAe?$AAs?$AAs?$AAt?$AAh?$AAr?$AAe?$AAa?$AAd?$AAs?$AA?9?$AAl@ 000000018002df30     libucrt:winapi_thunks.obj
 0002:00001f80       ??_C@_1DM@LNCGDDPN@?$AAa?$AAp?$AAi?$AA?9?$AAm?$AAs?$AA?9?$AAw?$AAi?$AAn?$AA?9?$AAc?$AAo?$AAr?$AAe?$AA?9?$AAs?$AAt?$AAr?$AAi?$AAn?$AAg?$AA?9?$AAl?$AA1?$AA?9?$AA1?$AA?9?$AA0?$AA?$AA@ 000000018002df80     libucrt:winapi_thunks.obj
 0002:00001fc0       ??_C@_1DO@FPAPJEMD@?$AAa?$AAp?$AAi?$AA?9?$AAm?$AAs?$AA?9?$AAw?$AAi?$AAn?$AA?9?$AAc?$AAo?$AAr?$AAe?$AA?9?$AAs?$AAy?$AAs?$AAi?$AAn?$AAf?$AAo?$AA?9?$AAl?$AA1?$AA?9?$AA2?$AA?9?$AA1?$AA?$AA@ 000000018002dfc0     libucrt:winapi_thunks.obj
 0002:00002000       ??_C@_1DK@NDHNAHIO@?$AAa?$AAp?$AAi?$AA?9?$AAm?$AAs?$AA?9?$AAw?$AAi?$AAn?$AA?9?$AAc?$AAo?$AAr?$AAe?$AA?9?$AAw?$AAi?$AAn?$AAr?$AAt?$AA?9?$AAl?$AA1?$AA?9?$AA1?$AA?9?$AA0?$AA?$AA@ 000000018002e000     libucrt:winapi_thunks.obj
 0002:00002040       ??_C@_1DM@KGHDGBCM@?$AAa?$AAp?$AAi?$AA?9?$AAm?$AAs?$AA?9?$AAw?$AAi?$AAn?$AA?9?$AAc?$AAo?$AAr?$AAe?$AA?9?$AAx?$AAs?$AAt?$AAa?$AAt?$AAe?$AA?9?$AAl?$AA2?$AA?9?$AA1?$AA?9?$AA0?$AA?$AA@ 000000018002e040     libucrt:winapi_thunks.obj
 0002:00002080       ??_C@_1EO@IJIOEFOH@?$AAa?$AAp?$AAi?$AA?9?$AAm?$AAs?$AA?9?$AAw?$AAi?$AAn?$AA?9?$AAr?$AAt?$AAc?$AAo?$AAr?$AAe?$AA?9?$AAn?$AAt?$AAu?$AAs?$AAe?$AAr?$AA?9?$AAw?$AAi?$AAn?$AAd?$AAo?$AAw?$AA?9@ 000000018002e080     libucrt:winapi_thunks.obj
 0002:000020d0       ??_C@_1FG@HHGEKANL@?$AAa?$AAp?$AAi?$AA?9?$AAm?$AAs?$AA?9?$AAw?$AAi?$AAn?$AA?9?$AAs?$AAe?$AAc?$AAu?$AAr?$AAi?$AAt?$AAy?$AA?9?$AAs?$AAy?$AAs?$AAt?$AAe?$AAm?$AAf?$AAu?$AAn?$AAc?$AAt?$AAi@ 000000018002e0d0     libucrt:winapi_thunks.obj
 0002:00002130       ??_C@_1FG@NCKKOLKO@?$AAe?$AAx?$AAt?$AA?9?$AAm?$AAs?$AA?9?$AAw?$AAi?$AAn?$AA?9?$AAk?$AAe?$AAr?$AAn?$AAe?$AAl?$AA3?$AA2?$AA?9?$AAp?$AAa?$AAc?$AAk?$AAa?$AAg?$AAe?$AA?9?$AAc?$AAu?$AAr?$AAr@ 000000018002e130     libucrt:winapi_thunks.obj
 0002:00002190       ??_C@_1EG@DBIOJECG@?$AAe?$AAx?$AAt?$AA?9?$AAm?$AAs?$AA?9?$AAw?$AAi?$AAn?$AA?9?$AAn?$AAt?$AAu?$AAs?$AAe?$AAr?$AA?9?$AAd?$AAi?$AAa?$AAl?$AAo?$AAg?$AAb?$AAo?$AAx?$AA?9?$AAl?$AA1?$AA?9?$AA1@ 000000018002e190     libucrt:winapi_thunks.obj
 0002:000021e0       ??_C@_1EO@FIHMJCLF@?$AAe?$AAx?$AAt?$AA?9?$AAm?$AAs?$AA?9?$AAw?$AAi?$AAn?$AA?9?$AAn?$AAt?$AAu?$AAs?$AAe?$AAr?$AA?9?$AAw?$AAi?$AAn?$AAd?$AAo?$AAw?$AAs?$AAt?$AAa?$AAt?$AAi?$AAo?$AAn?$AA?9@ 000000018002e1e0     libucrt:winapi_thunks.obj
 0002:00002230       ??_C@_1O@BCCLBEOE@?$AAu?$AAs?$AAe?$AAr?$AA3?$AA2?$AA?$AA@ 000000018002e230     libucrt:winapi_thunks.obj
 0002:00002248       ??_C@_0BA@FHFNEAED@AreFileApisANSI?$AA@ 000000018002e248     libucrt:winapi_thunks.obj
 0002:00002280       ??_C@_0BA@HNOPNCHB@GetActiveWindow?$AA@ 000000018002e280     libucrt:winapi_thunks.obj
 0002:00002298       ??_C@_0BE@JOGNEJCI@GetCurrentPackageId?$AA@ 000000018002e298     libucrt:winapi_thunks.obj
 0002:000022b8       ??_C@_0BD@HHGDFDBJ@GetLastActivePopup?$AA@ 000000018002e2b8     libucrt:winapi_thunks.obj
 0002:000022d8       ??_C@_0BI@DFKBFLJE@GetProcessWindowStation?$AA@ 000000018002e2d8     libucrt:winapi_thunks.obj
 0002:000022f8       ??_C@_0BK@DEKFELLI@GetUserObjectInformationW?$AA@ 000000018002e2f8     libucrt:winapi_thunks.obj
 0002:00002328       ??_C@_0O@KKBNKAPF@LCMapStringEx?$AA@ 000000018002e328     libucrt:winapi_thunks.obj
 0002:00002340       ??_C@_0BB@HBDEELFH@LocaleNameToLCID?$AA@ 000000018002e340     libucrt:winapi_thunks.obj
 0002:00002360       ??_C@_0M@CHKKJDAI@MessageBoxA?$AA@ 000000018002e360     libucrt:winapi_thunks.obj
 0002:00002378       ??_C@_0M@DLDCCGNP@MessageBoxW?$AA@ 000000018002e378     libucrt:winapi_thunks.obj
 0002:00002384       ??_C@_03OEIAHPBN@INF?$AA@  000000018002e384     libucrt:cvt.obj
 0002:00002388       ??_C@_03OJHLLCGB@inf?$AA@  000000018002e388     libucrt:cvt.obj
 0002:0000238c       ??_C@_03LKNCIKJB@NAN?$AA@  000000018002e38c     libucrt:cvt.obj
 0002:00002390       ??_C@_03LHCJEHON@nan?$AA@  000000018002e390     libucrt:cvt.obj
 0002:00002398       ??_C@_09OFJJIMPC@NAN?$CISNAN?$CJ?$AA@ 000000018002e398     libucrt:cvt.obj
 0002:000023a8       ??_C@_09IPFBKMDL@nan?$CIsnan?$CJ?$AA@ 000000018002e3a8     libucrt:cvt.obj
 0002:000023b8       ??_C@_08IKHNHAJ@NAN?$CIIND?$CJ?$AA@ 000000018002e3b8     libucrt:cvt.obj
 0002:000023c8       ??_C@_08OFCDMILK@nan?$CIind?$CJ?$AA@ 000000018002e3c8     libucrt:cvt.obj
 0002:000023d4       ??_C@_05KLBDPFGC@e?$CL000?$AA@ 000000018002e3d4     libucrt:cvt.obj
 0002:000023e0       __lc_time_c                000000018002e3e0     libucrt:nlsdata.obj
 0002:000026a0       ??_C@_03KOEHGMDN@Sun?$AA@  000000018002e6a0     libucrt:nlsdata.obj
 0002:000026a4       ??_C@_03PDAGKDH@Mon?$AA@   000000018002e6a4     libucrt:nlsdata.obj
 0002:000026a8       ??_C@_03NAGEINEP@Tue?$AA@  000000018002e6a8     libucrt:nlsdata.obj
 0002:000026ac       ??_C@_03MHOMLAJA@Wed?$AA@  000000018002e6ac     libucrt:nlsdata.obj
 0002:000026b0       ??_C@_03IOFIKPDN@Thu?$AA@  000000018002e6b0     libucrt:nlsdata.obj
 0002:000026b4       ??_C@_03IDIOELNC@Fri?$AA@  000000018002e6b4     libucrt:nlsdata.obj
 0002:000026b8       ??_C@_03FEFJNEK@Sat?$AA@   000000018002e6b8     libucrt:nlsdata.obj
 0002:000026bc       ??_C@_06OOPIFAJ@Sunday?$AA@ 000000018002e6bc     libucrt:nlsdata.obj
 0002:000026c4       ??_C@_06JLEDEDGH@Monday?$AA@ 000000018002e6c4     libucrt:nlsdata.obj
 0002:000026d0       ??_C@_07BAAGCFCM@Tuesday?$AA@ 000000018002e6d0     libucrt:nlsdata.obj
 0002:000026d8       ??_C@_09DLIGFAKA@Wednesday?$AA@ 000000018002e6d8     libucrt:nlsdata.obj
 0002:000026e8       ??_C@_08HACCIKIA@Thursday?$AA@ 000000018002e6e8     libucrt:nlsdata.obj
 0002:000026f4       ??_C@_06JECMNKMI@Friday?$AA@ 000000018002e6f4     libucrt:nlsdata.obj
 0002:00002700       ??_C@_08INBOOONO@Saturday?$AA@ 000000018002e700     libucrt:nlsdata.obj
 0002:0000270c       ??_C@_03JIHJHPIE@Jan?$AA@  000000018002e70c     libucrt:nlsdata.obj
 0002:00002710       ??_C@_03HJBDCHOM@Feb?$AA@  000000018002e710     libucrt:nlsdata.obj
 0002:00002714       ??_C@_03ODNJBKGA@Mar?$AA@  000000018002e714     libucrt:nlsdata.obj
 0002:00002718       ??_C@_03LEOLGMJP@Apr?$AA@  000000018002e718     libucrt:nlsdata.obj
 0002:0000271c       ??_C@_03CNMDKL@May?$AA@    000000018002e71c     libucrt:nlsdata.obj
 0002:00002720       ??_C@_03IDFGHECI@Jun?$AA@  000000018002e720     libucrt:nlsdata.obj
 0002:00002724       ??_C@_03LBGABGKK@Jul?$AA@  000000018002e724     libucrt:nlsdata.obj
 0002:00002728       ??_C@_03IFJFEIGA@Aug?$AA@  000000018002e728     libucrt:nlsdata.obj
 0002:0000272c       ??_C@_03GGCAPAJC@Sep?$AA@  000000018002e72c     libucrt:nlsdata.obj
 0002:00002730       ??_C@_03BMAOKBAD@Oct?$AA@  000000018002e730     libucrt:nlsdata.obj
 0002:00002734       ??_C@_03JPJOFNIA@Nov?$AA@  000000018002e734     libucrt:nlsdata.obj
 0002:00002738       ??_C@_03MKABNOCG@Dec?$AA@  000000018002e738     libucrt:nlsdata.obj
 0002:00002740       ??_C@_07CGJPFGJA@January?$AA@ 000000018002e740     libucrt:nlsdata.obj
 0002:00002748       ??_C@_08GNJGEPFN@February?$AA@ 000000018002e748     libucrt:nlsdata.obj
 0002:00002754       ??_C@_05HPCKOFNC@March?$AA@ 000000018002e754     libucrt:nlsdata.obj
 0002:0000275c       ??_C@_05DMJDNLEJ@April?$AA@ 000000018002e75c     libucrt:nlsdata.obj
 0002:00002764       ??_C@_04CNLMGBGM@June?$AA@ 000000018002e764     libucrt:nlsdata.obj
 0002:0000276c       ??_C@_04MIEPOIFP@July?$AA@ 000000018002e76c     libucrt:nlsdata.obj
 0002:00002774       ??_C@_06LBBHFDDG@August?$AA@ 000000018002e774     libucrt:nlsdata.obj
 0002:00002780       ??_C@_09BHHEALKD@September?$AA@ 000000018002e780     libucrt:nlsdata.obj
 0002:00002790       ??_C@_07JJNFCEND@October?$AA@ 000000018002e790     libucrt:nlsdata.obj
 0002:00002798       ??_C@_08HCHEGEOA@November?$AA@ 000000018002e798     libucrt:nlsdata.obj
 0002:000027a8       ??_C@_08EDHMEBNP@December?$AA@ 000000018002e7a8     libucrt:nlsdata.obj
 0002:000027b4       ??_C@_02DEDBPAFC@AM?$AA@   000000018002e7b4     libucrt:nlsdata.obj
 0002:000027b8       ??_C@_02CJNFDJBF@PM?$AA@   000000018002e7b8     libucrt:nlsdata.obj
 0002:000027c0       ??_C@_08BPBNCDIB@MM?1dd?1yy?$AA@ 000000018002e7c0     libucrt:nlsdata.obj
 0002:000027d0       ??_C@_0BE@CKGJFCPC@dddd?0?5MMMM?5dd?0?5yyyy?$AA@ 000000018002e7d0     libucrt:nlsdata.obj
 0002:000027e8       ??_C@_08JCCMCCIL@HH?3mm?3ss?$AA@ 000000018002e7e8     libucrt:nlsdata.obj
 0002:000027f8       ??_C@_17MBGCMIPB@?$AAS?$AAu?$AAn?$AA?$AA@ 000000018002e7f8     libucrt:nlsdata.obj
 0002:00002800       ??_C@_17KBOMKBF@?$AAM?$AAo?$AAn?$AA?$AA@ 000000018002e800     libucrt:nlsdata.obj
 0002:00002808       ??_C@_17BMKGEGOJ@?$AAT?$AAu?$AAe?$AA?$AA@ 000000018002e808     libucrt:nlsdata.obj
 0002:00002810       ??_C@_17CJEDCEPE@?$AAW?$AAe?$AAd?$AA?$AA@ 000000018002e810     libucrt:nlsdata.obj
 0002:00002818       ??_C@_17PDPHAADD@?$AAT?$AAh?$AAu?$AA?$AA@ 000000018002e818     libucrt:nlsdata.obj
 0002:00002820       ??_C@_17HFOLPPLP@?$AAF?$AAr?$AAi?$AA?$AA@ 000000018002e820     libucrt:nlsdata.obj
 0002:00002828       ??_C@_17GGIBDPIH@?$AAS?$AAa?$AAt?$AA?$AA@ 000000018002e828     libucrt:nlsdata.obj
 0002:00002830       ??_C@_1O@IHNHDHPB@?$AAS?$AAu?$AAn?$AAd?$AAa?$AAy?$AA?$AA@ 000000018002e830     libucrt:nlsdata.obj
 0002:00002840       ??_C@_1O@MMNBFLIA@?$AAM?$AAo?$AAn?$AAd?$AAa?$AAy?$AA?$AA@ 000000018002e840     libucrt:nlsdata.obj
 0002:00002850       ??_C@_1BA@ENFBFFEK@?$AAT?$AAu?$AAe?$AAs?$AAd?$AAa?$AAy?$AA?$AA@ 000000018002e850     libucrt:nlsdata.obj
 0002:00002860       ??_C@_1BE@EBOGMDOH@?$AAW?$AAe?$AAd?$AAn?$AAe?$AAs?$AAd?$AAa?$AAy?$AA?$AA@ 000000018002e860     libucrt:nlsdata.obj
 0002:00002878       ??_C@_1BC@HHMNLIHE@?$AAT?$AAh?$AAu?$AAr?$AAs?$AAd?$AAa?$AAy?$AA?$AA@ 000000018002e878     libucrt:nlsdata.obj
 0002:00002890       ??_C@_1O@PDICJHAG@?$AAF?$AAr?$AAi?$AAd?$AAa?$AAy?$AA?$AA@ 000000018002e890     libucrt:nlsdata.obj
 0002:000028a0       ??_C@_1BC@ENMNNPAJ@?$AAS?$AAa?$AAt?$AAu?$AAr?$AAd?$AAa?$AAy?$AA?$AA@ 000000018002e8a0     libucrt:nlsdata.obj
 0002:000028b8       ??_C@_17DKNBKCHM@?$AAJ?$AAa?$AAn?$AA?$AA@ 000000018002e8b8     libucrt:nlsdata.obj
 0002:000028c0       ??_C@_17LMDJEKJN@?$AAF?$AAe?$AAb?$AA?$AA@ 000000018002e8c0     libucrt:nlsdata.obj
 0002:000028c8       ??_C@_17CKNLEDEC@?$AAM?$AAa?$AAr?$AA?$AA@ 000000018002e8c8     libucrt:nlsdata.obj
 0002:000028d0       ??_C@_17LFPOIHDD@?$AAA?$AAp?$AAr?$AA?$AA@ 000000018002e8d0     libucrt:nlsdata.obj
 0002:000028d8       ??_C@_17PNNKMEED@?$AAM?$AAa?$AAy?$AA?$AA@ 000000018002e8d8     libucrt:nlsdata.obj
 0002:000028e0       ??_C@_17KCJGOCPB@?$AAJ?$AAu?$AAn?$AA?$AA@ 000000018002e8e0     libucrt:nlsdata.obj
 0002:000028e8       ??_C@_17IJPCKHK@?$AAJ?$AAu?$AAl?$AA?$AA@ 000000018002e8e8     libucrt:nlsdata.obj
 0002:000028f0       ??_C@_17ICPELBCN@?$AAA?$AAu?$AAg?$AA?$AA@ 000000018002e8f0     libucrt:nlsdata.obj
 0002:000028f8       ??_C@_17HCHCOKMG@?$AAS?$AAe?$AAp?$AA?$AA@ 000000018002e8f8     libucrt:nlsdata.obj
 0002:00002900       ??_C@_17FNLKOI@?$AAO?$AAc?$AAt?$AA?$AA@ 000000018002e900     libucrt:nlsdata.obj
 0002:00002908       ??_C@_17BBDMLCIG@?$AAN?$AAo?$AAv?$AA?$AA@ 000000018002e908     libucrt:nlsdata.obj
 0002:00002910       ??_C@_17EGKACKIF@?$AAD?$AAe?$AAc?$AA?$AA@ 000000018002e910     libucrt:nlsdata.obj
 0002:00002918       ??_C@_1BA@EFMEIEBA@?$AAJ?$AAa?$AAn?$AAu?$AAa?$AAr?$AAy?$AA?$AA@ 000000018002e918     libucrt:nlsdata.obj
 0002:00002928       ??_C@_1BC@JGDDFFAM@?$AAF?$AAe?$AAb?$AAr?$AAu?$AAa?$AAr?$AAy?$AA?$AA@ 000000018002e928     libucrt:nlsdata.obj
 0002:00002940       ??_C@_1M@IKEENEDF@?$AAM?$AAa?$AAr?$AAc?$AAh?$AA?$AA@ 000000018002e940     libucrt:nlsdata.obj
 0002:00002950       ??_C@_1M@GJNLMHFD@?$AAA?$AAp?$AAr?$AAi?$AAl?$AA?$AA@ 000000018002e950     libucrt:nlsdata.obj
 0002:00002960       ??_C@_19EPFLPGAP@?$AAJ?$AAu?$AAn?$AAe?$AA?$AA@ 000000018002e960     libucrt:nlsdata.obj
 0002:00002970       ??_C@_19BIFMLPCD@?$AAJ?$AAu?$AAl?$AAy?$AA?$AA@ 000000018002e970     libucrt:nlsdata.obj
 0002:00002980       ??_C@_1O@PAHLKOAC@?$AAA?$AAu?$AAg?$AAu?$AAs?$AAt?$AA?$AA@ 000000018002e980     libucrt:nlsdata.obj
 0002:00002990       ??_C@_1BE@DKAAMBJL@?$AAS?$AAe?$AAp?$AAt?$AAe?$AAm?$AAb?$AAe?$AAr?$AA?$AA@ 000000018002e990     libucrt:nlsdata.obj
 0002:000029a8       ??_C@_1BA@EPANDLNG@?$AAO?$AAc?$AAt?$AAo?$AAb?$AAe?$AAr?$AA?$AA@ 000000018002e9a8     libucrt:nlsdata.obj
 0002:000029b8       ??_C@_1BC@BGLIFPF@?$AAN?$AAo?$AAv?$AAe?$AAm?$AAb?$AAe?$AAr?$AA?$AA@ 000000018002e9b8     libucrt:nlsdata.obj
 0002:000029d0       ??_C@_1BC@FEMKIFH@?$AAD?$AAe?$AAc?$AAe?$AAm?$AAb?$AAe?$AAr?$AA?$AA@ 000000018002e9d0     libucrt:nlsdata.obj
 0002:000029e4       ??_C@_15ODEHAHHF@?$AAA?$AAM?$AA?$AA@ 000000018002e9e4     libucrt:nlsdata.obj
 0002:000029ec       ??_C@_15CLMNNGEL@?$AAP?$AAM?$AA?$AA@ 000000018002e9ec     libucrt:nlsdata.obj
 0002:000029f8       ??_C@_1BC@IEBCMHCM@?$AAM?$AAM?$AA?1?$AAd?$AAd?$AA?1?$AAy?$AAy?$AA?$AA@ 000000018002e9f8     libucrt:nlsdata.obj
 0002:00002a10       ??_C@_1CI@KNAKOEBC@?$AAd?$AAd?$AAd?$AAd?$AA?0?$AA?5?$AAM?$AAM?$AAM?$AAM?$AA?5?$AAd?$AAd?$AA?0?$AA?5?$AAy?$AAy?$AAy?$AAy?$AA?$AA@ 000000018002ea10     libucrt:nlsdata.obj
 0002:00002a38       ??_C@_1BC@GDGBMEMK@?$AAH?$AAH?$AA?3?$AAm?$AAm?$AA?3?$AAs?$AAs?$AA?$AA@ 000000018002ea38     libucrt:nlsdata.obj
 0002:00002a50       ??_C@_1M@BMHNFIME@?$AAe?$AAn?$AA?9?$AAU?$AAS?$AA?$AA@ 000000018002ea50     libucrt:nlsdata.obj
 0002:00002a5c       ?ccs@?BL@???$__acrt_stdio_parse_mode@D@@YA?AU__acrt_stdio_stream_mode@@QEBD@Z@4QBDB 000000018002ea5c     libucrt:openfile.obj
 0002:00002a60       ?utf8_encoding@?BL@???$__acrt_stdio_parse_mode@D@@YA?AU__acrt_stdio_stream_mode@@QEBD@Z@4QBDB 000000018002ea60     libucrt:openfile.obj
 0002:00002a68       ?utf16_encoding@?BL@???$__acrt_stdio_parse_mode@D@@YA?AU__acrt_stdio_stream_mode@@QEBD@Z@4QBDB 000000018002ea68     libucrt:openfile.obj
 0002:00002a70       ?unicode_encoding@?BL@???$__acrt_stdio_parse_mode@D@@YA?AU__acrt_stdio_stream_mode@@QEBD@Z@4QBDB 000000018002ea70     libucrt:openfile.obj
 0002:00002a98       ??_C@_1M@HPNHIDJI@?$AAj?$AAa?$AA?9?$AAJ?$AAP?$AA?$AA@ 000000018002ea98     libucrt:mbctype.obj
 0002:00002aa8       ??_C@_1M@BIBDDEMK@?$AAz?$AAh?$AA?9?$AAC?$AAN?$AA?$AA@ 000000018002eaa8     libucrt:mbctype.obj
 0002:00002ab8       ??_C@_1M@JLOOOEGK@?$AAk?$AAo?$AA?9?$AAK?$AAR?$AA?$AA@ 000000018002eab8     libucrt:mbctype.obj
 0002:00002ac8       ??_C@_1M@CLNBBOPM@?$AAz?$AAh?$AA?9?$AAT?$AAW?$AA?$AA@ 000000018002eac8     libucrt:mbctype.obj
 0002:00002ae0       __newctype                 000000018002eae0     libucrt:ctype.obj
 0002:00002de0       __newclmap                 000000018002ede0     libucrt:ctype.obj
 0002:00002f60       __newcumap                 000000018002ef60     libucrt:ctype.obj
 0002:000030e0       _wctype                    000000018002f0e0     libucrt:ctype.obj
 0002:000032e4       ??_C@_05HGHHAHAP@log10?$AA@ 000000018002f2e4     libucrt:fpexcept.obj
 0002:000032ec       ??_C@_04PDIFKINK@acos?$AA@ 000000018002f2ec     libucrt:fpexcept.obj
 0002:00004140       ??_C@_15EMKDOKLE@?$AAa?$AAr?$AA?$AA@ 0000000180030140     libucrt:lcidtoname_downlevel.obj
 0002:00004148       ??_C@_15KNPADPLH@?$AAb?$AAg?$AA?$AA@ 0000000180030148     libucrt:lcidtoname_downlevel.obj
 0002:00004150       ??_C@_15EDMHLDMO@?$AAc?$AAa?$AA?$AA@ 0000000180030150     libucrt:lcidtoname_downlevel.obj
 0002:00004158       ??_C@_1O@BPEAJADD@?$AAz?$AAh?$AA?9?$AAC?$AAH?$AAS?$AA?$AA@ 0000000180030158     libucrt:lcidtoname_downlevel.obj
 0002:00004168       ??_C@_15LJNHCMNK@?$AAc?$AAs?$AA?$AA@ 0000000180030168     libucrt:lcidtoname_downlevel.obj
 0002:00004170       ??_C@_15FOMCIDHG@?$AAd?$AAa?$AA?$AA@ 0000000180030170     libucrt:lcidtoname_downlevel.obj
 0002:00004178       ??_C@_15NBKABECB@?$AAd?$AAe?$AA?$AA@ 0000000180030178     libucrt:lcidtoname_downlevel.obj
 0002:00004180       ??_C@_15GHPEIIAO@?$AAe?$AAl?$AA?$AA@ 0000000180030180     libucrt:lcidtoname_downlevel.obj
 0002:00004188       ??_C@_15MNPNEAIF@?$AAe?$AAn?$AA?$AA@ 0000000180030188     libucrt:lcidtoname_downlevel.obj
 0002:00004190       ??_C@_15GPIOMPMH@?$AAe?$AAs?$AA?$AA@ 0000000180030190     libucrt:lcidtoname_downlevel.obj
 0002:00004198       ??_C@_15NGLOAKJC@?$AAf?$AAi?$AA?$AA@ 0000000180030198     libucrt:lcidtoname_downlevel.obj
 0002:000041a0       ??_C@_15FBKGNKAM@?$AAf?$AAr?$AA?$AA@ 00000001800301a0     libucrt:lcidtoname_downlevel.obj
 0002:000041a8       ??_C@_15KGGCNEFK@?$AAh?$AAe?$AA?$AA@ 00000001800301a8     libucrt:lcidtoname_downlevel.obj
 0002:000041b0       ??_C@_15PGHLIDMF@?$AAh?$AAu?$AA?$AA@ 00000001800301b0     libucrt:lcidtoname_downlevel.obj
 0002:000041b8       ??_C@_15BIEMAPLM@?$AAi?$AAs?$AA?$AA@ 00000001800301b8     libucrt:lcidtoname_downlevel.obj
 0002:000041c0       ??_C@_15IFJLDHAF@?$AAi?$AAt?$AA?$AA@ 00000001800301c0     libucrt:lcidtoname_downlevel.obj
 0002:000041c8       ??_C@_15GEMIOCAG@?$AAj?$AAa?$AA?$AA@ 00000001800301c8     libucrt:lcidtoname_downlevel.obj
 0002:000041d0       ??_C@_15EPELEGJA@?$AAk?$AAo?$AA?$AA@ 00000001800301d0     libucrt:lcidtoname_downlevel.obj
 0002:000041d8       ??_C@_15NDDHIMN@?$AAn?$AAl?$AA?$AA@ 00000001800301d8     libucrt:lcidtoname_downlevel.obj
 0002:000041e0       ??_C@_15BPIGNHCD@?$AAn?$AAo?$AA?$AA@ 00000001800301e0     libucrt:lcidtoname_downlevel.obj
 0002:000041e8       ??_C@_15DEOPBLCG@?$AAp?$AAl?$AA?$AA@ 00000001800301e8     libucrt:lcidtoname_downlevel.obj
 0002:000041f0       ??_C@_15KBECGEFG@?$AAp?$AAt?$AA?$AA@ 00000001800301f0     libucrt:lcidtoname_downlevel.obj
 0002:000041f8       ??_C@_15GLJCBFMD@?$AAr?$AAo?$AA?$AA@ 00000001800301f8     libucrt:lcidtoname_downlevel.obj
 0002:00004200       ??_C@_15FEDGKCDI@?$AAr?$AAu?$AA?$AA@ 0000000180030200     libucrt:lcidtoname_downlevel.obj
 0002:00004208       ??_C@_15GLKMLLHM@?$AAh?$AAr?$AA?$AA@ 0000000180030208     libucrt:lcidtoname_downlevel.obj
 0002:00004210       ??_C@_15CPKMFBDB@?$AAs?$AAk?$AA?$AA@ 0000000180030210     libucrt:lcidtoname_downlevel.obj
 0002:00004218       ??_C@_15BAAIOGMK@?$AAs?$AAq?$AA?$AA@ 0000000180030218     libucrt:lcidtoname_downlevel.obj
 0002:00004220       ??_C@_15INNPNOHD@?$AAs?$AAv?$AA?$AA@ 0000000180030220     libucrt:lcidtoname_downlevel.obj
 0002:00004228       ??_C@_15CABMMOGH@?$AAt?$AAh?$AA?$AA@ 0000000180030228     libucrt:lcidtoname_downlevel.obj
 0002:00004230       ??_C@_15BPLIHJJM@?$AAt?$AAr?$AA?$AA@ 0000000180030230     libucrt:lcidtoname_downlevel.obj
 0002:00004238       ??_C@_15NEOEKKDJ@?$AAu?$AAr?$AA?$AA@ 0000000180030238     libucrt:lcidtoname_downlevel.obj
 0002:00004240       ??_C@_15NFICGAJK@?$AAi?$AAd?$AA?$AA@ 0000000180030240     libucrt:lcidtoname_downlevel.obj
 0002:00004248       ??_C@_15PJPFLCCM@?$AAu?$AAk?$AA?$AA@ 0000000180030248     libucrt:lcidtoname_downlevel.obj
 0002:00004250       ??_C@_15HPJPHDM@?$AAb?$AAe?$AA?$AA@ 0000000180030250     libucrt:lcidtoname_downlevel.obj
 0002:00004258       ??_C@_15LCHLGJII@?$AAs?$AAl?$AA?$AA@ 0000000180030258     libucrt:lcidtoname_downlevel.obj
 0002:00004260       ??_C@_15PCFJPHHO@?$AAe?$AAt?$AA?$AA@ 0000000180030260     libucrt:lcidtoname_downlevel.obj
 0002:00004268       ??_C@_15HPFPGODN@?$AAl?$AAv?$AA?$AA@ 0000000180030268     libucrt:lcidtoname_downlevel.obj
 0002:00004270       ??_C@_15NFFGKGLG@?$AAl?$AAt?$AA?$AA@ 0000000180030270     libucrt:lcidtoname_downlevel.obj
 0002:00004278       ??_C@_15BDAKCCHN@?$AAf?$AAa?$AA?$AA@ 0000000180030278     libucrt:lcidtoname_downlevel.obj
 0002:00004280       ??_C@_15NFGIAIAJ@?$AAv?$AAi?$AA?$AA@ 0000000180030280     libucrt:lcidtoname_downlevel.obj
 0002:00004288       ??_C@_15LMKNDMHN@?$AAh?$AAy?$AA?$AA@ 0000000180030288     libucrt:lcidtoname_downlevel.obj
 0002:00004290       ??_C@_15IJBHMCFL@?$AAa?$AAz?$AA?$AA@ 0000000180030290     libucrt:lcidtoname_downlevel.obj
 0002:00004298       ??_C@_15EKOFJABL@?$AAe?$AAu?$AA?$AA@ 0000000180030298     libucrt:lcidtoname_downlevel.obj
 0002:000042a0       ??_C@_15BGHADCNK@?$AAm?$AAk?$AA?$AA@ 00000001800302a0     libucrt:lcidtoname_downlevel.obj
 0002:000042a8       ??_C@_15JDNICKHM@?$AAa?$AAf?$AA?$AA@ 00000001800302a8     libucrt:lcidtoname_downlevel.obj
 0002:000042b0       ??_C@_15KPJEDBKD@?$AAk?$AAa?$AA?$AA@ 00000001800302b0     libucrt:lcidtoname_downlevel.obj
 0002:000042b8       ??_C@_15PDNFFFEO@?$AAf?$AAo?$AA?$AA@ 00000001800302b8     libucrt:lcidtoname_downlevel.obj
 0002:000042c0       ??_C@_15OMLEGLOC@?$AAh?$AAi?$AA?$AA@ 00000001800302c0     libucrt:lcidtoname_downlevel.obj
 0002:000042c8       ??_C@_15IDNNENKK@?$AAm?$AAs?$AA?$AA@ 00000001800302c8     libucrt:lcidtoname_downlevel.obj
 0002:000042d0       ??_C@_15MACJNBMH@?$AAk?$AAk?$AA?$AA@ 00000001800302d0     libucrt:lcidtoname_downlevel.obj
 0002:000042d8       ??_C@_15DKDJEOND@?$AAk?$AAy?$AA?$AA@ 00000001800302d8     libucrt:lcidtoname_downlevel.obj
 0002:000042e0       ??_C@_15DFGDLJBG@?$AAs?$AAw?$AA?$AA@ 00000001800302e0     libucrt:lcidtoname_downlevel.obj
 0002:000042e8       ??_C@_15BBFAICNG@?$AAu?$AAz?$AA?$AA@ 00000001800302e8     libucrt:lcidtoname_downlevel.obj
 0002:000042f0       ??_C@_15DKNDCGEA@?$AAt?$AAt?$AA?$AA@ 00000001800302f0     libucrt:lcidtoname_downlevel.obj
 0002:000042f8       ??_C@_15MGIFMDPL@?$AAp?$AAa?$AA?$AA@ 00000001800302f8     libucrt:lcidtoname_downlevel.obj
 0002:00004300       ??_C@_15HCNDBBA@?$AAg?$AAu?$AA?$AA@ 0000000180030300     libucrt:lcidtoname_downlevel.obj
 0002:00004308       ??_C@_15FNBEIBON@?$AAt?$AAa?$AA?$AA@ 0000000180030308     libucrt:lcidtoname_downlevel.obj
 0002:00004310       ??_C@_15NCHGBGLK@?$AAt?$AAe?$AA?$AA@ 0000000180030310     libucrt:lcidtoname_downlevel.obj
 0002:00004318       ??_C@_15PHPHCBPF@?$AAk?$AAn?$AA?$AA@ 0000000180030318     libucrt:lcidtoname_downlevel.obj
 0002:00004320       ??_C@_15DLGBCKMP@?$AAm?$AAr?$AA?$AA@ 0000000180030320     libucrt:lcidtoname_downlevel.obj
 0002:00004328       ??_C@_15EABBLBFF@?$AAs?$AAa?$AA?$AA@ 0000000180030328     libucrt:lcidtoname_downlevel.obj
 0002:00004330       ??_C@_15CBKOMCOI@?$AAm?$AAn?$AA?$AA@ 0000000180030330     libucrt:lcidtoname_downlevel.obj
 0002:00004338       ??_C@_15CKDMCJAF@?$AAg?$AAl?$AA?$AA@ 0000000180030338     libucrt:lcidtoname_downlevel.obj
 0002:00004340       ??_C@_17CNJFBPG@?$AAk?$AAo?$AAk?$AA?$AA@ 0000000180030340     libucrt:lcidtoname_downlevel.obj
 0002:00004348       ??_C@_17FFBJICPL@?$AAs?$AAy?$AAr?$AA?$AA@ 0000000180030348     libucrt:lcidtoname_downlevel.obj
 0002:00004350       ??_C@_17KPNDCPAF@?$AAd?$AAi?$AAv?$AA?$AA@ 0000000180030350     libucrt:lcidtoname_downlevel.obj
 0002:00004358       ??_C@_11LOCGONAA@?$AA?$AA@ 0000000180030358     libucrt:lcidtoname_downlevel.obj
 0002:00004360       ??_C@_1M@OKAHONE@?$AAa?$AAr?$AA?9?$AAS?$AAA?$AA?$AA@ 0000000180030360     libucrt:lcidtoname_downlevel.obj
 0002:00004370       ??_C@_1M@FFFIGIGK@?$AAb?$AAg?$AA?9?$AAB?$AAG?$AA?$AA@ 0000000180030370     libucrt:lcidtoname_downlevel.obj
 0002:00004380       ??_C@_1M@BJNKEDC@?$AAc?$AAa?$AA?9?$AAE?$AAS?$AA?$AA@ 0000000180030380     libucrt:lcidtoname_downlevel.obj
 0002:00004390       ??_C@_1M@IJJHFJHA@?$AAc?$AAs?$AA?9?$AAC?$AAZ?$AA?$AA@ 0000000180030390     libucrt:lcidtoname_downlevel.obj
 0002:000043a0       ??_C@_1M@CLPEOBGI@?$AAd?$AAa?$AA?9?$AAD?$AAK?$AA?$AA@ 00000001800303a0     libucrt:lcidtoname_downlevel.obj
 0002:000043b0       ??_C@_1M@MCMADGCB@?$AAd?$AAe?$AA?9?$AAD?$AAE?$AA?$AA@ 00000001800303b0     libucrt:lcidtoname_downlevel.obj
 0002:000043c0       ??_C@_1M@OOCKEMAM@?$AAe?$AAl?$AA?9?$AAG?$AAR?$AA?$AA@ 00000001800303c0     libucrt:lcidtoname_downlevel.obj
 0002:000043d0       ??_C@_1M@DDNJFGID@?$AAf?$AAi?$AA?9?$AAF?$AAI?$AA?$AA@ 00000001800303d0     libucrt:lcidtoname_downlevel.obj
 0002:000043e0       ??_C@_1M@GLIPPMAC@?$AAf?$AAr?$AA?9?$AAF?$AAR?$AA?$AA@ 00000001800303e0     libucrt:lcidtoname_downlevel.obj
 0002:000043f0       ??_C@_1M@GFMCHPE@?$AAh?$AAe?$AA?9?$AAI?$AAL?$AA?$AA@ 00000001800303f0     libucrt:lcidtoname_downlevel.obj
 0002:00004400       ??_C@_1M@MHLPGNKM@?$AAh?$AAu?$AA?9?$AAH?$AAU?$AA?$AA@ 0000000180030400     libucrt:lcidtoname_downlevel.obj
 0002:00004410       ??_C@_1M@LPDDNNPN@?$AAi?$AAs?$AA?9?$AAI?$AAS?$AA?$AA@ 0000000180030410     libucrt:lcidtoname_downlevel.obj
 0002:00004420       ??_C@_1M@MADIPODN@?$AAi?$AAt?$AA?9?$AAI?$AAT?$AA?$AA@ 0000000180030420     libucrt:lcidtoname_downlevel.obj
 0002:00004430       ??_C@_1M@IHBJJGG@?$AAn?$AAl?$AA?9?$AAN?$AAL?$AA?$AA@ 0000000180030430     libucrt:lcidtoname_downlevel.obj
 0002:00004440       ??_C@_1M@EANAGDL@?$AAn?$AAb?$AA?9?$AAN?$AAO?$AA?$AA@ 0000000180030440     libucrt:lcidtoname_downlevel.obj
 0002:00004450       ??_C@_1M@NEIEMEGP@?$AAp?$AAl?$AA?9?$AAP?$AAL?$AA?$AA@ 0000000180030450     libucrt:lcidtoname_downlevel.obj
 0002:00004460       ??_C@_1M@BOCFIGEP@?$AAp?$AAt?$AA?9?$AAB?$AAR?$AA?$AA@ 0000000180030460     libucrt:lcidtoname_downlevel.obj
 0002:00004470       ??_C@_1M@IMPFOPBG@?$AAr?$AAo?$AA?9?$AAR?$AAO?$AA?$AA@ 0000000180030470     libucrt:lcidtoname_downlevel.obj
 0002:00004480       ??_C@_1M@IDNNEJMM@?$AAr?$AAu?$AA?9?$AAR?$AAU?$AA?$AA@ 0000000180030480     libucrt:lcidtoname_downlevel.obj
 0002:00004490       ??_C@_1M@LILEEOGM@?$AAh?$AAr?$AA?9?$AAH?$AAR?$AA?$AA@ 0000000180030490     libucrt:lcidtoname_downlevel.obj
 0002:000044a0       ??_C@_1M@FKIFEHPB@?$AAs?$AAk?$AA?9?$AAS?$AAK?$AA?$AA@ 00000001800304a0     libucrt:lcidtoname_downlevel.obj
 0002:000044b0       ??_C@_1M@LJMAMNPJ@?$AAs?$AAq?$AA?9?$AAA?$AAL?$AA?$AA@ 00000001800304b0     libucrt:lcidtoname_downlevel.obj
 0002:000044c0       ??_C@_1M@GIAKDKJK@?$AAs?$AAv?$AA?9?$AAS?$AAE?$AA?$AA@ 00000001800304c0     libucrt:lcidtoname_downlevel.obj
 0002:000044d0       ??_C@_1M@MKJKIKCL@?$AAt?$AAh?$AA?9?$AAT?$AAH?$AA?$AA@ 00000001800304d0     libucrt:lcidtoname_downlevel.obj
 0002:000044e0       ??_C@_1M@MFLCCMPB@?$AAt?$AAr?$AA?9?$AAT?$AAR?$AA?$AA@ 00000001800304e0     libucrt:lcidtoname_downlevel.obj
 0002:000044f0       ??_C@_1M@OIJHDKJN@?$AAu?$AAr?$AA?9?$AAP?$AAK?$AA?$AA@ 00000001800304f0     libucrt:lcidtoname_downlevel.obj
 0002:00004500       ??_C@_1M@LHIPCIEK@?$AAi?$AAd?$AA?9?$AAI?$AAD?$AA?$AA@ 0000000180030500     libucrt:lcidtoname_downlevel.obj
 0002:00004510       ??_C@_1M@MFMOBGI@?$AAu?$AAk?$AA?9?$AAU?$AAA?$AA?$AA@ 0000000180030510     libucrt:lcidtoname_downlevel.obj
 0002:00004520       ??_C@_1M@OBGLJIPL@?$AAb?$AAe?$AA?9?$AAB?$AAY?$AA?$AA@ 0000000180030520     libucrt:lcidtoname_downlevel.obj
 0002:00004530       ??_C@_1M@BCFAJEAD@?$AAs?$AAl?$AA?9?$AAS?$AAI?$AA?$AA@ 0000000180030530     libucrt:lcidtoname_downlevel.obj
 0002:00004540       ??_C@_1M@FKFFEDDN@?$AAe?$AAt?$AA?9?$AAE?$AAE?$AA?$AA@ 0000000180030540     libucrt:lcidtoname_downlevel.obj
 0002:00004550       ??_C@_1M@KGKKAACI@?$AAl?$AAv?$AA?9?$AAL?$AAV?$AA?$AA@ 0000000180030550     libucrt:lcidtoname_downlevel.obj
 0002:00004560       ??_C@_1M@IFGBIJO@?$AAl?$AAt?$AA?9?$AAL?$AAT?$AA?$AA@ 0000000180030560     libucrt:lcidtoname_downlevel.obj
 0002:00004570       ??_C@_1M@FGEAHEDM@?$AAf?$AAa?$AA?9?$AAI?$AAR?$AA?$AA@ 0000000180030570     libucrt:lcidtoname_downlevel.obj
 0002:00004580       ??_C@_1M@KBMAIBFN@?$AAv?$AAi?$AA?9?$AAV?$AAN?$AA?$AA@ 0000000180030580     libucrt:lcidtoname_downlevel.obj
 0002:00004590       ??_C@_1M@GPCBKDJK@?$AAh?$AAy?$AA?9?$AAA?$AAM?$AA?$AA@ 0000000180030590     libucrt:lcidtoname_downlevel.obj
 0002:000045a0       ??_C@_1BG@BECMDDJB@?$AAa?$AAz?$AA?9?$AAA?$AAZ?$AA?9?$AAL?$AAa?$AAt?$AAn?$AA?$AA@ 00000001800305a0     libucrt:lcidtoname_downlevel.obj
 0002:000045b8       ??_C@_1M@MAOFCAEA@?$AAe?$AAu?$AA?9?$AAE?$AAS?$AA?$AA@ 00000001800305b8     libucrt:lcidtoname_downlevel.obj
 0002:000045c8       ??_C@_1M@IGHABKPI@?$AAm?$AAk?$AA?9?$AAM?$AAK?$AA?$AA@ 00000001800305c8     libucrt:lcidtoname_downlevel.obj
 0002:000045d8       ??_C@_1M@IAIGNEJG@?$AAt?$AAn?$AA?9?$AAZ?$AAA?$AA?$AA@ 00000001800305d8     libucrt:lcidtoname_downlevel.obj
 0002:000045e8       ??_C@_1M@IIJCOJFA@?$AAx?$AAh?$AA?9?$AAZ?$AAA?$AA?$AA@ 00000001800305e8     libucrt:lcidtoname_downlevel.obj
 0002:000045f8       ??_C@_1M@LGPJHNJH@?$AAz?$AAu?$AA?9?$AAZ?$AAA?$AA?$AA@ 00000001800305f8     libucrt:lcidtoname_downlevel.obj
 0002:00004608       ??_C@_1M@HOKAOIO@?$AAa?$AAf?$AA?9?$AAZ?$AAA?$AA?$AA@ 0000000180030608     libucrt:lcidtoname_downlevel.obj
 0002:00004618       ??_C@_1M@DPCLHLIE@?$AAk?$AAa?$AA?9?$AAG?$AAE?$AA?$AA@ 0000000180030618     libucrt:lcidtoname_downlevel.obj
 0002:00004628       ??_C@_1M@BLKMHJBI@?$AAf?$AAo?$AA?9?$AAF?$AAO?$AA?$AA@ 0000000180030628     libucrt:lcidtoname_downlevel.obj
 0002:00004638       ??_C@_1M@LGGJAPPB@?$AAh?$AAi?$AA?9?$AAI?$AAN?$AA?$AA@ 0000000180030638     libucrt:lcidtoname_downlevel.obj
 0002:00004648       ??_C@_1M@FIKPIHFE@?$AAm?$AAt?$AA?9?$AAM?$AAT?$AA?$AA@ 0000000180030648     libucrt:lcidtoname_downlevel.obj
 0002:00004658       ??_C@_1M@HEGGPBFA@?$AAs?$AAe?$AA?9?$AAN?$AAO?$AA?$AA@ 0000000180030658     libucrt:lcidtoname_downlevel.obj
 0002:00004668       ??_C@_1M@EIBJEEPA@?$AAm?$AAs?$AA?9?$AAM?$AAY?$AA?$AA@ 0000000180030668     libucrt:lcidtoname_downlevel.obj
 0002:00004678       ??_C@_1M@FHLBGMPP@?$AAk?$AAk?$AA?9?$AAK?$AAZ?$AA?$AA@ 0000000180030678     libucrt:lcidtoname_downlevel.obj
 0002:00004688       ??_C@_1M@NGJJLCGI@?$AAk?$AAy?$AA?9?$AAK?$AAG?$AA?$AA@ 0000000180030688     libucrt:lcidtoname_downlevel.obj
 0002:00004698       ??_C@_1M@GIENNBFC@?$AAs?$AAw?$AA?9?$AAK?$AAE?$AA?$AA@ 0000000180030698     libucrt:lcidtoname_downlevel.obj
 0002:000046a8       ??_C@_1BG@NDGMJIMJ@?$AAu?$AAz?$AA?9?$AAU?$AAZ?$AA?9?$AAL?$AAa?$AAt?$AAn?$AA?$AA@ 00000001800306a8     libucrt:lcidtoname_downlevel.obj
 0002:000046c0       ??_C@_1M@IDCCIHBC@?$AAt?$AAt?$AA?9?$AAR?$AAU?$AA?$AA@ 00000001800306c0     libucrt:lcidtoname_downlevel.obj
 0002:000046d0       ??_C@_1M@LOICPMOJ@?$AAb?$AAn?$AA?9?$AAI?$AAN?$AA?$AA@ 00000001800306d0     libucrt:lcidtoname_downlevel.obj
 0002:000046e0       ??_C@_1M@KPKKNEAH@?$AAp?$AAa?$AA?9?$AAI?$AAN?$AA?$AA@ 00000001800306e0     libucrt:lcidtoname_downlevel.obj
 0002:000046f0       ??_C@_1M@PJGPPBOG@?$AAg?$AAu?$AA?9?$AAI?$AAN?$AA?$AA@ 00000001800306f0     libucrt:lcidtoname_downlevel.obj
 0002:00004700       ??_C@_1M@KMKMOPHI@?$AAt?$AAa?$AA?9?$AAI?$AAN?$AA?$AA@ 0000000180030700     libucrt:lcidtoname_downlevel.obj
 0002:00004710       ??_C@_1M@KFEHEPAC@?$AAt?$AAe?$AA?9?$AAI?$AAN?$AA?$AA@ 0000000180030710     libucrt:lcidtoname_downlevel.obj
 0002:00004720       ??_C@_1M@CDCLMGHI@?$AAk?$AAn?$AA?9?$AAI?$AAN?$AA?$AA@ 0000000180030720     libucrt:lcidtoname_downlevel.obj
 0002:00004730       ??_C@_1M@MIODLDKF@?$AAm?$AAl?$AA?9?$AAI?$AAN?$AA?$AA@ 0000000180030730     libucrt:lcidtoname_downlevel.obj
 0002:00004740       ??_C@_1M@PBIEACPO@?$AAm?$AAr?$AA?9?$AAI?$AAN?$AA?$AA@ 0000000180030740     libucrt:lcidtoname_downlevel.obj
 0002:00004750       ??_C@_1M@NIDEAGPH@?$AAs?$AAa?$AA?9?$AAI?$AAN?$AA?$AA@ 0000000180030750     libucrt:lcidtoname_downlevel.obj
 0002:00004760       ??_C@_1M@FHIHCBIO@?$AAm?$AAn?$AA?9?$AAM?$AAN?$AA?$AA@ 0000000180030760     libucrt:lcidtoname_downlevel.obj
 0002:00004770       ??_C@_1M@JAIJPENP@?$AAc?$AAy?$AA?9?$AAG?$AAB?$AA?$AA@ 0000000180030770     libucrt:lcidtoname_downlevel.obj
 0002:00004780       ??_C@_1M@PHGFBEPN@?$AAg?$AAl?$AA?9?$AAE?$AAS?$AA?$AA@ 0000000180030780     libucrt:lcidtoname_downlevel.obj
 0002:00004790       ??_C@_1O@KPIPDNCP@?$AAk?$AAo?$AAk?$AA?9?$AAI?$AAN?$AA?$AA@ 0000000180030790     libucrt:lcidtoname_downlevel.obj
 0002:000047a0       ??_C@_1O@KNHJLDJA@?$AAs?$AAy?$AAr?$AA?9?$AAS?$AAY?$AA?$AA@ 00000001800307a0     libucrt:lcidtoname_downlevel.obj
 0002:000047b0       ??_C@_1O@MKEKBLAH@?$AAd?$AAi?$AAv?$AA?9?$AAM?$AAV?$AA?$AA@ 00000001800307b0     libucrt:lcidtoname_downlevel.obj
 0002:000047c0       ??_C@_1O@OHDCKDDF@?$AAq?$AAu?$AAz?$AA?9?$AAB?$AAO?$AA?$AA@ 00000001800307c0     libucrt:lcidtoname_downlevel.obj
 0002:000047d0       ??_C@_1M@LEPJNLFD@?$AAn?$AAs?$AA?9?$AAZ?$AAA?$AA?$AA@ 00000001800307d0     libucrt:lcidtoname_downlevel.obj
 0002:000047e0       ??_C@_1M@OMLEIIJB@?$AAm?$AAi?$AA?9?$AAN?$AAZ?$AA?$AA@ 00000001800307e0     libucrt:lcidtoname_downlevel.obj
 0002:000047f0       ??_C@_1M@PMPEAILG@?$AAa?$AAr?$AA?9?$AAI?$AAQ?$AA?$AA@ 00000001800307f0     libucrt:lcidtoname_downlevel.obj
 0002:00004800       ??_C@_1M@CNKPNOEE@?$AAd?$AAe?$AA?9?$AAC?$AAH?$AA?$AA@ 0000000180030800     libucrt:lcidtoname_downlevel.obj
 0002:00004810       ??_C@_1M@LKMGMLKO@?$AAe?$AAn?$AA?9?$AAG?$AAB?$AA?$AA@ 0000000180030810     libucrt:lcidtoname_downlevel.obj
 0002:00004820       ??_C@_1M@PGKJFFGL@?$AAe?$AAs?$AA?9?$AAM?$AAX?$AA?$AA@ 0000000180030820     libucrt:lcidtoname_downlevel.obj
 0002:00004830       ??_C@_1M@DNNANBDC@?$AAf?$AAr?$AA?9?$AAB?$AAE?$AA?$AA@ 0000000180030830     libucrt:lcidtoname_downlevel.obj
 0002:00004840       ??_C@_1M@HLGMDFHM@?$AAi?$AAt?$AA?9?$AAC?$AAH?$AA?$AA@ 0000000180030840     libucrt:lcidtoname_downlevel.obj
 0002:00004850       ??_C@_1M@CLLBGJH@?$AAn?$AAl?$AA?9?$AAB?$AAE?$AA?$AA@ 0000000180030850     libucrt:lcidtoname_downlevel.obj
 0002:00004860       ??_C@_1M@BODBOGLF@?$AAn?$AAn?$AA?9?$AAN?$AAO?$AA?$AA@ 0000000180030860     libucrt:lcidtoname_downlevel.obj
 0002:00004870       ??_C@_1M@HFFAHKAD@?$AAp?$AAt?$AA?9?$AAP?$AAT?$AA?$AA@ 0000000180030870     libucrt:lcidtoname_downlevel.obj
 0002:00004880       ??_C@_1BG@LNOAKHIE@?$AAs?$AAr?$AA?9?$AAS?$AAP?$AA?9?$AAL?$AAa?$AAt?$AAn?$AA?$AA@ 0000000180030880     libucrt:lcidtoname_downlevel.obj
 0002:00004898       ??_C@_1M@HBMHBGAK@?$AAs?$AAv?$AA?9?$AAF?$AAI?$AA?$AA@ 0000000180030898     libucrt:lcidtoname_downlevel.obj
 0002:000048a8       ??_C@_1BG@DGCJGJBE@?$AAa?$AAz?$AA?9?$AAA?$AAZ?$AA?9?$AAC?$AAy?$AAr?$AAl?$AA?$AA@ 00000001800308a8     libucrt:lcidtoname_downlevel.obj
 0002:000048c0       ??_C@_1M@KEJDAAHB@?$AAs?$AAe?$AA?9?$AAS?$AAE?$AA?$AA@ 00000001800308c0     libucrt:lcidtoname_downlevel.obj
 0002:000048d0       ??_C@_1M@HEIBJJAD@?$AAm?$AAs?$AA?9?$AAB?$AAN?$AA?$AA@ 00000001800308d0     libucrt:lcidtoname_downlevel.obj
 0002:000048e0       ??_C@_1BG@PBGJMCEM@?$AAu?$AAz?$AA?9?$AAU?$AAZ?$AA?9?$AAC?$AAy?$AAr?$AAl?$AA?$AA@ 00000001800308e0     libucrt:lcidtoname_downlevel.obj
 0002:000048f8       ??_C@_1O@LAOBCMDF@?$AAq?$AAu?$AAz?$AA?9?$AAE?$AAC?$AA?$AA@ 00000001800308f8     libucrt:lcidtoname_downlevel.obj
 0002:00004908       ??_C@_1M@POEEMAIO@?$AAa?$AAr?$AA?9?$AAE?$AAG?$AA?$AA@ 0000000180030908     libucrt:lcidtoname_downlevel.obj
 0002:00004918       ??_C@_1M@EFAKDEDL@?$AAz?$AAh?$AA?9?$AAH?$AAK?$AA?$AA@ 0000000180030918     libucrt:lcidtoname_downlevel.obj
 0002:00004928       ??_C@_1M@HKKIJHGI@?$AAd?$AAe?$AA?9?$AAA?$AAT?$AA?$AA@ 0000000180030928     libucrt:lcidtoname_downlevel.obj
 0002:00004938       ??_C@_1M@KBFBEHJF@?$AAe?$AAn?$AA?9?$AAA?$AAU?$AA?$AA@ 0000000180030938     libucrt:lcidtoname_downlevel.obj
 0002:00004948       ??_C@_1M@MNPLFAAH@?$AAe?$AAs?$AA?9?$AAE?$AAS?$AA?$AA@ 0000000180030948     libucrt:lcidtoname_downlevel.obj
 0002:00004958       ??_C@_1M@HJOOJFMA@?$AAf?$AAr?$AA?9?$AAC?$AAA?$AA?$AA@ 0000000180030958     libucrt:lcidtoname_downlevel.obj
 0002:00004968       ??_C@_1BG@JPOFPNAB@?$AAs?$AAr?$AA?9?$AAS?$AAP?$AA?9?$AAC?$AAy?$AAr?$AAl?$AA?$AA@ 0000000180030968     libucrt:lcidtoname_downlevel.obj
 0002:00004980       ??_C@_1M@LNFOCMOB@?$AAs?$AAe?$AA?9?$AAF?$AAI?$AA?$AA@ 0000000180030980     libucrt:lcidtoname_downlevel.obj
 0002:00004990       ??_C@_1O@MGJBOAMB@?$AAq?$AAu?$AAz?$AA?9?$AAP?$AAE?$AA?$AA@ 0000000180030990     libucrt:lcidtoname_downlevel.obj
 0002:000049a0       ??_C@_1M@GJINLBOK@?$AAa?$AAr?$AA?9?$AAL?$AAY?$AA?$AA@ 00000001800309a0     libucrt:lcidtoname_downlevel.obj
 0002:000049b0       ??_C@_1M@GGMNHJNL@?$AAz?$AAh?$AA?9?$AAS?$AAG?$AA?$AA@ 00000001800309b0     libucrt:lcidtoname_downlevel.obj
 0002:000049c0       ??_C@_1M@HOIKODND@?$AAd?$AAe?$AA?9?$AAL?$AAU?$AA?$AA@ 00000001800309c0     libucrt:lcidtoname_downlevel.obj
 0002:000049d0       ??_C@_1M@DDOCCGFG@?$AAe?$AAn?$AA?9?$AAC?$AAA?$AA?$AA@ 00000001800309d0     libucrt:lcidtoname_downlevel.obj
 0002:000049e0       ??_C@_1M@BNOEMJLF@?$AAe?$AAs?$AA?9?$AAG?$AAT?$AA?$AA@ 00000001800309e0     libucrt:lcidtoname_downlevel.obj
 0002:000049f0       ??_C@_1M@EOGNKEK@?$AAf?$AAr?$AA?9?$AAC?$AAH?$AA?$AA@ 00000001800309f0     libucrt:lcidtoname_downlevel.obj
 0002:00004a00       ??_C@_1M@FLIDJFHL@?$AAh?$AAr?$AA?9?$AAB?$AAA?$AA?$AA@ 0000000180030a00     libucrt:lcidtoname_downlevel.obj
 0002:00004a10       ??_C@_1O@FMCELNAJ@?$AAs?$AAm?$AAj?$AA?9?$AAN?$AAO?$AA?$AA@ 0000000180030a10     libucrt:lcidtoname_downlevel.obj
 0002:00004a20       ??_C@_1M@JHGLJMGJ@?$AAa?$AAr?$AA?9?$AAD?$AAZ?$AA?$AA@ 0000000180030a20     libucrt:lcidtoname_downlevel.obj
 0002:00004a30       ??_C@_1M@JKKFDCNP@?$AAz?$AAh?$AA?9?$AAM?$AAO?$AA?$AA@ 0000000180030a30     libucrt:lcidtoname_downlevel.obj
 0002:00004a40       ??_C@_1M@GEEFALPE@?$AAd?$AAe?$AA?9?$AAL?$AAI?$AA?$AA@ 0000000180030a40     libucrt:lcidtoname_downlevel.obj
 0002:00004a50       ??_C@_1M@IGEOFBG@?$AAe?$AAn?$AA?9?$AAN?$AAZ?$AA?$AA@ 0000000180030a50     libucrt:lcidtoname_downlevel.obj
 0002:00004a60       ??_C@_1M@KDBONEHP@?$AAe?$AAs?$AA?9?$AAC?$AAR?$AA?$AA@ 0000000180030a60     libucrt:lcidtoname_downlevel.obj
 0002:00004a70       ??_C@_1M@FHMDOHNN@?$AAf?$AAr?$AA?9?$AAL?$AAU?$AA?$AA@ 0000000180030a70     libucrt:lcidtoname_downlevel.obj
 0002:00004a80       ??_C@_1BG@NFKKMAFG@?$AAb?$AAs?$AA?9?$AAB?$AAA?$AA?9?$AAL?$AAa?$AAt?$AAn?$AA?$AA@ 0000000180030a80     libucrt:lcidtoname_downlevel.obj
 0002:00004a98       ??_C@_1O@IMNBEMCI@?$AAs?$AAm?$AAj?$AA?9?$AAS?$AAE?$AA?$AA@ 0000000180030a98     libucrt:lcidtoname_downlevel.obj
 0002:00004aa8       ??_C@_1M@DHHMBNDP@?$AAa?$AAr?$AA?9?$AAM?$AAA?$AA?$AA@ 0000000180030aa8     libucrt:lcidtoname_downlevel.obj
 0002:00004ab8       ??_C@_1M@BNBLJCGH@?$AAe?$AAn?$AA?9?$AAI?$AAE?$AA?$AA@ 0000000180030ab8     libucrt:lcidtoname_downlevel.obj
 0002:00004ac8       ??_C@_1M@GEPAFMDL@?$AAe?$AAs?$AA?9?$AAP?$AAA?$AA?$AA@ 0000000180030ac8     libucrt:lcidtoname_downlevel.obj
 0002:00004ad8       ??_C@_1M@OJONDMDL@?$AAf?$AAr?$AA?9?$AAM?$AAC?$AA?$AA@ 0000000180030ad8     libucrt:lcidtoname_downlevel.obj
 0002:00004ae8       ??_C@_1BG@OBCNFJB@?$AAs?$AAr?$AA?9?$AAB?$AAA?$AA?9?$AAL?$AAa?$AAt?$AAn?$AA?$AA@ 0000000180030ae8     libucrt:lcidtoname_downlevel.obj
 0002:00004b00       ??_C@_1O@KEMEEGPO@?$AAs?$AAm?$AAa?$AA?9?$AAN?$AAO?$AA?$AA@ 0000000180030b00     libucrt:lcidtoname_downlevel.obj
 0002:00004b10       ??_C@_1M@ELMGFODK@?$AAa?$AAr?$AA?9?$AAT?$AAN?$AA?$AA@ 0000000180030b10     libucrt:lcidtoname_downlevel.obj
 0002:00004b20       ??_C@_1M@BHDLHFAF@?$AAe?$AAn?$AA?9?$AAZ?$AAA?$AA?$AA@ 0000000180030b20     libucrt:lcidtoname_downlevel.obj
 0002:00004b30       ??_C@_1M@BMGIGLIF@?$AAe?$AAs?$AA?9?$AAD?$AAO?$AA?$AA@ 0000000180030b30     libucrt:lcidtoname_downlevel.obj
 0002:00004b40       ??_C@_1BG@CMBHIPBE@?$AAs?$AAr?$AA?9?$AAB?$AAA?$AA?9?$AAC?$AAy?$AAr?$AAl?$AA?$AA@ 0000000180030b40     libucrt:lcidtoname_downlevel.obj
 0002:00004b58       ??_C@_1O@HEDBLHNP@?$AAs?$AAm?$AAa?$AA?9?$AAS?$AAE?$AA?$AA@ 0000000180030b58     libucrt:lcidtoname_downlevel.obj
 0002:00004b68       ??_C@_1M@DAGCADIM@?$AAa?$AAr?$AA?9?$AAO?$AAM?$AA?$AA@ 0000000180030b68     libucrt:lcidtoname_downlevel.obj
 0002:00004b78       ??_C@_1M@FODLMICG@?$AAe?$AAn?$AA?9?$AAJ?$AAM?$AA?$AA@ 0000000180030b78     libucrt:lcidtoname_downlevel.obj
 0002:00004b88       ??_C@_1M@DNMLCIHB@?$AAe?$AAs?$AA?9?$AAV?$AAE?$AA?$AA@ 0000000180030b88     libucrt:lcidtoname_downlevel.obj
 0002:00004b98       ??_C@_1O@EOKHMKJK@?$AAs?$AAm?$AAs?$AA?9?$AAF?$AAI?$AA?$AA@ 0000000180030b98     libucrt:lcidtoname_downlevel.obj
 0002:00004ba8       ??_C@_1M@CAFJMKOF@?$AAa?$AAr?$AA?9?$AAY?$AAE?$AA?$AA@ 0000000180030ba8     libucrt:lcidtoname_downlevel.obj
 0002:00004bb8       ??_C@_1M@CBFHIJLI@?$AAe?$AAn?$AA?9?$AAC?$AAB?$AA?$AA@ 0000000180030bb8     libucrt:lcidtoname_downlevel.obj
 0002:00004bc8       ??_C@_1M@BGNFLDN@?$AAe?$AAs?$AA?9?$AAC?$AAO?$AA?$AA@ 0000000180030bc8     libucrt:lcidtoname_downlevel.obj
 0002:00004bd8       ??_C@_1O@JMPHMAMC@?$AAs?$AAm?$AAn?$AA?9?$AAF?$AAI?$AA?$AA@ 0000000180030bd8     libucrt:lcidtoname_downlevel.obj
 0002:00004be8       ??_C@_1M@JLANABKE@?$AAa?$AAr?$AA?9?$AAS?$AAY?$AA?$AA@ 0000000180030be8     libucrt:lcidtoname_downlevel.obj
 0002:00004bf8       ??_C@_1M@HPKGCFGN@?$AAe?$AAn?$AA?9?$AAB?$AAZ?$AA?$AA@ 0000000180030bf8     libucrt:lcidtoname_downlevel.obj
 0002:00004c08       ??_C@_1M@OLJCMLGM@?$AAe?$AAs?$AA?9?$AAP?$AAE?$AA?$AA@ 0000000180030c08     libucrt:lcidtoname_downlevel.obj
 0002:00004c18       ??_C@_1M@MKKGFKLE@?$AAa?$AAr?$AA?9?$AAJ?$AAO?$AA?$AA@ 0000000180030c18     libucrt:lcidtoname_downlevel.obj
 0002:00004c28       ??_C@_1M@EKPGLDNI@?$AAe?$AAn?$AA?9?$AAT?$AAT?$AA?$AA@ 0000000180030c28     libucrt:lcidtoname_downlevel.obj
 0002:00004c38       ??_C@_1M@OONGHFHE@?$AAe?$AAs?$AA?9?$AAA?$AAR?$AA?$AA@ 0000000180030c38     libucrt:lcidtoname_downlevel.obj
 0002:00004c48       ??_C@_1M@OOJFGBHE@?$AAa?$AAr?$AA?9?$AAL?$AAB?$AA?$AA@ 0000000180030c48     libucrt:lcidtoname_downlevel.obj
 0002:00004c58       ??_C@_1M@GCEJHNEG@?$AAe?$AAn?$AA?9?$AAZ?$AAW?$AA?$AA@ 0000000180030c58     libucrt:lcidtoname_downlevel.obj
 0002:00004c68       ??_C@_1M@JNOCAHJI@?$AAe?$AAs?$AA?9?$AAE?$AAC?$AA?$AA@ 0000000180030c68     libucrt:lcidtoname_downlevel.obj
 0002:00004c78       ??_C@_1M@JEFHPGGB@?$AAa?$AAr?$AA?9?$AAK?$AAW?$AA?$AA@ 0000000180030c78     libucrt:lcidtoname_downlevel.obj
 0002:00004c88       ??_C@_1M@MLKIBJOJ@?$AAe?$AAn?$AA?9?$AAP?$AAH?$AA?$AA@ 0000000180030c88     libucrt:lcidtoname_downlevel.obj
 0002:00004c98       ??_C@_1M@BDNIPEND@?$AAe?$AAs?$AA?9?$AAC?$AAL?$AA?$AA@ 0000000180030c98     libucrt:lcidtoname_downlevel.obj
 0002:00004ca8       ??_C@_1M@MPNMEKBD@?$AAa?$AAr?$AA?9?$AAA?$AAE?$AA?$AA@ 0000000180030ca8     libucrt:lcidtoname_downlevel.obj
 0002:00004cb8       ??_C@_1M@KBJALCPI@?$AAe?$AAs?$AA?9?$AAU?$AAY?$AA?$AA@ 0000000180030cb8     libucrt:lcidtoname_downlevel.obj
 0002:00004cc8       ??_C@_1M@LLCCOAGA@?$AAa?$AAr?$AA?9?$AAB?$AAH?$AA?$AA@ 0000000180030cc8     libucrt:lcidtoname_downlevel.obj
 0002:00004cd8       ??_C@_1M@PBFNCDEL@?$AAe?$AAs?$AA?9?$AAP?$AAY?$AA?$AA@ 0000000180030cd8     libucrt:lcidtoname_downlevel.obj
 0002:00004ce8       ??_C@_1M@EDGINPNP@?$AAa?$AAr?$AA?9?$AAQ?$AAA?$AA?$AA@ 0000000180030ce8     libucrt:lcidtoname_downlevel.obj
 0002:00004cf8       ??_C@_1M@MKDBIIJI@?$AAe?$AAs?$AA?9?$AAB?$AAO?$AA?$AA@ 0000000180030cf8     libucrt:lcidtoname_downlevel.obj
 0002:00004d08       ??_C@_1M@CPKKEBLD@?$AAe?$AAs?$AA?9?$AAS?$AAV?$AA?$AA@ 0000000180030d08     libucrt:lcidtoname_downlevel.obj
 0002:00004d18       ??_C@_1M@NDBGMMJL@?$AAe?$AAs?$AA?9?$AAH?$AAN?$AA?$AA@ 0000000180030d18     libucrt:lcidtoname_downlevel.obj
 0002:00004d28       ??_C@_1M@JIJIBHDP@?$AAe?$AAs?$AA?9?$AAN?$AAI?$AA?$AA@ 0000000180030d28     libucrt:lcidtoname_downlevel.obj
 0002:00004d38       ??_C@_1M@CGFMKEEK@?$AAe?$AAs?$AA?9?$AAP?$AAR?$AA?$AA@ 0000000180030d38     libucrt:lcidtoname_downlevel.obj
 0002:00004d48       ??_C@_1O@ICJHKIIK@?$AAz?$AAh?$AA?9?$AAC?$AAH?$AAT?$AA?$AA@ 0000000180030d48     libucrt:lcidtoname_downlevel.obj
 0002:00004d58       ??_C@_15CLNEJCE@?$AAs?$AAr?$AA?$AA@ 0000000180030d58     libucrt:lcidtoname_downlevel.obj
 0002:00005ba0       ??_C@_1M@KAHEKEIG@?$AAa?$AAf?$AA?9?$AAz?$AAa?$AA?$AA@ 0000000180031ba0     libucrt:lcidtoname_downlevel.obj
 0002:00005bb0       ??_C@_1M@GIECOABL@?$AAa?$AAr?$AA?9?$AAa?$AAe?$AA?$AA@ 0000000180031bb0     libucrt:lcidtoname_downlevel.obj
 0002:00005bc0       ??_C@_1M@BMLMEKGI@?$AAa?$AAr?$AA?9?$AAb?$AAh?$AA?$AA@ 0000000180031bc0     libucrt:lcidtoname_downlevel.obj
 0002:00005bd0       ??_C@_1M@DAPFDGGB@?$AAa?$AAr?$AA?9?$AAd?$AAz?$AA?$AA@ 0000000180031bd0     libucrt:lcidtoname_downlevel.obj
 0002:00005be0       ??_C@_1M@FJNKGKIG@?$AAa?$AAr?$AA?9?$AAe?$AAg?$AA?$AA@ 0000000180031be0     libucrt:lcidtoname_downlevel.obj
 0002:00005bf0       ??_C@_1M@FLGKKCLO@?$AAa?$AAr?$AA?9?$AAi?$AAq?$AA?$AA@ 0000000180031bf0     libucrt:lcidtoname_downlevel.obj
 0002:00005c00       ??_C@_1M@GNDIPALM@?$AAa?$AAr?$AA?9?$AAj?$AAo?$AA?$AA@ 0000000180031c00     libucrt:lcidtoname_downlevel.obj
 0002:00005c10       ??_C@_1M@DDMJFMGJ@?$AAa?$AAr?$AA?9?$AAk?$AAw?$AA?$AA@ 0000000180031c10     libucrt:lcidtoname_downlevel.obj
 0002:00005c20       ??_C@_1M@EJALMLHM@?$AAa?$AAr?$AA?9?$AAl?$AAb?$AA?$AA@ 0000000180031c20     libucrt:lcidtoname_downlevel.obj
 0002:00005c30       ??_C@_1M@MOBDBLOC@?$AAa?$AAr?$AA?9?$AAl?$AAy?$AA?$AA@ 0000000180031c30     libucrt:lcidtoname_downlevel.obj
 0002:00005c40       ??_C@_1M@JAOCLHDH@?$AAa?$AAr?$AA?9?$AAm?$AAa?$AA?$AA@ 0000000180031c40     libucrt:lcidtoname_downlevel.obj
 0002:00005c50       ??_C@_1M@JHPMKJIE@?$AAa?$AAr?$AA?9?$AAo?$AAm?$AA?$AA@ 0000000180031c50     libucrt:lcidtoname_downlevel.obj
 0002:00005c60       ??_C@_1M@OEPGHFNH@?$AAa?$AAr?$AA?9?$AAq?$AAa?$AA?$AA@ 0000000180031c60     libucrt:lcidtoname_downlevel.obj
 0002:00005c70       ??_C@_1M@KJDONENM@?$AAa?$AAr?$AA?9?$AAs?$AAa?$AA?$AA@ 0000000180031c70     libucrt:lcidtoname_downlevel.obj
 0002:00005c80       ??_C@_1M@DMJDKLKM@?$AAa?$AAr?$AA?9?$AAs?$AAy?$AA?$AA@ 0000000180031c80     libucrt:lcidtoname_downlevel.obj
 0002:00005c90       ??_C@_1M@OMFIPEDC@?$AAa?$AAr?$AA?9?$AAt?$AAn?$AA?$AA@ 0000000180031c90     libucrt:lcidtoname_downlevel.obj
 0002:00005ca0       ??_C@_1M@IHMHGAON@?$AAa?$AAr?$AA?9?$AAy?$AAe?$AA?$AA@ 0000000180031ca0     libucrt:lcidtoname_downlevel.obj
 0002:00005cb0       ??_C@_1BG@KDCPGJGB@?$AAa?$AAz?$AA?9?$AAa?$AAz?$AA?9?$AAc?$AAy?$AAr?$AAl?$AA?$AA@ 0000000180031cb0     libucrt:lcidtoname_downlevel.obj
 0002:00005cc8       ??_C@_1BG@IBCKDDOE@?$AAa?$AAz?$AA?9?$AAa?$AAz?$AA?9?$AAl?$AAa?$AAt?$AAn?$AA?$AA@ 0000000180031cc8     libucrt:lcidtoname_downlevel.obj
 0002:00005ce0       ??_C@_1M@EGPFDCPD@?$AAb?$AAe?$AA?9?$AAb?$AAy?$AA?$AA@ 0000000180031ce0     libucrt:lcidtoname_downlevel.obj
 0002:00005cf0       ??_C@_1M@PCMGMCGC@?$AAb?$AAg?$AA?9?$AAb?$AAg?$AA?$AA@ 0000000180031cf0     libucrt:lcidtoname_downlevel.obj
 0002:00005d00       ??_C@_1M@BJBMFGOB@?$AAb?$AAn?$AA?9?$AAi?$AAn?$AA?$AA@ 0000000180031d00     libucrt:lcidtoname_downlevel.obj
 0002:00005d10       ??_C@_1BG@EAKMMACD@?$AAb?$AAs?$AA?9?$AAb?$AAa?$AA?9?$AAl?$AAa?$AAt?$AAn?$AA?$AA@ 0000000180031d10     libucrt:lcidtoname_downlevel.obj
 0002:00005d28       ??_C@_1M@KGADAODK@?$AAc?$AAa?$AA?9?$AAe?$AAs?$AA?$AA@ 0000000180031d28     libucrt:lcidtoname_downlevel.obj
 0002:00005d38       ??_C@_1M@COAJPDHI@?$AAc?$AAs?$AA?9?$AAc?$AAz?$AA?$AA@ 0000000180031d38     libucrt:lcidtoname_downlevel.obj
 0002:00005d48       ??_C@_1M@DHBHFONH@?$AAc?$AAy?$AA?9?$AAg?$AAb?$AA?$AA@ 0000000180031d48     libucrt:lcidtoname_downlevel.obj
 0002:00005d58       ??_C@_1M@IMGKELGA@?$AAd?$AAa?$AA?9?$AAd?$AAk?$AA?$AA@ 0000000180031d58     libucrt:lcidtoname_downlevel.obj
 0002:00005d68       ??_C@_1M@NNDGDNGA@?$AAd?$AAe?$AA?9?$AAa?$AAt?$AA?$AA@ 0000000180031d68     libucrt:lcidtoname_downlevel.obj
 0002:00005d78       ??_C@_1M@IKDBHEEM@?$AAd?$AAe?$AA?9?$AAc?$AAh?$AA?$AA@ 0000000180031d78     libucrt:lcidtoname_downlevel.obj
 0002:00005d88       ??_C@_1M@GFFOJMCJ@?$AAd?$AAe?$AA?9?$AAd?$AAe?$AA?$AA@ 0000000180031d88     libucrt:lcidtoname_downlevel.obj
 0002:00005d98       ??_C@_1M@MDNLKBPM@?$AAd?$AAe?$AA?9?$AAl?$AAi?$AA?$AA@ 0000000180031d98     libucrt:lcidtoname_downlevel.obj
 0002:00005da8       ??_C@_1M@NJBEEJNL@?$AAd?$AAe?$AA?9?$AAl?$AAu?$AA?$AA@ 0000000180031da8     libucrt:lcidtoname_downlevel.obj
 0002:00005db8       ??_C@_1O@GNNELBAP@?$AAd?$AAi?$AAv?$AA?9?$AAm?$AAv?$AA?$AA@ 0000000180031db8     libucrt:lcidtoname_downlevel.obj
 0002:00005dc8       ??_C@_1M@EJLEOGAE@?$AAe?$AAl?$AA?9?$AAg?$AAr?$AA?$AA@ 0000000180031dc8     libucrt:lcidtoname_downlevel.obj
 0002:00005dd8       ??_C@_1M@GMPONJN@?$AAe?$AAn?$AA?9?$AAa?$AAu?$AA?$AA@ 0000000180031dd8     libucrt:lcidtoname_downlevel.obj
 0002:00005de8       ??_C@_1M@NIDIIPGF@?$AAe?$AAn?$AA?9?$AAb?$AAz?$AA?$AA@ 0000000180031de8     libucrt:lcidtoname_downlevel.obj
 0002:00005df8       ??_C@_1M@JEHMIMFO@?$AAe?$AAn?$AA?9?$AAc?$AAa?$AA?$AA@ 0000000180031df8     libucrt:lcidtoname_downlevel.obj
 0002:00005e08       ??_C@_1M@IGMJCDLA@?$AAe?$AAn?$AA?9?$AAc?$AAb?$AA?$AA@ 0000000180031e08     libucrt:lcidtoname_downlevel.obj
 0002:00005e18       ??_C@_1M@BNFIGBKG@?$AAe?$AAn?$AA?9?$AAg?$AAb?$AA?$AA@ 0000000180031e18     libucrt:lcidtoname_downlevel.obj
 0002:00005e28       ??_C@_1M@LKIFDIGP@?$AAe?$AAn?$AA?9?$AAi?$AAe?$AA?$AA@ 0000000180031e28     libucrt:lcidtoname_downlevel.obj
 0002:00005e38       ??_C@_1M@PJKFGCCO@?$AAe?$AAn?$AA?9?$AAj?$AAm?$AA?$AA@ 0000000180031e38     libucrt:lcidtoname_downlevel.obj
 0002:00005e48       ??_C@_1M@KPPKEPBO@?$AAe?$AAn?$AA?9?$AAn?$AAz?$AA?$AA@ 0000000180031e48     libucrt:lcidtoname_downlevel.obj
 0002:00005e58       ??_C@_1M@GMDGLDOB@?$AAe?$AAn?$AA?9?$AAp?$AAh?$AA?$AA@ 0000000180031e58     libucrt:lcidtoname_downlevel.obj
 0002:00005e68       ??_C@_1M@ONGIBJNA@?$AAe?$AAn?$AA?9?$AAt?$AAt?$AA?$AA@ 0000000180031e68     libucrt:lcidtoname_downlevel.obj
 0002:00005e78       ??_C@_1M@LLODPCMM@?$AAe?$AAn?$AA?9?$AAu?$AAs?$AA?$AA@ 0000000180031e78     libucrt:lcidtoname_downlevel.obj
 0002:00005e88       ??_C@_1M@LAKFNPAN@?$AAe?$AAn?$AA?9?$AAz?$AAa?$AA?$AA@ 0000000180031e88     libucrt:lcidtoname_downlevel.obj
 0002:00005e98       ??_C@_1M@MFNHNHEO@?$AAe?$AAn?$AA?9?$AAz?$AAw?$AA?$AA@ 0000000180031e98     libucrt:lcidtoname_downlevel.obj
 0002:00005ea8       ??_C@_1M@EJEINPHM@?$AAe?$AAs?$AA?9?$AAa?$AAr?$AA?$AA@ 0000000180031ea8     libucrt:lcidtoname_downlevel.obj
 0002:00005eb8       ??_C@_1M@GNKPCCJA@?$AAe?$AAs?$AA?9?$AAb?$AAo?$AA?$AA@ 0000000180031eb8     libucrt:lcidtoname_downlevel.obj
 0002:00005ec8       ??_C@_1M@LEEGFONL@?$AAe?$AAs?$AA?9?$AAc?$AAl?$AA?$AA@ 0000000180031ec8     libucrt:lcidtoname_downlevel.obj
 0002:00005ed8       ??_C@_1M@KGPDPBDF@?$AAe?$AAs?$AA?9?$AAc?$AAo?$AA?$AA@ 0000000180031ed8     libucrt:lcidtoname_downlevel.obj
 0002:00005ee8       ??_C@_1M@EIAHOHH@?$AAe?$AAs?$AA?9?$AAc?$AAr?$AA?$AA@ 0000000180031ee8     libucrt:lcidtoname_downlevel.obj
 0002:00005ef8       ??_C@_1M@LLPGMBIN@?$AAe?$AAs?$AA?9?$AAd?$AAo?$AA?$AA@ 0000000180031ef8     libucrt:lcidtoname_downlevel.obj
 0002:00005f08       ??_C@_1M@DKHMKNJA@?$AAe?$AAs?$AA?9?$AAe?$AAc?$AA?$AA@ 0000000180031f08     libucrt:lcidtoname_downlevel.obj
 0002:00005f18       ??_C@_1M@GKGFPKAP@?$AAe?$AAs?$AA?9?$AAe?$AAs?$AA?$AA@ 0000000180031f18     libucrt:lcidtoname_downlevel.obj
 0002:00005f28       ??_C@_1M@LKHKGDLN@?$AAe?$AAs?$AA?9?$AAg?$AAt?$AA?$AA@ 0000000180031f28     libucrt:lcidtoname_downlevel.obj
 0002:00005f38       ??_C@_1M@HEIIGGJD@?$AAe?$AAs?$AA?9?$AAh?$AAn?$AA?$AA@ 0000000180031f38     libucrt:lcidtoname_downlevel.obj
 0002:00005f48       ??_C@_1M@FBDHPPGD@?$AAe?$AAs?$AA?9?$AAm?$AAx?$AA?$AA@ 0000000180031f48     libucrt:lcidtoname_downlevel.obj
 0002:00005f58       ??_C@_1M@DPAGLNDH@?$AAe?$AAs?$AA?9?$AAn?$AAi?$AA?$AA@ 0000000180031f58     libucrt:lcidtoname_downlevel.obj
 0002:00005f68       ??_C@_1M@MDGOPGDD@?$AAe?$AAs?$AA?9?$AAp?$AAa?$AA?$AA@ 0000000180031f68     libucrt:lcidtoname_downlevel.obj
 0002:00005f78       ??_C@_1M@EMAMGBGE@?$AAe?$AAs?$AA?9?$AAp?$AAe?$AA?$AA@ 0000000180031f78     libucrt:lcidtoname_downlevel.obj
 0002:00005f88       ??_C@_1M@IBMCAOEC@?$AAe?$AAs?$AA?9?$AAp?$AAr?$AA?$AA@ 0000000180031f88     libucrt:lcidtoname_downlevel.obj
 0002:00005f98       ??_C@_1M@FGMDIJED@?$AAe?$AAs?$AA?9?$AAp?$AAy?$AA?$AA@ 0000000180031f98     libucrt:lcidtoname_downlevel.obj
 0002:00005fa8       ??_C@_1M@IIDEOLLL@?$AAe?$AAs?$AA?9?$AAs?$AAv?$AA?$AA@ 0000000180031fa8     libucrt:lcidtoname_downlevel.obj
 0002:00005fb8       ??_C@_1M@GAOBIPA@?$AAe?$AAs?$AA?9?$AAu?$AAy?$AA?$AA@ 0000000180031fb8     libucrt:lcidtoname_downlevel.obj
 0002:00005fc8       ??_C@_1M@JKFFICHJ@?$AAe?$AAs?$AA?9?$AAv?$AAe?$AA?$AA@ 0000000180031fc8     libucrt:lcidtoname_downlevel.obj
 0002:00005fd8       ??_C@_1M@PNMLOJDF@?$AAe?$AAt?$AA?9?$AAe?$AAe?$AA?$AA@ 0000000180031fd8     libucrt:lcidtoname_downlevel.obj
 0002:00005fe8       ??_C@_1M@GHHLIKEI@?$AAe?$AAu?$AA?9?$AAe?$AAs?$AA?$AA@ 0000000180031fe8     libucrt:lcidtoname_downlevel.obj
 0002:00005ff8       ??_C@_1M@PBNONODE@?$AAf?$AAa?$AA?9?$AAi?$AAr?$AA?$AA@ 0000000180031ff8     libucrt:lcidtoname_downlevel.obj
 0002:00006008       ??_C@_1M@JEEHPMIL@?$AAf?$AAi?$AA?9?$AAf?$AAi?$AA?$AA@ 0000000180032008     libucrt:lcidtoname_downlevel.obj
 0002:00006018       ??_C@_1M@LMDCNDBA@?$AAf?$AAo?$AA?9?$AAf?$AAo?$AA?$AA@ 0000000180032018     libucrt:lcidtoname_downlevel.obj
 0002:00006028       ??_C@_1M@JKEOHLDK@?$AAf?$AAr?$AA?9?$AAb?$AAe?$AA?$AA@ 0000000180032028     libucrt:lcidtoname_downlevel.obj
 0002:00006038       ??_C@_1M@NOHADPMI@?$AAf?$AAr?$AA?9?$AAc?$AAa?$AA?$AA@ 0000000180032038     libucrt:lcidtoname_downlevel.obj
 0002:00006048       ??_C@_1M@KDHIHAEC@?$AAf?$AAr?$AA?9?$AAc?$AAh?$AA?$AA@ 0000000180032048     libucrt:lcidtoname_downlevel.obj
 0002:00006058       ??_C@_1M@MMBBFGAK@?$AAf?$AAr?$AA?9?$AAf?$AAr?$AA?$AA@ 0000000180032058     libucrt:lcidtoname_downlevel.obj
 0002:00006068       ??_C@_1M@PAFNENNF@?$AAf?$AAr?$AA?9?$AAl?$AAu?$AA?$AA@ 0000000180032068     libucrt:lcidtoname_downlevel.obj
 0002:00006078       ??_C@_1M@EOHDJGDD@?$AAf?$AAr?$AA?9?$AAm?$AAc?$AA?$AA@ 0000000180032078     libucrt:lcidtoname_downlevel.obj
 0002:00006088       ??_C@_1M@FAPLLOPF@?$AAg?$AAl?$AA?9?$AAe?$AAs?$AA?$AA@ 0000000180032088     libucrt:lcidtoname_downlevel.obj
 0002:00006098       ??_C@_1M@FOPBFLOO@?$AAg?$AAu?$AA?9?$AAi?$AAn?$AA?$AA@ 0000000180032098     libucrt:lcidtoname_downlevel.obj
 0002:000060a8       ??_C@_1M@KBMCINPM@?$AAh?$AAe?$AA?9?$AAi?$AAl?$AA?$AA@ 00000001800320a8     libucrt:lcidtoname_downlevel.obj
 0002:000060b8       ??_C@_1M@BBPHKFPJ@?$AAh?$AAi?$AA?9?$AAi?$AAn?$AA?$AA@ 00000001800320b8     libucrt:lcidtoname_downlevel.obj
 0002:000060c8       ??_C@_1M@PMBNDPHD@?$AAh?$AAr?$AA?9?$AAb?$AAa?$AA?$AA@ 00000001800320c8     libucrt:lcidtoname_downlevel.obj
 0002:000060d8       ??_C@_1M@BPCKOEGE@?$AAh?$AAr?$AA?9?$AAh?$AAr?$AA?$AA@ 00000001800320d8     libucrt:lcidtoname_downlevel.obj
 0002:000060e8       ??_C@_1M@GACBMHKE@?$AAh?$AAu?$AA?9?$AAh?$AAu?$AA?$AA@ 00000001800320e8     libucrt:lcidtoname_downlevel.obj
 0002:000060f8       ??_C@_1M@MILPAJJC@?$AAh?$AAy?$AA?9?$AAa?$AAm?$AA?$AA@ 00000001800320f8     libucrt:lcidtoname_downlevel.obj
 0002:00006108       ??_C@_1M@BABBICEC@?$AAi?$AAd?$AA?9?$AAi?$AAd?$AA?$AA@ 0000000180032108     libucrt:lcidtoname_downlevel.obj
 0002:00006118       ??_C@_1M@BIKNHHPF@?$AAi?$AAs?$AA?9?$AAi?$AAs?$AA?$AA@ 0000000180032118     libucrt:lcidtoname_downlevel.obj
 0002:00006128       ??_C@_1M@NMPCJPHE@?$AAi?$AAt?$AA?9?$AAc?$AAh?$AA?$AA@ 0000000180032128     libucrt:lcidtoname_downlevel.obj
 0002:00006138       ??_C@_1M@GHKGFEDF@?$AAi?$AAt?$AA?9?$AAi?$AAt?$AA?$AA@ 0000000180032138     libucrt:lcidtoname_downlevel.obj
 0002:00006148       ??_C@_1M@NIEJCJJA@?$AAj?$AAa?$AA?9?$AAj?$AAp?$AA?$AA@ 0000000180032148     libucrt:lcidtoname_downlevel.obj
 0002:00006158       ??_C@_1M@JILFNBIM@?$AAk?$AAa?$AA?9?$AAg?$AAe?$AA?$AA@ 0000000180032158     libucrt:lcidtoname_downlevel.obj
 0002:00006168       ??_C@_1M@PACPMGPH@?$AAk?$AAk?$AA?9?$AAk?$AAz?$AA?$AA@ 0000000180032168     libucrt:lcidtoname_downlevel.obj
 0002:00006178       ??_C@_1M@IELFGMHA@?$AAk?$AAn?$AA?9?$AAi?$AAn?$AA?$AA@ 0000000180032178     libucrt:lcidtoname_downlevel.obj
 0002:00006188       ??_C@_1O@IBBJHCH@?$AAk?$AAo?$AAk?$AA?9?$AAi?$AAn?$AA?$AA@ 0000000180032188     libucrt:lcidtoname_downlevel.obj
 0002:00006198       ??_C@_1M@DMHAEOGC@?$AAk?$AAo?$AA?9?$AAk?$AAr?$AA?$AA@ 0000000180032198     libucrt:lcidtoname_downlevel.obj
 0002:000061a8       ??_C@_1M@HBAHBIGA@?$AAk?$AAy?$AA?9?$AAk?$AAg?$AA?$AA@ 00000001800321a8     libucrt:lcidtoname_downlevel.obj
 0002:000061b8       ??_C@_1M@KPMILCJG@?$AAl?$AAt?$AA?9?$AAl?$AAt?$AA?$AA@ 00000001800321b8     libucrt:lcidtoname_downlevel.obj
 0002:000061c8       ??_C@_1M@BDEKKCA@?$AAl?$AAv?$AA?9?$AAl?$AAv?$AA?$AA@ 00000001800321c8     libucrt:lcidtoname_downlevel.obj
 0002:000061d8       ??_C@_1M@ELCKCCJJ@?$AAm?$AAi?$AA?9?$AAn?$AAz?$AA?$AA@ 00000001800321d8     libucrt:lcidtoname_downlevel.obj
 0002:000061e8       ??_C@_1M@CBOOLAPA@?$AAm?$AAk?$AA?9?$AAm?$AAk?$AA?$AA@ 00000001800321e8     libucrt:lcidtoname_downlevel.obj
 0002:000061f8       ??_C@_1M@GPHNBJKN@?$AAm?$AAl?$AA?9?$AAi?$AAn?$AA?$AA@ 00000001800321f8     libucrt:lcidtoname_downlevel.obj
 0002:00006208       ??_C@_1M@PABJILIG@?$AAm?$AAn?$AA?9?$AAm?$AAn?$AA?$AA@ 0000000180032208     libucrt:lcidtoname_downlevel.obj
 0002:00006218       ??_C@_1M@FGBKKIPG@?$AAm?$AAr?$AA?9?$AAi?$AAn?$AA?$AA@ 0000000180032218     libucrt:lcidtoname_downlevel.obj
 0002:00006228       ??_C@_1M@NDBPDDAL@?$AAm?$AAs?$AA?9?$AAb?$AAn?$AA?$AA@ 0000000180032228     libucrt:lcidtoname_downlevel.obj
 0002:00006238       ??_C@_1M@OPIHOOPI@?$AAm?$AAs?$AA?9?$AAm?$AAy?$AA?$AA@ 0000000180032238     libucrt:lcidtoname_downlevel.obj
 0002:00006248       ??_C@_1M@PPDBCNFM@?$AAm?$AAt?$AA?9?$AAm?$AAt?$AA?$AA@ 0000000180032248     libucrt:lcidtoname_downlevel.obj
 0002:00006258       ??_C@_1M@KDJDKMDD@?$AAn?$AAb?$AA?9?$AAn?$AAo?$AA?$AA@ 0000000180032258     libucrt:lcidtoname_downlevel.obj
 0002:00006268       ??_C@_1M@KFCFLMJP@?$AAn?$AAl?$AA?9?$AAb?$AAe?$AA?$AA@ 0000000180032268     libucrt:lcidtoname_downlevel.obj
 0002:00006278       ??_C@_1M@KPOPDDGO@?$AAn?$AAl?$AA?9?$AAn?$AAl?$AA?$AA@ 0000000180032278     libucrt:lcidtoname_downlevel.obj
 0002:00006288       ??_C@_1M@LJKPEMLN@?$AAn?$AAn?$AA?9?$AAn?$AAo?$AA?$AA@ 0000000180032288     libucrt:lcidtoname_downlevel.obj
 0002:00006298       ??_C@_1M@BDGHHBFL@?$AAn?$AAs?$AA?9?$AAz?$AAa?$AA?$AA@ 0000000180032298     libucrt:lcidtoname_downlevel.obj
 0002:000062a8       ??_C@_1M@IDEHOAP@?$AAp?$AAa?$AA?9?$AAi?$AAn?$AA?$AA@ 00000001800322a8     libucrt:lcidtoname_downlevel.obj
 0002:000062b8       ??_C@_1M@HDBKGOGH@?$AAp?$AAl?$AA?9?$AAp?$AAl?$AA?$AA@ 00000001800322b8     libucrt:lcidtoname_downlevel.obj
 0002:000062c8       ??_C@_1M@LJLLCMEH@?$AAp?$AAt?$AA?9?$AAb?$AAr?$AA?$AA@ 00000001800322c8     libucrt:lcidtoname_downlevel.obj
 0002:000062d8       ??_C@_1M@NCMONAAL@?$AAp?$AAt?$AA?9?$AAp?$AAt?$AA?$AA@ 00000001800322d8     libucrt:lcidtoname_downlevel.obj
 0002:000062e8       ??_C@_1O@EAKMAJDN@?$AAq?$AAu?$AAz?$AA?9?$AAb?$AAo?$AA?$AA@ 00000001800322e8     libucrt:lcidtoname_downlevel.obj
 0002:000062f8       ??_C@_1O@BHHPIGDN@?$AAq?$AAu?$AAz?$AA?9?$AAe?$AAc?$AA?$AA@ 00000001800322f8     libucrt:lcidtoname_downlevel.obj
 0002:00006308       ??_C@_1O@GBAPEKMJ@?$AAq?$AAu?$AAz?$AA?9?$AAp?$AAe?$AA?$AA@ 0000000180032308     libucrt:lcidtoname_downlevel.obj
 0002:00006318       ??_C@_1M@CLGLEFBO@?$AAr?$AAo?$AA?9?$AAr?$AAo?$AA?$AA@ 0000000180032318     libucrt:lcidtoname_downlevel.obj
 0002:00006328       ??_C@_1M@CEEDODME@?$AAr?$AAu?$AA?9?$AAr?$AAu?$AA?$AA@ 0000000180032328     libucrt:lcidtoname_downlevel.obj
 0002:00006338       ??_C@_1M@HPKKKMPP@?$AAs?$AAa?$AA?9?$AAi?$AAn?$AA?$AA@ 0000000180032338     libucrt:lcidtoname_downlevel.obj
 0002:00006348       ??_C@_1M@BKMAIGOJ@?$AAs?$AAe?$AA?9?$AAf?$AAi?$AA?$AA@ 0000000180032348     libucrt:lcidtoname_downlevel.obj
 0002:00006358       ??_C@_1M@NDPIFLFI@?$AAs?$AAe?$AA?9?$AAn?$AAo?$AA?$AA@ 0000000180032358     libucrt:lcidtoname_downlevel.obj
 0002:00006368       ??_C@_1M@DANKKHJ@?$AAs?$AAe?$AA?9?$AAs?$AAe?$AA?$AA@ 0000000180032368     libucrt:lcidtoname_downlevel.obj
 0002:00006378       ??_C@_1M@PNBLONPJ@?$AAs?$AAk?$AA?9?$AAs?$AAk?$AA?$AA@ 0000000180032378     libucrt:lcidtoname_downlevel.obj
 0002:00006388       ??_C@_1M@LFMODOAL@?$AAs?$AAl?$AA?9?$AAs?$AAi?$AA?$AA@ 0000000180032388     libucrt:lcidtoname_downlevel.obj
 0002:00006398       ??_C@_1O@DFKOMPG@?$AAs?$AAm?$AAa?$AA?9?$AAn?$AAo?$AA?$AA@ 0000000180032398     libucrt:lcidtoname_downlevel.obj
 0002:000063a8       ??_C@_1O@NDKPBNNH@?$AAs?$AAm?$AAa?$AA?9?$AAs?$AAe?$AA?$AA@ 00000001800323a8     libucrt:lcidtoname_downlevel.obj
 0002:000063b8       ??_C@_1O@PLLKBHAB@?$AAs?$AAm?$AAj?$AA?9?$AAn?$AAo?$AA?$AA@ 00000001800323b8     libucrt:lcidtoname_downlevel.obj
 0002:000063c8       ??_C@_1O@CLEPOGCA@?$AAs?$AAm?$AAj?$AA?9?$AAs?$AAe?$AA?$AA@ 00000001800323c8     libucrt:lcidtoname_downlevel.obj
 0002:000063d8       ??_C@_1O@DLGJGKMK@?$AAs?$AAm?$AAn?$AA?9?$AAf?$AAi?$AA?$AA@ 00000001800323d8     libucrt:lcidtoname_downlevel.obj
 0002:000063e8       ??_C@_1O@OJDJGAJC@?$AAs?$AAm?$AAs?$AA?9?$AAf?$AAi?$AA?$AA@ 00000001800323e8     libucrt:lcidtoname_downlevel.obj
 0002:000063f8       ??_C@_1M@BOFOGHPB@?$AAs?$AAq?$AA?9?$AAa?$AAl?$AA?$AA@ 00000001800323f8     libucrt:lcidtoname_downlevel.obj
 0002:00006408       ??_C@_1BG@LJBBIPGB@?$AAs?$AAr?$AA?9?$AAb?$AAa?$AA?9?$AAc?$AAy?$AAr?$AAl?$AA?$AA@ 0000000180032408     libucrt:lcidtoname_downlevel.obj
 0002:00006420       ??_C@_1BG@JLBENFOE@?$AAs?$AAr?$AA?9?$AAb?$AAa?$AA?9?$AAl?$AAa?$AAt?$AAn?$AA?$AA@ 0000000180032420     libucrt:lcidtoname_downlevel.obj
 0002:00006438       ??_C@_1BG@KODPNHE@?$AAs?$AAr?$AA?9?$AAs?$AAp?$AA?9?$AAc?$AAy?$AAr?$AAl?$AA?$AA@ 0000000180032438     libucrt:lcidtoname_downlevel.obj
 0002:00006450       ??_C@_1BG@CIOGKHPB@?$AAs?$AAr?$AA?9?$AAs?$AAp?$AA?9?$AAl?$AAa?$AAt?$AAn?$AA?$AA@ 0000000180032450     libucrt:lcidtoname_downlevel.obj
 0002:00006468       ??_C@_1M@NGFJLMAC@?$AAs?$AAv?$AA?9?$AAf?$AAi?$AA?$AA@ 0000000180032468     libucrt:lcidtoname_downlevel.obj
 0002:00006478       ??_C@_1M@MPJEJAJC@?$AAs?$AAv?$AA?9?$AAs?$AAe?$AA?$AA@ 0000000180032478     libucrt:lcidtoname_downlevel.obj
 0002:00006488       ??_C@_1M@MPNDHLFK@?$AAs?$AAw?$AA?9?$AAk?$AAe?$AA?$AA@ 0000000180032488     libucrt:lcidtoname_downlevel.obj
 0002:00006498       ??_C@_1O@KOHBJJI@?$AAs?$AAy?$AAr?$AA?9?$AAs?$AAy?$AA?$AA@ 0000000180032498     libucrt:lcidtoname_downlevel.obj
 0002:000064a8       ??_C@_1M@LDCEFHA@?$AAt?$AAa?$AA?9?$AAi?$AAn?$AA?$AA@ 00000001800324a8     libucrt:lcidtoname_downlevel.obj
 0002:000064b8       ??_C@_1M@CNJOFAK@?$AAt?$AAe?$AA?9?$AAi?$AAn?$AA?$AA@ 00000001800324b8     libucrt:lcidtoname_downlevel.obj
 0002:000064c8       ??_C@_1M@GNAECACD@?$AAt?$AAh?$AA?9?$AAt?$AAh?$AA?$AA@ 00000001800324c8     libucrt:lcidtoname_downlevel.obj
 0002:000064d8       ??_C@_1M@CHBIHOJO@?$AAt?$AAn?$AA?9?$AAz?$AAa?$AA?$AA@ 00000001800324d8     libucrt:lcidtoname_downlevel.obj
 0002:000064e8       ??_C@_1M@GCCMIGPJ@?$AAt?$AAr?$AA?9?$AAt?$AAr?$AA?$AA@ 00000001800324e8     libucrt:lcidtoname_downlevel.obj
 0002:000064f8       ??_C@_1M@CELMCNBK@?$AAt?$AAt?$AA?9?$AAr?$AAu?$AA?$AA@ 00000001800324f8     libucrt:lcidtoname_downlevel.obj
 0002:00006508       ??_C@_1M@KLMCELGA@?$AAu?$AAk?$AA?9?$AAu?$AAa?$AA?$AA@ 0000000180032508     libucrt:lcidtoname_downlevel.obj
 0002:00006518       ??_C@_1M@EPAJJAJF@?$AAu?$AAr?$AA?9?$AAp?$AAk?$AA?$AA@ 0000000180032518     libucrt:lcidtoname_downlevel.obj
 0002:00006528       ??_C@_1BG@GEGPMCDJ@?$AAu?$AAz?$AA?9?$AAu?$AAz?$AA?9?$AAc?$AAy?$AAr?$AAl?$AA?$AA@ 0000000180032528     libucrt:lcidtoname_downlevel.obj
 0002:00006540       ??_C@_1BG@EGGKJILM@?$AAu?$AAz?$AA?9?$AAu?$AAz?$AA?9?$AAl?$AAa?$AAt?$AAn?$AA?$AA@ 0000000180032540     libucrt:lcidtoname_downlevel.obj
 0002:00006558       ??_C@_1M@GFOCLFF@?$AAv?$AAi?$AA?9?$AAv?$AAn?$AA?$AA@ 0000000180032558     libucrt:lcidtoname_downlevel.obj
 0002:00006568       ??_C@_1M@CPAMEDFI@?$AAx?$AAh?$AA?9?$AAz?$AAa?$AA?$AA@ 0000000180032568     libucrt:lcidtoname_downlevel.obj
 0002:00006578       ??_C@_1O@EBKIFIGN@?$AAz?$AAh?$AA?9?$AAc?$AAh?$AAs?$AA?$AA@ 0000000180032578     libucrt:lcidtoname_downlevel.obj
 0002:00006588       ??_C@_1O@NMHPGANE@?$AAz?$AAh?$AA?9?$AAc?$AAh?$AAt?$AA?$AA@ 0000000180032588     libucrt:lcidtoname_downlevel.obj
 0002:00006598       ??_C@_1M@LPINJOMC@?$AAz?$AAh?$AA?9?$AAc?$AAn?$AA?$AA@ 0000000180032598     libucrt:lcidtoname_downlevel.obj
 0002:000065a8       ??_C@_1M@OCJEJODD@?$AAz?$AAh?$AA?9?$AAh?$AAk?$AA?$AA@ 00000001800325a8     libucrt:lcidtoname_downlevel.obj
 0002:000065b8       ??_C@_1M@DNDLJINH@?$AAz?$AAh?$AA?9?$AAm?$AAo?$AA?$AA@ 00000001800325b8     libucrt:lcidtoname_downlevel.obj
 0002:000065c8       ??_C@_1M@MBFDNDND@?$AAz?$AAh?$AA?9?$AAs?$AAg?$AA?$AA@ 00000001800325c8     libucrt:lcidtoname_downlevel.obj
 0002:000065d8       ??_C@_1M@IMEPLEPE@?$AAz?$AAh?$AA?9?$AAt?$AAw?$AA?$AA@ 00000001800325d8     libucrt:lcidtoname_downlevel.obj
 0002:000065e8       ??_C@_1M@BBGHNHJP@?$AAz?$AAu?$AA?9?$AAz?$AAa?$AA?$AA@ 00000001800325e8     libucrt:lcidtoname_downlevel.obj
 0002:00006600       ?large_power_data@?1??multiply_by_power_of_ten@__crt_strtox@@YA_NAEAUbig_integer@2@I@Z@4QBIB 0000000180032600     libucrt:cfout.obj
 0002:00006f10       ?large_power_indices@?1??multiply_by_power_of_ten@__crt_strtox@@YA_NAEAUbig_integer@2@I@Z@4QBUunpack_index@?1??12@YA_N0I@Z@B 0000000180032f10     libucrt:cfout.obj
 0002:00006fa8       ?small_powers_of_ten@?6??multiply_by_power_of_ten@__crt_strtox@@YA_NAEAUbig_integer@2@I@Z@4QBIB 0000000180032fa8     libucrt:cfout.obj
 0002:00006fcc       ??_C@_05DNEBIAHO@1?$CDINF?$AA@ 0000000180032fcc     libucrt:cfout.obj
 0002:00006fd4       ??_C@_06IMKFLFPG@1?$CDQNAN?$AA@ 0000000180032fd4     libucrt:cfout.obj
 0002:00006fdc       ??_C@_06PGGFOGJG@1?$CDSNAN?$AA@ 0000000180032fdc     libucrt:cfout.obj
 0002:00006fe4       ??_C@_05PHHOCPM@1?$CDIND?$AA@ 0000000180032fe4     libucrt:cfout.obj
 0002:00007250       ??_C@_1BA@BALFACEM@?$AAC?$AAO?$AAN?$AAO?$AAU?$AAT?$AA$?$AA?$AA@ 0000000180033250     libucrt:initcon.obj
 0002:00007260       __log10_256_lead           0000000180033260     libucrt:log10_256_lead_tail_table.obj
 0002:00007a70       __log10_256_tail           0000000180033a70     libucrt:log10_256_lead_tail_table.obj
 0002:00008280       __log_F_inv_qword          0000000180034280     libucrt:log_f_inv_qword_table.obj
 0002:00008a90       ??_C@_1DG@OKCGPKIB@?$AAp?$AAe?$AAr?$AAs?$AAi?$AAs?$AAt?$AAe?$AAn?$AAt?$AA?$CI?$AA?$CJ?$AA?4?$AAI?$AAs?$AAN?$AAe?$AAa?$AAr?$AAD?$AAe?$AAa?$AAt?$AAh?$AA?$CI?$AA?$CJ?$AA?$AA@ 0000000180034a90     Canvas.obj
 0002:00008ac8       ??_C@_1CO@EGNPJLKI@?$AAp?$AAe?$AAr?$AAs?$AAi?$AAs?$AAt?$AAe?$AAn?$AAt?$AA?$CI?$AA?$CJ?$AA?4?$AAI?$AAs?$AAE?$AAm?$AAp?$AAt?$AAy?$AA?$CI?$AA?$CJ?$AA?$AA@ 0000000180034ac8     Canvas.obj
 0002:00008af8       ??_C@_1DA@FBGAEOIO@?$AA?$CB?$AAp?$AAe?$AAr?$AAs?$AAi?$AAs?$AAt?$AAe?$AAn?$AAt?$AA?$CI?$AA?$CJ?$AA?4?$AAI?$AAs?$AAE?$AAm?$AAp?$AAt?$AAy?$AA?$CI?$AA?$CJ?$AA?$AA@ 0000000180034af8     Canvas.obj
 0002:00008b28       ??_C@_1CO@JCKLEFMA@?$AA?$CB?$AAp?$AAe?$AAr?$AAs?$AAi?$AAs?$AAt?$AAe?$AAn?$AAt?$AA?$CI?$AA?$CJ?$AA?4?$AAI?$AAs?$AAW?$AAe?$AAa?$AAk?$AA?$CI?$AA?$CJ?$AA?$AA@ 0000000180034b28     Canvas.obj
 0002:00008b58       ??_C@_1BE@GMLLOIPJ@?$AAr?$AAe?$AAf?$AAs?$AA_?$AA?5?$AA?$DO?$AA?5?$AA0?$AA?$AA@ 0000000180034b58     Canvas.obj
 0002:00008b70       ??_C@_1CC@GBFLAAPF@?$AAw?$AAr?$AAa?$AAp?$AA?9?$AA?$DO?$AAr?$AAe?$AAf?$AAs?$AA_?$AA?5?$AA?$DN?$AA?$DN?$AA?5?$AA0?$AA?$AA@ 0000000180034b70     Canvas.obj
 0002:00008ba0       ??_C@_1HA@OLJOKHBJ@?$AAE?$AA?3?$AA?2?$AAw?$AAw?$AAw?$AA?2?$AAt?$AAi?$AAk?$AAe?$AAt?$AA?9?$AAs?$AAe?$AAr?$AAv?$AAe?$AAr?$AA?4?$AAd?$AAe?$AAv?$AA?2?$AAn?$AAw?$AA?9?$AAp?$AAr?$AAi?$AAn?$AAt@ 0000000180034ba0     Canvas.obj
 0002:00008c10       ??_C@_1GA@PFOOBIAG@?$AAl?$AAe?$AAn?$AAg?$AAt?$AAh?$AA?5?$AA?$DM?$AA?$DN?$AA?5?$AAi?$AAm?$AAp?$AA?3?$AA?3?$AAk?$AAM?$AAa?$AAx?$AAL?$AAe?$AAn?$AAg?$AAt?$AAh?$AA?5?$AA?$CG?$AA?$CG?$AA?5?$AA?$CC?$AAt?$AAo@ 0000000180034c10     Canvas.obj
 0002:00008c70       ??_C@_1FM@LOELJOFK@?$AAs?$AAi?$AAz?$AAe?$AA?5?$AA?$DM?$AA?$DN?$AA?5?$AAi?$AAm?$AAp?$AA?3?$AA?3?$AAk?$AAM?$AAa?$AAx?$AAL?$AAe?$AAn?$AAg?$AAt?$AAh?$AA?5?$AA?$CG?$AA?$CG?$AA?5?$AA?$CC?$AAt?$AAo?$AAo?$AA?5@ 0000000180034c70     Canvas.obj
 0002:00008cd0       ??_C@_1II@NDEFABKJ@?$AAe?$AA?3?$AA?2?$AAw?$AAw?$AAw?$AA?2?$AAt?$AAi?$AAk?$AAe?$AAt?$AA?9?$AAs?$AAe?$AAr?$AAv?$AAe?$AAr?$AA?4?$AAd?$AAe?$AAv?$AA?2?$AAn?$AAw?$AA?9?$AAp?$AAr?$AAi?$AAn?$AAt@ 0000000180034cd0     Canvas.obj
 0002:00008d60       ??_C@_1EC@MGGLMBLC@?$AAo?$AAb?$AAj?$AAe?$AAc?$AAt?$AA?9?$AA?$DO?$AAI?$AAn?$AAt?$AAe?$AAr?$AAn?$AAa?$AAl?$AAF?$AAi?$AAe?$AAl?$AAd?$AAC?$AAo?$AAu?$AAn?$AAt?$AA?$CI?$AA?$CJ?$AA?5?$AA?$DO?$AA?5?$AA0@ 0000000180034d60     Canvas.obj
 0002:00008da8       ??_C@_1DI@ELDBKNAK@?$AAw?$AAr?$AAa?$AAp?$AA?9?$AA?$DO?$AAh?$AAa?$AAn?$AAd?$AAl?$AAe?$AA_?$AA?4?$AAI?$AAs?$AAN?$AAe?$AAa?$AAr?$AAD?$AAe?$AAa?$AAt?$AAh?$AA?$CI?$AA?$CJ?$AA?$AA@ 0000000180034da8     Canvas.obj
 0002:00008de0       ??_C@_05EGBLHKBN@1?44?43?$AA@ 0000000180034de0     Canvas.obj
 0002:00008de8       ??_C@_06PBIJCONE@Canvas?$AA@ 0000000180034de8     Canvas.obj
 0002:00008df0       ??_C@_08GOCDALDA@toBuffer?$AA@ 0000000180034df0     Canvas.obj
 0002:00008e00       ??_C@_0O@IOKOGJGN@streamPNGSync?$AA@ 0000000180034e00     Canvas.obj
 0002:00008e10       ??_C@_0O@OBICOFIG@streamPDFSync?$AA@ 0000000180034e10     Canvas.obj
 0002:00008e20       ??_C@_04GPMDFGEJ@type?$AA@ 0000000180034e20     Canvas.obj
 0002:00008e28       ??_C@_06LNMIFCNI@stride?$AA@ 0000000180034e28     Canvas.obj
 0002:00008e30       ??_C@_05IGKADHGO@width?$AA@ 0000000180034e30     Canvas.obj
 0002:00008e38       ??_C@_06LNLHEAAG@height?$AA@ 0000000180034e38     Canvas.obj
 0002:00008e40       ??_C@_0P@DNOOAMCM@PNG_NO_FILTERS?$AA@ 0000000180034e40     Canvas.obj
 0002:00008e50       ??_C@_0BA@NECJFJGB@PNG_FILTER_NONE?$AA@ 0000000180034e50     Canvas.obj
 0002:00008e60       ??_C@_0P@ILKINAJE@PNG_FILTER_SUB?$AA@ 0000000180034e60     Canvas.obj
 0002:00008e70       ??_C@_0O@PHEANGBB@PNG_FILTER_UP?$AA@ 0000000180034e70     Canvas.obj
 0002:00008e80       ??_C@_0P@OIJAFJM@PNG_FILTER_AVG?$AA@ 0000000180034e80     Canvas.obj
 0002:00008e90       ??_C@_0BB@EOMICOFG@PNG_FILTER_PAETH?$AA@ 0000000180034e90     Canvas.obj
 0002:00008ea8       ??_C@_0BA@HBOOLNBH@PNG_ALL_FILTERS?$AA@ 0000000180034ea8     Canvas.obj
 0002:00008eb8       ??_C@_0DD@NOKGMICM@Class?5constructors?5cannot?5be?5inv@ 0000000180034eb8     Canvas.obj
 0002:00008eec       ??_C@_03MJPNCPKC@pdf?$AA@  0000000180034eec     Canvas.obj
 0002:00008ef0       ??_C@_03NNPBMGBD@svg?$AA@  0000000180034ef0     Canvas.obj
 0002:00008ef4       ??_C@_05NGOMGBBD@image?$AA@ 0000000180034ef4     Canvas.obj
 0002:00008efc       ??_C@_03DGOGAGNC@raw?$AA@  0000000180034efc     Canvas.obj
 0002:00008f00       ??_C@_01GBGANLPD@0?$AA@    0000000180034f00     Canvas.obj
 0002:00008f08       ??_C@_0DE@NKCMEFAA@Allowed?5compression?5levels?5lie?5i@ 0000000180034f08     Canvas.obj
 0002:00008f40       ??_C@_0CE@KMCMNKHK@Compression?5level?5must?5be?5a?5numb@ 0000000180034f40     Canvas.obj
 0002:00008f68       ??_C@_0BG@HPFBKLBE@Invalid?5filter?5value?4?$AA@ 0000000180034f68     Canvas.obj
 0002:00008f80       ??_C@_0BL@NEPODJIN@callback?5function?5required?$AA@ 0000000180034f80     Canvas.obj
 0002:00008fa0       ??_C@_0BC@FANAGBIP@wrong?5canvas?5type?$AA@ 0000000180034fa0     Canvas.obj
 0002:00008fb8       ??_C@_1CC@CMIELAMF@?$AA?4?$AA?4?$AA?2?$AAs?$AAr?$AAc?$AA?2?$AAC?$AAa?$AAn?$AAv?$AAa?$AAs?$AA?4?$AAc?$AAc?$AA?$AA@ 0000000180034fb8     Canvas.obj
 0002:00008fe0       ??_C@_1BC@KFAOGGDO@?$AA_?$AAc?$AAl?$AAo?$AAs?$AAu?$AAr?$AAe?$AA?$AA@ 0000000180034fe0     Canvas.obj
 0002:00008ff8       ??_C@_1DO@PEKPJEKO@?$AAs?$AAt?$AAa?$AAt?$AAu?$AAs?$AA?5?$AA?$DN?$AA?$DN?$AA?5?$AAC?$AAA?$AAI?$AAR?$AAO?$AA_?$AAS?$AAT?$AAA?$AAT?$AAU?$AAS?$AA_?$AAS?$AAU?$AAC?$AAC?$AAE?$AAS?$AAS?$AA?$AA@ 0000000180034ff8     Canvas.obj
 0002:00009038       ??_C@_1BC@OIIGNDNN@?$AA_?$AAs?$AAu?$AAr?$AAf?$AAa?$AAc?$AAe?$AA?$AA@ 0000000180035038     Canvas.obj
 0002:00009050       ??_C@_07JKKCBBMM@context?$AA@ 0000000180035050     Canvas.obj
 0002:00009058       ??_C@_1CE@LNAGEONJ@?$AA?$CB?$AAo?$AAb?$AAj?$AAe?$AAc?$AAt?$AA?4?$AAI?$AAs?$AAE?$AAm?$AAp?$AAt?$AAy?$AA?$CI?$AA?$CJ?$AA?$AA@ 0000000180035058     Canvas.obj
 0002:00009080       ??_7Canvas@@6B@            0000000180035080     Canvas.obj
 0002:00009098       ??_C@_0P@CKNMLMDB@CanvasGradient?$AA@ 0000000180035098     CanvasGradient.obj
 0002:000090a8       ??_C@_0N@FFOKKILE@addColorStop?$AA@ 00000001800350a8     CanvasGradient.obj
 0002:000090b8       ??_C@_0BC@KNPMEBHA@invalid?5arguments?$AA@ 00000001800350b8     CanvasGradient.obj
 0002:000090d0       ??_C@_0BA@ELGKPKEI@offset?5required?$AA@ 00000001800350d0     CanvasGradient.obj
 0002:000090e0       ??_C@_0BG@HHHCEBEM@color?5string?5required?$AA@ 00000001800350e0     CanvasGradient.obj
 0002:000090f8       ??_C@_0BD@JKDEPLNJ@parse?5color?5failed?$AA@ 00000001800350f8     CanvasGradient.obj
 0002:00009110       ??_7Pattern@@6B@           0000000180035110     CanvasPattern.obj
 0002:00009110       ??_7Gradient@@6B@          0000000180035110     CanvasGradient.obj
 0002:00009128       ??_C@_0O@KEPDKAFI@CanvasPattern?$AA@ 0000000180035128     CanvasPattern.obj
 0002:00009138       ??_C@_0CG@CKGIHBBA@Image?5given?5has?5not?5completed?5lo@ 0000000180035138     CanvasPattern.obj
 0002:00009160       ??_C@_0BJ@NBALILEB@Image?5or?5Canvas?5expected?$AA@ 0000000180035160     CanvasPattern.obj
 0002:00009180       ??_C@_07CIFAGBMG@unknown?$AA@ 0000000180035180     CanvasRenderingContext2d.obj
 0002:00009188       ??_C@_0BJ@HOMNLOJF@CanvasRenderingContext2D?$AA@ 0000000180035188     CanvasRenderingContext2d.obj
 0002:000091a8       ??_C@_09LANPKMCJ@drawImage?$AA@ 00000001800351a8     CanvasRenderingContext2d.obj
 0002:000091b8       ??_C@_0N@HMHAOANH@putImageData?$AA@ 00000001800351b8     CanvasRenderingContext2d.obj
 0002:000091c8       ??_C@_0N@LJBMKNKJ@getImageData?$AA@ 00000001800351c8     CanvasRenderingContext2d.obj
 0002:000091d8       ??_C@_07IEJLLIOD@addPage?$AA@ 00000001800351d8     CanvasRenderingContext2d.obj
 0002:000091e0       ??_C@_04EMMDIJJL@save?$AA@ 00000001800351e0     CanvasRenderingContext2d.obj
 0002:000091e8       ??_C@_07HICINA@restore?$AA@ 00000001800351e8     CanvasRenderingContext2d.obj
 0002:000091f0       ??_C@_06CEHMNFAL@rotate?$AA@ 00000001800351f0     CanvasRenderingContext2d.obj
 0002:000091f8       ??_C@_09ODNGOEIO@translate?$AA@ 00000001800351f8     CanvasRenderingContext2d.obj
 0002:00009208       ??_C@_09IFONHNKG@transform?$AA@ 0000000180035208     CanvasRenderingContext2d.obj
 0002:00009218       ??_C@_0P@KBHJLFLN@resetTransform?$AA@ 0000000180035218     CanvasRenderingContext2d.obj
 0002:00009228       ??_C@_0O@MDNHBEAB@isPointInPath?$AA@ 0000000180035228     CanvasRenderingContext2d.obj
 0002:00009238       ??_C@_05MHMEBBGO@scale?$AA@ 0000000180035238     CanvasRenderingContext2d.obj
 0002:00009240       ??_C@_04POIGMEJN@clip?$AA@ 0000000180035240     CanvasRenderingContext2d.obj
 0002:00009248       ??_C@_04OBAECEGJ@fill?$AA@ 0000000180035248     CanvasRenderingContext2d.obj
 0002:00009250       ??_C@_06JDPPEKDJ@stroke?$AA@ 0000000180035250     CanvasRenderingContext2d.obj
 0002:00009258       ??_C@_08BKNBKKHP@fillText?$AA@ 0000000180035258     CanvasRenderingContext2d.obj
 0002:00009268       ??_C@_0L@NKNGGLJB@strokeText?$AA@ 0000000180035268     CanvasRenderingContext2d.obj
 0002:00009278       ??_C@_08IFOCBDEO@fillRect?$AA@ 0000000180035278     CanvasRenderingContext2d.obj
 0002:00009288       ??_C@_0L@EFOFNCKA@strokeRect?$AA@ 0000000180035288     CanvasRenderingContext2d.obj
 0002:00009298       ??_C@_09CADLENBP@clearRect?$AA@ 0000000180035298     CanvasRenderingContext2d.obj
 0002:000092a4       ??_C@_04LHPFHFPH@rect?$AA@ 00000001800352a4     CanvasRenderingContext2d.obj
 0002:000092b0       ??_C@_0M@PDPLNFGN@measureText?$AA@ 00000001800352b0     CanvasRenderingContext2d.obj
 0002:000092bc       ??_C@_06ICOKFDHB@moveTo?$AA@ 00000001800352bc     CanvasRenderingContext2d.obj
 0002:000092c4       ??_C@_06KCFEGHJL@lineTo?$AA@ 00000001800352c4     CanvasRenderingContext2d.obj
 0002:000092d0       ??_C@_0O@PAEGDEKM@bezierCurveTo?$AA@ 00000001800352d0     CanvasRenderingContext2d.obj
 0002:000092e0       ??_C@_0BB@NNCDNEFE@quadraticCurveTo?$AA@ 00000001800352e0     CanvasRenderingContext2d.obj
 0002:000092f8       ??_C@_09GMDIDHBP@beginPath?$AA@ 00000001800352f8     CanvasRenderingContext2d.obj
 0002:00009308       ??_C@_09FFNFMCIM@closePath?$AA@ 0000000180035308     CanvasRenderingContext2d.obj
 0002:00009314       ??_C@_03EEIEDENP@arc?$AA@  0000000180035314     CanvasRenderingContext2d.obj
 0002:00009318       ??_C@_05KOMEJIOF@arcTo?$AA@ 0000000180035318     CanvasRenderingContext2d.obj
 0002:00009320       ??_C@_0M@KIBHMOJH@setLineDash?$AA@ 0000000180035320     CanvasRenderingContext2d.obj
 0002:00009330       ??_C@_0M@KHAJBIBE@getLineDash?$AA@ 0000000180035330     CanvasRenderingContext2d.obj
 0002:00009340       ??_C@_08GCBDMPHE@_setFont?$AA@ 0000000180035340     CanvasRenderingContext2d.obj
 0002:00009350       ??_C@_0O@LDAFEHIB@_setFillColor?$AA@ 0000000180035350     CanvasRenderingContext2d.obj
 0002:00009360       ??_C@_0BA@KNEOHGAJ@_setStrokeColor?$AA@ 0000000180035360     CanvasRenderingContext2d.obj
 0002:00009370       ??_C@_0BA@PBFLDAPN@_setFillPattern?$AA@ 0000000180035370     CanvasRenderingContext2d.obj
 0002:00009380       ??_C@_0BC@FDNPDMMP@_setStrokePattern?$AA@ 0000000180035380     CanvasRenderingContext2d.obj
 0002:00009398       ??_C@_0BB@CFGDFFJO@_setTextBaseline?$AA@ 0000000180035398     CanvasRenderingContext2d.obj
 0002:000093b0       ??_C@_0BC@FPEBGOFB@_setTextAlignment?$AA@ 00000001800353b0     CanvasRenderingContext2d.obj
 0002:000093c8       ??_C@_0P@HGKACBEG@patternQuality?$AA@ 00000001800353c8     CanvasRenderingContext2d.obj
 0002:000093d8       ??_C@_0BJ@KOAEPHEF@globalCompositeOperation?$AA@ 00000001800353d8     CanvasRenderingContext2d.obj
 0002:000093f8       ??_C@_0M@EJNLOLOE@globalAlpha?$AA@ 00000001800353f8     CanvasRenderingContext2d.obj
 0002:00009408       ??_C@_0M@JPJLLJDB@shadowColor?$AA@ 0000000180035408     CanvasRenderingContext2d.obj
 0002:00009418       ??_C@_09EGMCAAKI@fillColor?$AA@ 0000000180035418     CanvasRenderingContext2d.obj
 0002:00009428       ??_C@_0M@BLAMIBG@strokeColor?$AA@ 0000000180035428     CanvasRenderingContext2d.obj
 0002:00009438       ??_C@_0L@EFNIPLDK@miterLimit?$AA@ 0000000180035438     CanvasRenderingContext2d.obj
 0002:00009448       ??_C@_09PELAPJEH@lineWidth?$AA@ 0000000180035448     CanvasRenderingContext2d.obj
 0002:00009458       ??_C@_07IPBACFHB@lineCap?$AA@ 0000000180035458     CanvasRenderingContext2d.obj
 0002:00009460       ??_C@_08CCMLJKBL@lineJoin?$AA@ 0000000180035460     CanvasRenderingContext2d.obj
 0002:00009470       ??_C@_0P@NNEFDNMM@lineDashOffset?$AA@ 0000000180035470     CanvasRenderingContext2d.obj
 0002:00009480       ??_C@_0O@FOAIOCIO@shadowOffsetX?$AA@ 0000000180035480     CanvasRenderingContext2d.obj
 0002:00009490       ??_C@_0O@EHBDNDMP@shadowOffsetY?$AA@ 0000000180035490     CanvasRenderingContext2d.obj
 0002:000094a0       ??_C@_0L@FJBIPGOL@shadowBlur?$AA@ 00000001800354a0     CanvasRenderingContext2d.obj
 0002:000094b0       ??_C@_09BEIGEBLF@antialias?$AA@ 00000001800354b0     CanvasRenderingContext2d.obj
 0002:000094c0       ??_C@_0BA@GALDJJKL@textDrawingMode?$AA@ 00000001800354c0     CanvasRenderingContext2d.obj
 0002:000094d0       ??_C@_06EOIELIPE@filter?$AA@ 00000001800354d0     CanvasRenderingContext2d.obj
 0002:000094d8       ??_C@_0BJ@OLEJJKDH@CanvasRenderingContext2d?$AA@ 00000001800354d8     CanvasRenderingContext2d.obj
 0002:000094f8       ??_C@_07NOFPBGJH@evenodd?$AA@ 00000001800354f8     CanvasRenderingContext2d.obj
 0002:00009500       ??_C@_0BA@IBFIJLCO@Canvas?5expected?$AA@ 0000000180035500     CanvasRenderingContext2d.obj
 0002:00009510       ??_C@_0CG@EHLCPGGB@only?5PDF?5canvases?5support?5?4nextP@ 0000000180035510     CanvasRenderingContext2d.obj
 0002:00009538       ??_C@_0BD@DJPHEEKJ@ImageData?5expected?$AA@ 0000000180035538     CanvasRenderingContext2d.obj
 0002:00009550       ??_C@_0CH@NDMGIAMG@IndexSizeError?3?5The?5source?5width@ 0000000180035550     CanvasRenderingContext2d.obj
 0002:00009578       ??_C@_0CI@HDADGBDO@IndexSizeError?3?5The?5source?5heigh@ 0000000180035578     CanvasRenderingContext2d.obj
 0002:000095a0       ??_C@_0M@OABMHCHE@source?9over?$AA@ 00000001800355a0     CanvasRenderingContext2d.obj
 0002:000095b0       ??_C@_0M@MKIEODMK@source?9atop?$AA@ 00000001800355b0     CanvasRenderingContext2d.obj
 0002:000095c0       ??_C@_09CMAEPNDN@source?9in?$AA@ 00000001800355c0     CanvasRenderingContext2d.obj
 0002:000095d0       ??_C@_0L@CGAPOHFD@source?9out?$AA@ 00000001800355d0     CanvasRenderingContext2d.obj
 0002:000095dc       ??_C@_03COLCDPPJ@xor?$AA@  00000001800355dc     CanvasRenderingContext2d.obj
 0002:000095e0       ??_C@_0BB@CPBJJEG@destination?9atop?$AA@ 00000001800355e0     CanvasRenderingContext2d.obj
 0002:000095f8       ??_C@_0P@GAHJLNBO@destination?9in?$AA@ 00000001800355f8     CanvasRenderingContext2d.obj
 0002:00009608       ??_C@_0BA@IECEOLGB@destination?9out?$AA@ 0000000180035608     CanvasRenderingContext2d.obj
 0002:00009618       ??_C@_0BB@CIGJAIPI@destination?9over?$AA@ 0000000180035618     CanvasRenderingContext2d.obj
 0002:0000962c       ??_C@_05MEHLAELG@clear?$AA@ 000000018003562c     CanvasRenderingContext2d.obj
 0002:00009634       ??_C@_06OEKOLKIL@source?$AA@ 0000000180035634     CanvasRenderingContext2d.obj
 0002:0000963c       ??_C@_04EEHDLEKF@dest?$AA@ 000000018003563c     CanvasRenderingContext2d.obj
 0002:00009644       ??_C@_04DPPOAFIB@over?$AA@ 0000000180035644     CanvasRenderingContext2d.obj
 0002:00009650       ??_C@_08MEKLKAIJ@saturate?$AA@ 0000000180035650     CanvasRenderingContext2d.obj
 0002:00009660       ??_C@_07OODLOHBD@lighten?$AA@ 0000000180035660     CanvasRenderingContext2d.obj
 0002:00009668       ??_C@_03BDGOHNNK@add?$AA@  0000000180035668     CanvasRenderingContext2d.obj
 0002:0000966c       ??_C@_06OCOCEFJK@darker?$AA@ 000000018003566c     CanvasRenderingContext2d.obj
 0002:00009678       ??_C@_08MMOCDOEL@multiply?$AA@ 0000000180035678     CanvasRenderingContext2d.obj
 0002:00009684       ??_C@_06LPLGMLP@screen?$AA@ 0000000180035684     CanvasRenderingContext2d.obj
 0002:00009690       ??_C@_07BJNHBMF@overlay?$AA@ 0000000180035690     CanvasRenderingContext2d.obj
 0002:00009698       ??_C@_0L@CEKGHIKD@hard?9light?$AA@ 0000000180035698     CanvasRenderingContext2d.obj
 0002:000096a8       ??_C@_0L@DKCPCJMJ@soft?9light?$AA@ 00000001800356a8     CanvasRenderingContext2d.obj
 0002:000096b8       ??_C@_07LGBGJPAP@hsl?9hue?$AA@ 00000001800356b8     CanvasRenderingContext2d.obj
 0002:000096c0       ??_C@_0P@HLIOCFIP@hsl?9saturation?$AA@ 00000001800356c0     CanvasRenderingContext2d.obj
 0002:000096d0       ??_C@_09IEDFIDAP@hsl?9color?$AA@ 00000001800356d0     CanvasRenderingContext2d.obj
 0002:000096e0       ??_C@_0P@HOBGGHID@hsl?9luminosity?$AA@ 00000001800356e0     CanvasRenderingContext2d.obj
 0002:000096f0       ??_C@_0M@HJIFAOGP@color?9dodge?$AA@ 00000001800356f0     CanvasRenderingContext2d.obj
 0002:00009700       ??_C@_0L@BNODHIAO@color?9burn?$AA@ 0000000180035700     CanvasRenderingContext2d.obj
 0002:00009710       ??_C@_0L@CHCOIIBP@difference?$AA@ 0000000180035710     CanvasRenderingContext2d.obj
 0002:00009720       ??_C@_09GJPEMMGJ@exclusion?$AA@ 0000000180035720     CanvasRenderingContext2d.obj
 0002:0000972c       ??_C@_04LBNBHAJC@fast?$AA@ 000000018003572c     CanvasRenderingContext2d.obj
 0002:00009734       ??_C@_04DDJAGGFE@good?$AA@ 0000000180035734     CanvasRenderingContext2d.obj
 0002:0000973c       ??_C@_04MLDDEBAF@best?$AA@ 000000018003573c     CanvasRenderingContext2d.obj
 0002:00009748       ??_C@_07NHJEPDMH@nearest?$AA@ 0000000180035748     CanvasRenderingContext2d.obj
 0002:00009750       ??_C@_08LJMMPFJO@bilinear?$AA@ 0000000180035750     CanvasRenderingContext2d.obj
 0002:00009760       ??_C@_07IEMLKEO@lighter?$AA@ 0000000180035760     CanvasRenderingContext2d.obj
 0002:00009768       ??_C@_04CGFJFPFD@none?$AA@ 0000000180035768     CanvasRenderingContext2d.obj
 0002:00009770       ??_C@_04GEBBKIAA@gray?$AA@ 0000000180035770     CanvasRenderingContext2d.obj
 0002:00009778       ??_C@_08JOJOGLJH@subpixel?$AA@ 0000000180035778     CanvasRenderingContext2d.obj
 0002:00009788       ??_C@_07DLHCIBDH@default?$AA@ 0000000180035788     CanvasRenderingContext2d.obj
 0002:00009790       ??_C@_04LNEJFJGI@path?$AA@ 0000000180035790     CanvasRenderingContext2d.obj
 0002:00009798       ??_C@_05OIOMJNBL@glyph?$AA@ 0000000180035798     CanvasRenderingContext2d.obj
 0002:000097a0       ??_C@_05JDNDNKBA@bevel?$AA@ 00000001800357a0     CanvasRenderingContext2d.obj
 0002:000097a8       ??_C@_05MIMAKCN@round?$AA@ 00000001800357a8     CanvasRenderingContext2d.obj
 0002:000097b0       ??_C@_05NJDNHCJA@miter?$AA@ 00000001800357b0     CanvasRenderingContext2d.obj
 0002:000097b8       ??_C@_06ICDKOIFG@square?$AA@ 00000001800357b8     CanvasRenderingContext2d.obj
 0002:000097c0       ??_C@_04JOGFAABP@butt?$AA@ 00000001800357c0     CanvasRenderingContext2d.obj
 0002:000097c8       ??_C@_0BN@MEBGIMHG@Gradient?5or?5Pattern?5expected?$AA@ 00000001800357c8     CanvasRenderingContext2d.obj
 0002:000097e8       ??_C@_0BM@CKBGKGDN@lineTo?$CI?$CJ?5x?5must?5be?5a?5number?$AA@ 00000001800357e8     CanvasRenderingContext2d.obj
 0002:00009808       ??_C@_0BM@PNPECGGF@lineTo?$CI?$CJ?5y?5must?5be?5a?5number?$AA@ 0000000180035808     CanvasRenderingContext2d.obj
 0002:00009828       ??_C@_0BM@GIIBHACD@moveTo?$CI?$CJ?5x?5must?5be?5a?5number?$AA@ 0000000180035828     CanvasRenderingContext2d.obj
 0002:00009848       ??_C@_0BM@LPGDPAHL@moveTo?$CI?$CJ?5y?5must?5be?5a?5number?$AA@ 0000000180035848     CanvasRenderingContext2d.obj
 0002:00009864       ??_C@_06DAHKLION@italic?$AA@ 0000000180035864     CanvasRenderingContext2d.obj
 0002:00009870       ??_C@_07PNBIOHPA@oblique?$AA@ 0000000180035870     CanvasRenderingContext2d.obj
 0002:00009878       ??_C@_04PJDGFHHN@bold?$AA@ 0000000180035878     CanvasRenderingContext2d.obj
 0002:00009880       ??_C@_0BG@IGICBKHO@actualBoundingBoxLeft?$AA@ 0000000180035880     CanvasRenderingContext2d.obj
 0002:00009898       ??_C@_0BH@KNMENBEI@actualBoundingBoxRight?$AA@ 0000000180035898     CanvasRenderingContext2d.obj
 0002:000098b0       ??_C@_0BI@NBNJEOJE@actualBoundingBoxAscent?$AA@ 00000001800358b0     CanvasRenderingContext2d.obj
 0002:000098c8       ??_C@_0BJ@LKCIMDON@actualBoundingBoxDescent?$AA@ 00000001800358c8     CanvasRenderingContext2d.obj
 0002:000098e8       ??_C@_0P@FGHEPLGI@emHeightAscent?$AA@ 00000001800358e8     CanvasRenderingContext2d.obj
 0002:000098f8       ??_C@_0BA@OKENAGP@emHeightDescent?$AA@ 00000001800358f8     CanvasRenderingContext2d.obj
 0002:00009908       ??_C@_0BD@NGFBNEGE@alphabeticBaseline?$AA@ 0000000180035908     CanvasRenderingContext2d.obj
 0002:00009920       ??_C@_0BD@OLBABOEK@vector?$DMT?$DO?5too?5long?$AA@ 0000000180035920     CanvasRenderingContext2d.obj
 0002:00009938       ??_7Context2d@@6B@         0000000180035938     CanvasRenderingContext2d.obj
 0002:00009950       ??_C@_0M@CEEDCJLA@transparent?$AA@ 0000000180035950     color.obj
 0002:00009960       ??_C@_09GNHGKALJ@aliceblue?$AA@ 0000000180035960     color.obj
 0002:00009970       ??_C@_0N@OJFLMGEJ@antiquewhite?$AA@ 0000000180035970     color.obj
 0002:00009980       ??_C@_04GANAGBLL@aqua?$AA@ 0000000180035980     color.obj
 0002:00009988       ??_C@_0L@MOKEMMG@aquamarine?$AA@ 0000000180035988     color.obj
 0002:00009994       ??_C@_05CNOJAJLP@azure?$AA@ 0000000180035994     color.obj
 0002:0000999c       ??_C@_05EJOPPCPO@beige?$AA@ 000000018003599c     color.obj
 0002:000099a4       ??_C@_06HGAAELGA@bisque?$AA@ 00000001800359a4     color.obj
 0002:000099ac       ??_C@_05BIMBDNDC@black?$AA@ 00000001800359ac     color.obj
 0002:000099b8       ??_C@_0P@CMCBOAOE@blanchedalmond?$AA@ 00000001800359b8     color.obj
 0002:000099c8       ??_C@_04OBGPFBCN@blue?$AA@ 00000001800359c8     color.obj
 0002:000099d0       ??_C@_0L@LKLKALMM@blueviolet?$AA@ 00000001800359d0     color.obj
 0002:000099dc       ??_C@_05EBJGJMAL@brown?$AA@ 00000001800359dc     color.obj
 0002:000099e8       ??_C@_09JHLANABP@burlywood?$AA@ 00000001800359e8     color.obj
 0002:000099f8       ??_C@_09KIJDGGAG@cadetblue?$AA@ 00000001800359f8     color.obj
 0002:00009a08       ??_C@_0L@CHNAEACO@chartreuse?$AA@ 0000000180035a08     color.obj
 0002:00009a18       ??_C@_09BPADAHOC@chocolate?$AA@ 0000000180035a18     color.obj
 0002:00009a24       ??_C@_05JKFECOJP@coral?$AA@ 0000000180035a24     color.obj
 0002:00009a30       ??_C@_0P@KLMOGGLK@cornflowerblue?$AA@ 0000000180035a30     color.obj
 0002:00009a40       ??_C@_08DECOJLB@cornsilk?$AA@ 0000000180035a40     color.obj
 0002:00009a50       ??_C@_07DAGIGOOE@crimson?$AA@ 0000000180035a50     color.obj
 0002:00009a58       ??_C@_04EDBDANFH@cyan?$AA@ 0000000180035a58     color.obj
 0002:00009a60       ??_C@_08MFEOPMII@darkblue?$AA@ 0000000180035a60     color.obj
 0002:00009a70       ??_C@_08GHDCKAPC@darkcyan?$AA@ 0000000180035a70     color.obj
 0002:00009a80       ??_C@_0O@GGJPBKNE@darkgoldenrod?$AA@ 0000000180035a80     color.obj
 0002:00009a90       ??_C@_08EADAAFKF@darkgray?$AA@ 0000000180035a90     color.obj
 0002:00009aa0       ??_C@_09MHNMOMAI@darkgreen?$AA@ 0000000180035aa0     color.obj
 0002:00009ab0       ??_C@_08EHDJKNHJ@darkgrey?$AA@ 0000000180035ab0     color.obj
 0002:00009ac0       ??_C@_09FAPDIPMK@darkkhaki?$AA@ 0000000180035ac0     color.obj
 0002:00009ad0       ??_C@_0M@MEEFECHN@darkmagenta?$AA@ 0000000180035ad0     color.obj
 0002:00009ae0       ??_C@_0P@BGCLDNDK@darkolivegreen?$AA@ 0000000180035ae0     color.obj
 0002:00009af0       ??_C@_0L@ICJJPBF@darkorange?$AA@ 0000000180035af0     color.obj
 0002:00009b00       ??_C@_0L@EEAHIPOC@darkorchid?$AA@ 0000000180035b00     color.obj
 0002:00009b10       ??_C@_07MFAOOMGP@darkred?$AA@ 0000000180035b10     color.obj
 0002:00009b18       ??_C@_0L@CKNHPKLG@darksalmon?$AA@ 0000000180035b18     color.obj
 0002:00009b28       ??_C@_0N@FBOCOPGH@darkseagreen?$AA@ 0000000180035b28     color.obj
 0002:00009b38       ??_C@_0O@PABAFENG@darkslateblue?$AA@ 0000000180035b38     color.obj
 0002:00009b48       ??_C@_0O@HFGOKNPL@darkslategray?$AA@ 0000000180035b48     color.obj
 0002:00009b58       ??_C@_0O@HCGHAFCH@darkslategrey?$AA@ 0000000180035b58     color.obj
 0002:00009b68       ??_C@_0O@HKLGOIEA@darkturquoise?$AA@ 0000000180035b68     color.obj
 0002:00009b78       ??_C@_0L@NGBKDFME@darkviolet?$AA@ 0000000180035b78     color.obj
 0002:00009b88       ??_C@_08CJGCPHKF@deeppink?$AA@ 0000000180035b88     color.obj
 0002:00009b98       ??_C@_0M@BGGBNDNG@deepskyblue?$AA@ 0000000180035b98     color.obj
 0002:00009ba8       ??_C@_07DJPEDLIH@dimgray?$AA@ 0000000180035ba8     color.obj
 0002:00009bb0       ??_C@_07DOPNJDFL@dimgrey?$AA@ 0000000180035bb0     color.obj
 0002:00009bb8       ??_C@_0L@MIOOBLBJ@dodgerblue?$AA@ 0000000180035bb8     color.obj
 0002:00009bc8       ??_C@_09ELCPEDIM@firebrick?$AA@ 0000000180035bc8     color.obj
 0002:00009bd8       ??_C@_0M@FFMCAIP@floralwhite?$AA@ 0000000180035bd8     color.obj
 0002:00009be8       ??_C@_0M@HBKAKFBN@forestgreen?$AA@ 0000000180035be8     color.obj
 0002:00009bf8       ??_C@_07FHEBJCGF@fuchsia?$AA@ 0000000180035bf8     color.obj
 0002:00009c00       ??_C@_09MIGKOGAO@gainsboro?$AA@ 0000000180035c00     color.obj
 0002:00009c10       ??_C@_0L@CELMEDAA@ghostwhite?$AA@ 0000000180035c10     color.obj
 0002:00009c1c       ??_C@_04DBNGNIAN@gold?$AA@ 0000000180035c1c     color.obj
 0002:00009c28       ??_C@_09KJDOAGJL@goldenrod?$AA@ 0000000180035c28     color.obj
 0002:00009c34       ??_C@_05GBEEJKMC@green?$AA@ 0000000180035c34     color.obj
 0002:00009c40       ??_C@_0M@LFPLFELJ@greenyellow?$AA@ 0000000180035c40     color.obj
 0002:00009c4c       ??_C@_04GDBIAANM@grey?$AA@ 0000000180035c4c     color.obj
 0002:00009c58       ??_C@_08BKNCNHLL@honeydew?$AA@ 0000000180035c58     color.obj
 0002:00009c68       ??_C@_07PCCOEED@hotpink?$AA@ 0000000180035c68     color.obj
 0002:00009c70       ??_C@_09IELIJPNO@indianred?$AA@ 0000000180035c70     color.obj
 0002:00009c7c       ??_C@_06MLCCIEFE@indigo?$AA@ 0000000180035c7c     color.obj
 0002:00009c84       ??_C@_05NNJJIMHF@ivory?$AA@ 0000000180035c84     color.obj
 0002:00009c8c       ??_C@_05PGGLPJAA@khaki?$AA@ 0000000180035c8c     color.obj
 0002:00009c98       ??_C@_08KJDCPJPL@lavender?$AA@ 0000000180035c98     color.obj
 0002:00009ca8       ??_C@_0O@CCCMFNCK@lavenderblush?$AA@ 0000000180035ca8     color.obj
 0002:00009cb8       ??_C@_09MONDINDP@lawngreen?$AA@ 0000000180035cb8     color.obj
 0002:00009cc8       ??_C@_0N@ICDCAEHK@lemonchiffon?$AA@ 0000000180035cc8     color.obj
 0002:00009cd8       ??_C@_09NBIPJLA@lightblue?$AA@ 0000000180035cd8     color.obj
 0002:00009ce8       ??_C@_0L@BEAGLGMO@lightcoral?$AA@ 0000000180035ce8     color.obj
 0002:00009cf8       ??_C@_09KPGEKFMK@lightcyan?$AA@ 0000000180035cf8     color.obj
 0002:00009d08       ??_C@_0BF@PJADCIND@lightgoldenrodyellow?$AA@ 0000000180035d08     color.obj
 0002:00009d20       ??_C@_09IIGGAAJN@lightgray?$AA@ 0000000180035d20     color.obj
 0002:00009d30       ??_C@_0L@OPBGACJD@lightgreen?$AA@ 0000000180035d30     color.obj
 0002:00009d40       ??_C@_09IPGPKIEB@lightgrey?$AA@ 0000000180035d40     color.obj
 0002:00009d50       ??_C@_09KOBGKMHP@lightpink?$AA@ 0000000180035d50     color.obj
 0002:00009d60       ??_C@_0M@ENCCHKJE@lightsalmon?$AA@ 0000000180035d60     color.obj
 0002:00009d70       ??_C@_0O@BLOIENJC@lightseagreen?$AA@ 0000000180035d70     color.obj
 0002:00009d80       ??_C@_0N@JIFIFCAN@lightskyblue?$AA@ 0000000180035d80     color.obj
 0002:00009d90       ??_C@_0P@LIPDKBMK@lightslategray?$AA@ 0000000180035d90     color.obj
 0002:00009da0       ??_C@_0P@LPPKAJBG@lightslategrey?$AA@ 0000000180035da0     color.obj
 0002:00009db0       ??_C@_0P@EIHJHAMG@lightsteelblue?$AA@ 0000000180035db0     color.obj
 0002:00009dc0       ??_C@_0M@FBHPKJLB@lightyellow?$AA@ 0000000180035dc0     color.obj
 0002:00009dcc       ??_C@_04HLLEONLG@lime?$AA@ 0000000180035dcc     color.obj
 0002:00009dd8       ??_C@_09JKHHFGDO@limegreen?$AA@ 0000000180035dd8     color.obj
 0002:00009de4       ??_C@_05MLLCELJD@linen?$AA@ 0000000180035de4     color.obj
 0002:00009df0       ??_C@_07EMDGAPCI@magenta?$AA@ 0000000180035df0     color.obj
 0002:00009df8       ??_C@_06BDPIEPJF@maroon?$AA@ 0000000180035df8     color.obj
 0002:00009e00       ??_C@_0BB@HHCOFKIC@mediumaquamarine?$AA@ 0000000180035e00     color.obj
 0002:00009e18       ??_C@_0L@CEFFILOH@mediumblue?$AA@ 0000000180035e18     color.obj
 0002:00009e28       ??_C@_0N@GIADPNAO@mediumorchid?$AA@ 0000000180035e28     color.obj
 0002:00009e38       ??_C@_0N@DDGNBDHJ@mediumpurple?$AA@ 0000000180035e38     color.obj
 0002:00009e48       ??_C@_0P@BNCCGPJD@mediumseagreen?$AA@ 0000000180035e48     color.obj
 0002:00009e58       ??_C@_0BA@EKIMKCFD@mediumslateblue?$AA@ 0000000180035e58     color.obj
 0002:00009e68       ??_C@_0BC@POGDBPNO@mediumspringgreen?$AA@ 0000000180035e68     color.obj
 0002:00009e80       ??_C@_0BA@MACKBOMF@mediumturquoise?$AA@ 0000000180035e80     color.obj
 0002:00009e90       ??_C@_0BA@PNNCDMHM@mediumvioletred?$AA@ 0000000180035e90     color.obj
 0002:00009ea0       ??_C@_0N@PJDKAOHK@midnightblue?$AA@ 0000000180035ea0     color.obj
 0002:00009eb0       ??_C@_09INCGBEJA@mintcream?$AA@ 0000000180035eb0     color.obj
 0002:00009ec0       ??_C@_09HABDAMOF@mistyrose?$AA@ 0000000180035ec0     color.obj
 0002:00009ed0       ??_C@_08OIIPPDDA@moccasin?$AA@ 0000000180035ed0     color.obj
 0002:00009ee0       ??_C@_0M@OKLAMJCL@navajowhite?$AA@ 0000000180035ee0     color.obj
 0002:00009eec       ??_C@_04DCMEIHPF@navy?$AA@ 0000000180035eec     color.obj
 0002:00009ef8       ??_C@_07MBCGBJON@oldlace?$AA@ 0000000180035ef8     color.obj
 0002:00009f00       ??_C@_05OFIFEKBG@olive?$AA@ 0000000180035f00     color.obj
 0002:00009f08       ??_C@_09CNLBGLAE@olivedrab?$AA@ 0000000180035f08     color.obj
 0002:00009f14       ??_C@_06HDDOCMMN@orange?$AA@ 0000000180035f14     color.obj
 0002:00009f20       ??_C@_09OPJMLMBK@orangered?$AA@ 0000000180035f20     color.obj
 0002:00009f2c       ??_C@_06DPBADMDK@orchid?$AA@ 0000000180035f2c     color.obj
 0002:00009f38       ??_C@_0O@KONOLMEH@palegoldenrod?$AA@ 0000000180035f38     color.obj
 0002:00009f48       ??_C@_09NAJHJFNO@palegreen?$AA@ 0000000180035f48     color.obj
 0002:00009f58       ??_C@_0O@LCPHEOND@paleturquoise?$AA@ 0000000180035f58     color.obj
 0002:00009f68       ??_C@_0O@IPAPGMGK@palevioletred?$AA@ 0000000180035f68     color.obj
 0002:00009f78       ??_C@_0L@NPJMDDDD@papayawhip?$AA@ 0000000180035f78     color.obj
 0002:00009f88       ??_C@_09GELOGGEC@peachpuff?$AA@ 0000000180035f88     color.obj
 0002:00009f94       ??_C@_04MJMKNOJB@peru?$AA@ 0000000180035f94     color.obj
 0002:00009f9c       ??_C@_04ECGBAEOC@pink?$AA@ 0000000180035f9c     color.obj
 0002:00009fa4       ??_C@_04DDJGBPMH@plum?$AA@ 0000000180035fa4     color.obj
 0002:00009fb0       ??_C@_0L@MNADNFAH@powderblue?$AA@ 0000000180035fb0     color.obj
 0002:00009fbc       ??_C@_06GEHONCEN@purple?$AA@ 0000000180035fbc     color.obj
 0002:00009fc8       ??_C@_0O@JGOBAAIL@rebeccapurple?$AA@ 0000000180035fc8     color.obj
 0002:00009fd8       ??_C@_03FAAAOPJM@red?$AA@  0000000180035fd8     color.obj
 0002:00009fe0       ??_C@_09DJJHENIF@rosybrown?$AA@ 0000000180035fe0     color.obj
 0002:00009ff0       ??_C@_09FEEJNHFN@royalblue?$AA@ 0000000180035ff0     color.obj
 0002:0000a000       ??_C@_0M@MOEGEDCP@saddlebrown?$AA@ 0000000180036000     color.obj
 0002:0000a00c       ??_C@_06FBMAEJGO@salmon?$AA@ 000000018003600c     color.obj
 0002:0000a018       ??_C@_0L@HLMGLGHH@sandybrown?$AA@ 0000000180036018     color.obj
 0002:0000a028       ??_C@_08EKGLDJFB@seagreen?$AA@ 0000000180036028     color.obj
 0002:0000a038       ??_C@_08MFJLKPPC@seashell?$AA@ 0000000180036038     color.obj
 0002:0000a044       ??_C@_06CEGMHAGE@sienna?$AA@ 0000000180036044     color.obj
 0002:0000a04c       ??_C@_06NBGLMDBG@silver?$AA@ 000000018003604c     color.obj
 0002:0000a058       ??_C@_07MFCMKLDM@skyblue?$AA@ 0000000180036058     color.obj
 0002:0000a060       ??_C@_09DPLBEIJJ@slateblue?$AA@ 0000000180036060     color.obj
 0002:0000a070       ??_C@_09LKMPLBLE@slategray?$AA@ 0000000180036070     color.obj
 0002:0000a080       ??_C@_09LNMGBJGI@slategrey?$AA@ 0000000180036080     color.obj
 0002:0000a08c       ??_C@_04HPKDHBOB@snow?$AA@ 000000018003608c     color.obj
 0002:0000a098       ??_C@_0M@IPKJFOEB@springgreen?$AA@ 0000000180036098     color.obj
 0002:0000a0a8       ??_C@_09EKEFGALI@steelblue?$AA@ 00000001800360a8     color.obj
 0002:0000a0b4       ??_C@_03IIINPABG@tan?$AA@  00000001800360b4     color.obj
 0002:0000a0b8       ??_C@_04LJCKMMGA@teal?$AA@ 00000001800360b8     color.obj
 0002:0000a0c0       ??_C@_07CGANODJO@thistle?$AA@ 00000001800360c0     color.obj
 0002:0000a0c8       ??_C@_06NALDPNEI@tomato?$AA@ 00000001800360c8     color.obj
 0002:0000a0d0       ??_C@_09LFBHPEAP@turquoise?$AA@ 00000001800360d0     color.obj
 0002:0000a0dc       ??_C@_06KNANIGBM@violet?$AA@ 00000001800360dc     color.obj
 0002:0000a0e4       ??_C@_05PPOGEFHN@wheat?$AA@ 00000001800360e4     color.obj
 0002:0000a0ec       ??_C@_05PMAELIEO@white?$AA@ 00000001800360ec     color.obj
 0002:0000a0f8       ??_C@_0L@FDFMBGNF@whitesmoke?$AA@ 00000001800360f8     color.obj
 0002:0000a104       ??_C@_06ENJNJKEL@yellow?$AA@ 0000000180036104     color.obj
 0002:0000a110       ??_C@_0M@GCLLLGON@yellowgreen?$AA@ 0000000180036110     color.obj
 0002:0000a120       ??_C@_0O@CAFKCKKM@?$CD?$CF?42x?$CF?42x?$CF?42x?$AA@ 0000000180036120     color.obj
 0002:0000a130       ??_C@_0BH@IMKFBGII@rgba?$CI?$CFd?0?5?$CFd?0?5?$CFd?0?5?$CF?42f?$CJ?$AA@ 0000000180036130     color.obj
 0002:0000a148       ??_C@_04KDAMFBD@rgb?$CI?$AA@ 0000000180036148     color.obj
 0002:0000a150       ??_C@_05KGKCGJPO@rgba?$CI?$AA@ 0000000180036150     color.obj
 0002:0000a158       ??_C@_05HBFAAOHC@hsla?$CI?$AA@ 0000000180036158     color.obj
 0002:0000a160       ??_C@_04PFIFKHPC@hsl?$CI?$AA@ 0000000180036160     color.obj
 0002:0000a168       ??_C@_04CLILDBFP@rgba?$AA@ 0000000180036168     color.obj
 0002:0000a170       ??_C@_03FNOJMHE@rgb?$AA@   0000000180036170     color.obj
 0002:0000a174       ??_C@_04NEDOFDLO@hsla?$AA@ 0000000180036174     color.obj
 0002:0000a17c       ??_C@_03LPNGANKN@hsl?$AA@  000000018003617c     color.obj
 0002:0000aae0       ??_C@_00CNPNBAHC@?$AA@     0000000180036ae0     Image.obj
 0002:0000aae4       ??_C@_05NBEAGECF@Image?$AA@ 0000000180036ae4     Image.obj
 0002:0000aaf0       ??_C@_08IPNIAGNA@complete?$AA@ 0000000180036af0     Image.obj
 0002:0000aafc       ??_C@_06FKJAAAAK@onload?$AA@ 0000000180036afc     Image.obj
 0002:0000ab08       ??_C@_07MAAHHAB@onerror?$AA@ 0000000180036b08     Image.obj
 0002:0000ab10       ??_C@_08ELMFDEKI@dataMode?$AA@ 0000000180036b10     Image.obj
 0002:0000ab20       ??_C@_0L@ICMMJJAL@MODE_IMAGE?$AA@ 0000000180036b20     Image.obj
 0002:0000ab30       ??_C@_09IDBFNFDI@MODE_MIME?$AA@ 0000000180036b30     Image.obj
 0002:0000ab3c       ??_C@_02JDPG@rb?$AA@       0000000180036b3c     Image.obj
 0002:0000ab40       ??_7Image@@6B@             0000000180036b40     Image.obj
 0002:0000ab58       ??_C@_09NIGIGFDC@ImageData?$AA@ 0000000180036b58     ImageData.obj
 0002:0000ab68       ??_C@_0BK@BFELGOEH@The?5source?5width?5is?5zero?4?$AA@ 0000000180036b68     ImageData.obj
 0002:0000ab88       ??_C@_0BL@EMOEEHOI@The?5source?5height?5is?5zero?4?$AA@ 0000000180036b88     ImageData.obj
 0002:0000aba8       ??_C@_0CH@IEOMAMPI@The?5input?5data?5has?5a?5zero?5byte?5l@ 0000000180036ba8     ImageData.obj
 0002:0000abd0       ??_C@_0DD@ECEPEMHG@The?5input?5data?5byte?5length?5is?5no@ 0000000180036bd0     ImageData.obj
 0002:0000ac08       ??_C@_0DN@JBNNAEFP@The?5input?5data?5byte?5length?5is?5no@ 0000000180036c08     ImageData.obj
 0002:0000ac50       ??_C@_0EB@FFMBNCCC@The?5input?5data?5byte?5length?5is?5no@ 0000000180036c50     ImageData.obj
 0002:0000aca0       ??_C@_0EB@JCAHACPK@Expected?5?$CIUint8ClampedArray?0?5wid@ 0000000180036ca0     ImageData.obj
 0002:0000ace4       ??_C@_04PJOLNDGD@data?$AA@ 0000000180036ce4     ImageData.obj
 0002:0000acf0       ??_7ObjectWrap@Nan@@6B@    0000000180036cf0     Canvas.obj
 0002:0000acf0       ??_7ImageData@@6B@         0000000180036cf0     ImageData.obj
 0002:0000ad08       ??_C@_0N@OGDOEBIM@cairoVersion?$AA@ 0000000180036d08     init.obj
 0002:0000ad18       ??_C@_0P@PAFBMNKD@?4?4?2src?2init?4cc?$AA@ 0000000180036d18     init.obj
 0002:0000ad28       ??_C@_06DODEBHEI@canvas?$AA@ 0000000180036d28     init.obj
 0002:0000b118       __real@3dcccccd            0000000180037118     color.obj
 0002:0000b11c       __real@3f000000            000000018003711c     color.obj
 0002:0000b120       __real@3f13cd36            0000000180037120     CanvasRenderingContext2d.obj
 0002:0000b124       __real@3f800000            0000000180037124     color.obj
 0002:0000b128       __real@3fe0000000000000    0000000180037128     CanvasRenderingContext2d.obj
 0002:0000b130       __real@3fe5555555555555    0000000180037130     CanvasRenderingContext2d.obj
 0002:0000b138       __real@3ff0000000000000    0000000180037138     color.obj
 0002:0000b140       __real@3ff6666666666666    0000000180037140     CanvasRenderingContext2d.obj
 0002:0000b148       __real@40000000            0000000180037148     color.obj
 0002:0000b150       __real@4000000000000000    0000000180037150     Image.obj
 0002:0000b158       __real@400921fb54442d18    0000000180037158     CanvasRenderingContext2d.obj
 0002:0000b160       __real@401921fb54442d18    0000000180037160     CanvasRenderingContext2d.obj
 0002:0000b168       __real@40400000            0000000180037168     color.obj
 0002:0000b170       __real@406fe00000000000    0000000180037170     color.obj
 0002:0000b178       __real@40800000            0000000180037178     color.obj
 0002:0000b17c       __real@40c00000            000000018003717c     color.obj
 0002:0000b180       __real@41200000            0000000180037180     color.obj
 0002:0000b184       __real@42c80000            0000000180037184     color.obj
 0002:0000b188       __real@437f0000            0000000180037188     color.obj
 0002:0000b18c       __real@43b40000            000000018003718c     color.obj
 0002:0000b190       __real@477fff00            0000000180037190     CanvasRenderingContext2d.obj
 0002:0000b198       __real@7ff0000000000000    0000000180037198     CanvasRenderingContext2d.obj
 0002:0000b1a0       __real@bff0000000000000    00000001800371a0     CanvasRenderingContext2d.obj
 0002:0000b1a8       __real@c0c00000            00000001800371a8     color.obj
 0002:0000b1b0       __xmm@3ff00000000000000000000000000000 00000001800371b0     CanvasRenderingContext2d.obj
 0002:0000b1c0       __xmm@80000000000000008000000000000000 00000001800371c0     CanvasRenderingContext2d.obj
 0002:0000b1d0       __xmm@80000000800000008000000080000000 00000001800371d0     CanvasRenderingContext2d.obj
 0002:0000b730       __real@3c91a62633145c07    0000000180037730     libucrt:acos.obj
 0002:0000b738       __real@3f0951665d321061    0000000180037738     libucrt:acos.obj
 0002:0000b740       __real@3f51e5f887a62135    0000000180037740     libucrt:acos.obj
 0002:0000b748       __real@3fac28d390c29690    0000000180037748     libucrt:acos.obj
 0002:0000b750       __real@3fbb1a422982ce76    0000000180037750     libucrt:acos.obj
 0002:0000b758       __real@3fcd1e4180029834    0000000180037758     libucrt:acos.obj
 0002:0000b760       __real@3fd1a2bec1b7ef59    0000000180037760     libucrt:acos.obj
 0002:0000b768       __real@3fdc7b297e269eac    0000000180037768     libucrt:acos.obj
 0002:0000b770       __real@3fee324ab418f78d    0000000180037770     libucrt:acos.obj
 0002:0000b778       __real@3ff5d6b12001f228    0000000180037778     libucrt:acos.obj
 0002:0000b780       __real@3ff921fb54442d18    0000000180037780     libucrt:acos.obj
 0002:0000b788       __real@40062021571dccfc    0000000180037788     libucrt:acos.obj
 0002:0000b790       __real@400a4646f903cdea    0000000180037790     libucrt:acos.obj
 0002:0000b798       ??_C@_05FFFCHCED@acosf?$AA@ 0000000180037798     libucrt:acosf.obj
 0002:0000b7a0       __real@3b81ce6b            00000001800377a0     libucrt:acosf.obj
 0002:0000b7a4       __real@3d678bdd            00000001800377a4     libucrt:acosf.obj
 0002:0000b7a8       __real@3e3c94dc            00000001800377a8     libucrt:acosf.obj
 0002:0000b7ac       __real@3f561f0d            00000001800377ac     libucrt:acosf.obj
 0002:0000b7b0       __real@3f8d6fa5            00000001800377b0     libucrt:acosf.obj
 0002:0000b7b4       __real@3fc90fdb            00000001800377b4     libucrt:acosf.obj
 0002:0000b7b8       __real@40490fdb            00000001800377b8     libucrt:acosf.obj
 0002:0000b7bc       __real@bc5b3fe1            00000001800377bc     libucrt:acosf.obj
 0002:0000b7c0       __real@bf800000            00000001800377c0     libucrt:acosf.obj
 0002:0000b7c4       ??_C@_05OOAOEJGP@fmodf?$AA@ 00000001800377c4     libucrt:fmodf.obj
 0002:0000b7cc       ??_C@_05KGFAIMPG@sqrtf?$AA@ 00000001800377cc     libucrt:sqrtf.obj
 0002:0000bc90       __L_2_by_pi_bits           0000000180037c90     libucrt:l2_by_pi_bits.obj
 0002:0000bd90       _load_config_used          0000000180037d90     LIBCMT:loadcfg.obj
 0002:0000be28       ??_R4exception@std@@6B@    0000000180037e28     libcpmt:xthrow.obj
 0002:0000be50       ??_R3exception@std@@8      0000000180037e50     libcpmt:xthrow.obj
 0002:0000be68       ??_R2exception@std@@8      0000000180037e68     libcpmt:xthrow.obj
 0002:0000be78       ??_R1A@?0A@EA@exception@std@@8 0000000180037e78     libcpmt:xthrow.obj
 0002:0000bea0       ??_R4bad_alloc@std@@6B@    0000000180037ea0     libcpmt:xthrow.obj
 0002:0000bec8       ??_R3bad_alloc@std@@8      0000000180037ec8     libcpmt:xthrow.obj
 0002:0000bee0       ??_R2bad_alloc@std@@8      0000000180037ee0     libcpmt:xthrow.obj
 0002:0000bef8       ??_R1A@?0A@EA@bad_alloc@std@@8 0000000180037ef8     libcpmt:xthrow.obj
 0002:0000bf20       ??_R4logic_error@std@@6B@  0000000180037f20     libcpmt:xthrow.obj
 0002:0000bf48       ??_R3logic_error@std@@8    0000000180037f48     libcpmt:xthrow.obj
 0002:0000bf60       ??_R2logic_error@std@@8    0000000180037f60     libcpmt:xthrow.obj
 0002:0000bf78       ??_R1A@?0A@EA@logic_error@std@@8 0000000180037f78     libcpmt:xthrow.obj
 0002:0000bfa0       ??_R4length_error@std@@6B@ 0000000180037fa0     libcpmt:xthrow.obj
 0002:0000bfc8       ??_R3length_error@std@@8   0000000180037fc8     libcpmt:xthrow.obj
 0002:0000bfe0       ??_R2length_error@std@@8   0000000180037fe0     libcpmt:xthrow.obj
 0002:0000c000       ??_R1A@?0A@EA@length_error@std@@8 0000000180038000     libcpmt:xthrow.obj
 0002:0000c028       ??_R4type_info@@6B@        0000000180038028     LIBCMT:std_type_info_static.obj
 0002:0000c050       ??_R3type_info@@8          0000000180038050     LIBCMT:std_type_info_static.obj
 0002:0000c068       ??_R2type_info@@8          0000000180038068     LIBCMT:std_type_info_static.obj
 0002:0000c078       ??_R1A@?0A@EA@type_info@@8 0000000180038078     LIBCMT:std_type_info_static.obj
 0002:0000c0a0       ??_R4bad_array_new_length@std@@6B@ 00000001800380a0     LIBCMT:throw_bad_alloc.obj
 0002:0000c0c8       ??_R3bad_array_new_length@std@@8 00000001800380c8     LIBCMT:throw_bad_alloc.obj
 0002:0000c0e0       ??_R2bad_array_new_length@std@@8 00000001800380e0     LIBCMT:throw_bad_alloc.obj
 0002:0000c100       ??_R1A@?0A@EA@bad_array_new_length@std@@8 0000000180038100     LIBCMT:throw_bad_alloc.obj
 0002:0000c128       ??_R4bad_exception@std@@6B@ 0000000180038128     libvcruntime:frame.obj
 0002:0000c150       ??_R3bad_exception@std@@8  0000000180038150     libvcruntime:frame.obj
 0002:0000c168       ??_R2bad_exception@std@@8  0000000180038168     libvcruntime:frame.obj
 0002:0000c180       ??_R1A@?0A@EA@bad_exception@std@@8 0000000180038180     libvcruntime:frame.obj
 0002:0000c550       __rtc_iaa                  0000000180038550     LIBCMT:_initsect_.obj
 0002:0000c558       __rtc_izz                  0000000180038558     LIBCMT:_initsect_.obj
 0002:0000c560       __rtc_taa                  0000000180038560     LIBCMT:_initsect_.obj
 0002:0000c568       __rtc_tzz                  0000000180038568     LIBCMT:_initsect_.obj
 0002:0000efd0       _TI2?AVbad_alloc@std@@     000000018003afd0     libcpmt:xthrow.obj
 0002:0000eff0       _CTA2?AVbad_alloc@std@@    000000018003aff0     libcpmt:xthrow.obj
 0002:0000f008       _CT??_R0?AVbad_alloc@std@@@8??0bad_alloc@std@@QEAA@AEBV01@@Z24 000000018003b008     libcpmt:xthrow.obj
 0002:0000f030       _CT??_R0?AVexception@std@@@8??0exception@std@@QEAA@AEBV01@@Z24 000000018003b030     libcpmt:xthrow.obj
 0002:0000f058       _CT??_R0?AVlogic_error@std@@@8??0logic_error@std@@QEAA@AEBV01@@Z24 000000018003b058     libcpmt:xthrow.obj
 0002:0000f080       _TI3?AVlength_error@std@@  000000018003b080     libcpmt:xthrow.obj
 0002:0000f0a0       _CTA3?AVlength_error@std@@ 000000018003b0a0     libcpmt:xthrow.obj
 0002:0000f0c0       _CT??_R0?AVlength_error@std@@@8??0length_error@std@@QEAA@AEBV01@@Z24 000000018003b0c0     libcpmt:xthrow.obj
 0002:0000f0e8       _TI3?AVbad_array_new_length@std@@ 000000018003b0e8     LIBCMT:throw_bad_alloc.obj
 0002:0000f108       _CTA3?AVbad_array_new_length@std@@ 000000018003b108     LIBCMT:throw_bad_alloc.obj
 0002:0000f128       _CT??_R0?AVbad_array_new_length@std@@@8??0bad_array_new_length@std@@QEAA@AEBV01@@Z24 000000018003b128     LIBCMT:throw_bad_alloc.obj
 0002:0000f150       _TI2?AVbad_exception@std@@ 000000018003b150     libvcruntime:frame.obj
 0002:0000f170       _CTA2?AVbad_exception@std@@ 000000018003b170     libvcruntime:frame.obj
 0002:0000f188       _CT??_R0?AVbad_exception@std@@@8??0bad_exception@std@@QEAA@AEBV01@@Z24 000000018003b188     libvcruntime:frame.obj
 0002:0000f200       __IMPORT_DESCRIPTOR_KERNEL32 000000018003b200     kernel32:KERNEL32.dll
 0002:0000f214       __IMPORT_DESCRIPTOR_nw     000000018003b214     nw:nw.dll
 0002:0000f228       __IMPORT_DESCRIPTOR_node   000000018003b228     node:node.dll
 0002:0000f23c       __IMPORT_DESCRIPTOR_libcairo-2 000000018003b23c     cairo:libcairo-2.dll
 0002:0000f250       __IMPORT_DESCRIPTOR_libpng14-14 000000018003b250     libpng:libpng14-14.dll
 0002:0000f264       __NULL_IMPORT_DESCRIPTOR   000000018003b264     kernel32:KERNEL32.dll
 0003:00000000       __scrt_native_dllmain_reason 000000018003f000     LIBCMT:utility.obj
 0003:00000008       __security_cookie          000000018003f008     LIBCMT:gs_cookie.obj
 0003:00000010       __security_cookie_complement 000000018003f010     LIBCMT:gs_cookie.obj
 0003:00000018       __isa_available            000000018003f018     LIBCMT:_cpu_disp_.obj
 0003:0000001c       __isa_enabled              000000018003f01c     LIBCMT:_cpu_disp_.obj
 0003:00000020       __memcpy_nt_iters          000000018003f020     LIBCMT:_cpu_disp_.obj
 0003:00000040       _iob                       000000018003f040     libucrt:_file.obj
 0003:00000148       __abort_behavior           000000018003f148     libucrt:abort.obj
 0003:00000160       __badioinfo                000000018003f160     libucrt:ioinit.obj
 0003:000001a0       __acrt_initial_locale_data 000000018003f1a0     libucrt:nlsdata.obj
 0003:000002f8       __acrt_initial_locale_pointers 000000018003f2f8     libucrt:nlsdata.obj
 0003:00000308       __acrt_wide_c_locale_string 000000018003f308     libucrt:nlsdata.obj
 0003:00000310       _lookuptrailbytes          000000018003f310     libucrt:read.obj
 0003:00000410       __acrt_initial_multibyte_data 000000018003f410     libucrt:mbctype.obj
 0003:00000638       __acrt_current_multibyte_data 000000018003f638     libucrt:mbctype.obj
 0003:00000740       _mbctype                   000000018003f740     libucrt:mbctype.obj
 0003:00000850       _mbcasemap                 000000018003f850     libucrt:mbctype.obj
 0003:00000950       _pwctype                   000000018003f950     libucrt:ctype.obj
 0003:0000095c       __globallocalestatus       000000018003f95c     libucrt:glstatus.obj
 0003:00000960       __acrt_lconv_c             000000018003f960     libucrt:localeconv.obj
 0003:000009f8       __acrt_lconv_static_decimal 000000018003f9f8     libucrt:localeconv.obj
 0003:000009fc       __acrt_lconv_static_W_decimal 000000018003f9fc     libucrt:localeconv.obj
 0003:00000a00       __dcrt_lowio_console_output_handle 000000018003fa00     libucrt:initcon.obj
 0003:00000a10       _fltused                   000000018003fa10     LIBCMT:fltused.obj
 0003:00000a60       ??_R0?AVbad_alloc@std@@@8  000000018003fa60     libcpmt:xthrow.obj
 0003:00000a88       ??_R0?AVexception@std@@@8  000000018003fa88     libcpmt:xthrow.obj
 0003:00000ab0       ??_R0?AVlogic_error@std@@@8 000000018003fab0     libcpmt:xthrow.obj
 0003:00000ad8       ??_R0?AVlength_error@std@@@8 000000018003fad8     libcpmt:xthrow.obj
 0003:00000b00       ??_R0?AVtype_info@@@8      000000018003fb00     LIBCMT:std_type_info_static.obj
 0003:00000b20       ??_R0?AVbad_array_new_length@std@@@8 000000018003fb20     LIBCMT:throw_bad_alloc.obj
 0003:00000b50       ??_R0?AVbad_exception@std@@@8 000000018003fb50     libvcruntime:frame.obj
 0003:00000b80       __scrt_current_native_startup_state 000000018003fb80     LIBCMT:utility.obj
 0003:00000b88       __scrt_native_startup_lock 000000018003fb88     LIBCMT:utility.obj
 0003:00001140       __favor                    0000000180040140     LIBCMT:_cpu_disp_.obj
 0003:00001144       __scrt_debugger_hook_flag  0000000180040144     LIBCMT:utility_desktop.obj
 0003:00001150       ?__type_info_root_node@@3U__type_info_node@@A 0000000180040150     LIBCMT:tncleanup.obj
 0003:00001160       ?_OptionsStorage@?1??__local_stdio_scanf_options@@9@4_KA 0000000180040160     LIBCMT:default_local_stdio_options.obj
 0003:00001168       ?g_OutOfMemoryExceptionCallback@@3P6APEAXXZEA 0000000180040168     libvcruntime:frame.obj
 0003:00001288       __pPurecall                0000000180040288     libvcruntime:purevirt_data.obj
 0003:00001290       ?pArgList@UnDecorator@@0PEAVReplicator@@EA 0000000180040290     libvcruntime:undname.obj
 0003:00001298       ?pZNameList@UnDecorator@@0PEAVReplicator@@EA 0000000180040298     libvcruntime:undname.obj
 0003:000012a0       ?pTemplateArgList@UnDecorator@@0PEAVReplicator@@EA 00000001800402a0     libvcruntime:undname.obj
 0003:000012a8       ?gName@UnDecorator@@0PEBDEB 00000001800402a8     libvcruntime:undname.obj
 0003:000012b0       ?name@UnDecorator@@0PEBDEB 00000001800402b0     libvcruntime:undname.obj
 0003:000012b8       ?outputString@UnDecorator@@0PEADEA 00000001800402b8     libvcruntime:undname.obj
 0003:000012c0       ?maxStringLength@UnDecorator@@0HA 00000001800402c0     libvcruntime:undname.obj
 0003:000012c4       ?disableFlags@UnDecorator@@0KA 00000001800402c4     libvcruntime:undname.obj
 0003:000012c8       ?fExplicitTemplateParams@UnDecorator@@0_NA 00000001800402c8     libvcruntime:undname.obj
 0003:000012c9       ?fGetTemplateArgumentList@UnDecorator@@0_NA 00000001800402c9     libvcruntime:undname.obj
 0003:000012d0       ?m_pGetParameter@UnDecorator@@0P6APEADJ@ZEA 00000001800402d0     libvcruntime:undname.obj
 0003:00001308       _nstream                   0000000180040308     libucrt:_file.obj
 0003:00001310       __piob                     0000000180040310     libucrt:_file.obj
 0003:00001318       _cflush                    0000000180040318     libucrt:_file.obj
 0003:00001448       _environ_table             0000000180040448     libucrt:environment_initialization.obj
 0003:00001450       _wenviron_table            0000000180040450     libucrt:environment_initialization.obj
 0003:00001458       __dcrt_initial_wide_environment 0000000180040458     libucrt:environment_initialization.obj
 0003:00001460       __dcrt_initial_narrow_environment 0000000180040460     libucrt:environment_initialization.obj
 0003:00001468       __acrt_atexit_table        0000000180040468     libucrt:onexit.obj
 0003:00001480       __acrt_at_quick_exit_table 0000000180040480     libucrt:onexit.obj
 0003:00001670       __pioinfo                  0000000180040670     libucrt:ioinit.obj
 0003:00001a70       _nhandle                   0000000180040a70     libucrt:ioinit.obj
 0003:00001a80       __acrt_stdout_buffer       0000000180040a80     libucrt:_sftbuf.obj
 0003:00001a88       __acrt_stderr_buffer       0000000180040a88     libucrt:_sftbuf.obj
 0003:00001a90       __acrt_locale_changed_data 0000000180040a90     libucrt:wsetlocale.obj
 0003:00001a98       __acrt_current_locale_data 0000000180040a98     libucrt:nlsdata.obj
 0003:00001cac       __mbcodepage               0000000180040cac     libucrt:mbctype.obj
 0003:00001cb0       __ismbcodepage             0000000180040cb0     libucrt:mbctype.obj
 0003:00001cb8       __mbulinfo                 0000000180040cb8     libucrt:mbctype.obj
 0003:00001cc8       __mblocalename             0000000180040cc8     libucrt:mbctype.obj
 0003:00001cd4       __argc                     0000000180040cd4     libucrt:argv_data.obj
 0003:00001cd8       __argv                     0000000180040cd8     libucrt:argv_data.obj
 0003:00001ce0       __wargv                    0000000180040ce0     libucrt:argv_data.obj
 0003:00001ce8       _acmdln                    0000000180040ce8     libucrt:argv_data.obj
 0003:00001cf0       _wcmdln                    0000000180040cf0     libucrt:argv_data.obj
 0003:00001cf8       _pgmptr                    0000000180040cf8     libucrt:argv_data.obj
 0003:00001d00       __acrt_heap                0000000180040d00     libucrt:heap_handle.obj
 0003:00001d14       __acrt_lconv_static_null   0000000180040d14     libucrt:localeconv.obj
 0003:00001d18       __acrt_lconv_static_W_null 0000000180040d18     libucrt:localeconv.obj
 0003:00001d1c       _commode                   0000000180040d1c     libucrt:ncommode.obj
 0003:00001d20       _umaskval                  0000000180040d20     libucrt:umask.obj
 0003:00001d24       __fma3_is_available        0000000180040d24     libucrt:fma3_available.obj
 0003:00001d28       __use_fma3_lib             0000000180040d28     libucrt:fma3_available.obj
 0003:00001d2c       _fmode                     0000000180040d2c     libucrt:txtmode.obj
 0003:00001d30       ?_OptionsStorage@?1??__local_stdio_printf_options@@9@4_KA 0000000180040d30     color.obj
 0003:00001d48       ?constructor@Canvas@@2V?$Persistent@VFunctionTemplate@v8@@V?$NonCopyablePersistentTraits@VFunctionTemplate@v8@@@2@@Nan@@A 0000000180040d48     Canvas.obj
 0003:00001d50       ?constructor@Gradient@@2V?$Persistent@VFunctionTemplate@v8@@V?$NonCopyablePersistentTraits@VFunctionTemplate@v8@@@2@@Nan@@A 0000000180040d50     CanvasGradient.obj
 0003:00001d58       ?constructor@Pattern@@2V?$Persistent@VFunctionTemplate@v8@@V?$NonCopyablePersistentTraits@VFunctionTemplate@v8@@@2@@Nan@@A 0000000180040d58     CanvasPattern.obj
 0003:00001d60       ?constructor@Context2d@@2V?$Persistent@VFunctionTemplate@v8@@V?$NonCopyablePersistentTraits@VFunctionTemplate@v8@@@2@@Nan@@A 0000000180040d60     CanvasRenderingContext2d.obj
 0003:00001d68       ?constructor@Image@@2V?$Persistent@VFunctionTemplate@v8@@V?$NonCopyablePersistentTraits@VFunctionTemplate@v8@@@2@@Nan@@A 0000000180040d68     Image.obj
 0003:00001d70       ?constructor@ImageData@@2V?$Persistent@VFunctionTemplate@v8@@V?$NonCopyablePersistentTraits@VFunctionTemplate@v8@@@2@@Nan@@A 0000000180040d70     ImageData.obj
 0003:00001d78       __dyn_tls_init_callback    0000000180040d78     <common>
 0003:00001d80       __scrt_ucrt_dll_is_in_use  0000000180040d80     <common>

 entry point at        0001:00010ea0

 Static symbols

 0000:fffb9000       .debug$S                   0000000180000000     nw:nw.dll
 0000:fffb9000       .debug$S                   0000000180000000     canvas.exp
 0000:fffb9000       .debug$S                   0000000180000000     kernel32:KERNEL32.dll
 0000:fffb9000       .debug$S                   0000000180000000     kernel32:KERNEL32.dll
 0000:fffb9000       .debug$S                   0000000180000000     kernel32:KERNEL32.dll
 0000:fffb9000       .debug$S                   0000000180000000     kernel32:KERNEL32.dll
 0000:fffb9000       .debug$S                   0000000180000000     kernel32:KERNEL32.dll
 0000:fffb9000       .debug$S                   0000000180000000     kernel32:KERNEL32.dll
 0000:fffb9000       .debug$S                   0000000180000000     kernel32:KERNEL32.dll
 0000:fffb9000       .debug$S                   0000000180000000     kernel32:KERNEL32.dll
 0000:fffb9000       .debug$S                   0000000180000000     kernel32:KERNEL32.dll
 0000:fffb9000       .debug$S                   0000000180000000     kernel32:KERNEL32.dll
 0000:fffb9000       .debug$S                   0000000180000000     kernel32:KERNEL32.dll
 0000:fffb9000       .debug$S                   0000000180000000     kernel32:KERNEL32.dll
 0000:fffb9000       .debug$S                   0000000180000000     kernel32:KERNEL32.dll
 0000:fffb9000       .debug$S                   0000000180000000     kernel32:KERNEL32.dll
 0000:fffb9000       .debug$S                   0000000180000000     kernel32:KERNEL32.dll
 0000:fffb9000       .debug$S                   0000000180000000     kernel32:KERNEL32.dll
 0000:fffb9000       .debug$S                   0000000180000000     kernel32:KERNEL32.dll
 0000:fffb9000       .debug$S                   0000000180000000     kernel32:KERNEL32.dll
 0000:fffb9000       .debug$S                   0000000180000000     kernel32:KERNEL32.dll
 0000:fffb9000       .debug$S                   0000000180000000     kernel32:KERNEL32.dll
 0000:fffb9000       .debug$S                   0000000180000000     kernel32:KERNEL32.dll
 0000:fffb9000       .debug$S                   0000000180000000     kernel32:KERNEL32.dll
 0000:fffb9000       .debug$S                   0000000180000000     kernel32:KERNEL32.dll
 0000:fffb9000       .debug$S                   0000000180000000     kernel32:KERNEL32.dll
 0000:fffb9000       .debug$S                   0000000180000000     kernel32:KERNEL32.dll
 0000:fffb9000       .debug$S                   0000000180000000     kernel32:KERNEL32.dll
 0000:fffb9000       .debug$S                   0000000180000000     kernel32:KERNEL32.dll
 0000:fffb9000       .debug$S                   0000000180000000     kernel32:KERNEL32.dll
 0000:fffb9000       .debug$S                   0000000180000000     kernel32:KERNEL32.dll
 0000:fffb9000       .debug$S                   0000000180000000     kernel32:KERNEL32.dll
 0000:fffb9000       .debug$S                   0000000180000000     kernel32:KERNEL32.dll
 0000:fffb9000       .debug$S                   0000000180000000     kernel32:KERNEL32.dll
 0000:fffb9000       .debug$S                   0000000180000000     kernel32:KERNEL32.dll
 0000:fffb9000       .debug$S                   0000000180000000     kernel32:KERNEL32.dll
 0000:fffb9000       .debug$S                   0000000180000000     kernel32:KERNEL32.dll
 0000:fffb9000       .debug$S                   0000000180000000     kernel32:KERNEL32.dll
 0000:fffb9000       .debug$S                   0000000180000000     kernel32:KERNEL32.dll
 0000:fffb9000       .debug$S                   0000000180000000     kernel32:KERNEL32.dll
 0000:fffb9000       .debug$S                   0000000180000000     kernel32:KERNEL32.dll
 0000:fffb9000       .debug$S                   0000000180000000     kernel32:KERNEL32.dll
 0000:fffb9000       .debug$S                   0000000180000000     kernel32:KERNEL32.dll
 0000:fffb9000       .debug$S                   0000000180000000     kernel32:KERNEL32.dll
 0000:fffb9000       .debug$S                   0000000180000000     kernel32:KERNEL32.dll
 0000:fffb9000       .debug$S                   0000000180000000     kernel32:KERNEL32.dll
 0000:fffb9000       .debug$S                   0000000180000000     kernel32:KERNEL32.dll
 0000:fffb9000       .debug$S                   0000000180000000     kernel32:KERNEL32.dll
 0000:fffb9000       .debug$S                   0000000180000000     kernel32:KERNEL32.dll
 0000:fffb9000       .debug$S                   0000000180000000     kernel32:KERNEL32.dll
 0000:fffb9000       .debug$S                   0000000180000000     kernel32:KERNEL32.dll
 0000:fffb9000       .debug$S                   0000000180000000     kernel32:KERNEL32.dll
 0000:fffb9000       .debug$S                   0000000180000000     kernel32:KERNEL32.dll
 0000:fffb9000       .debug$S                   0000000180000000     kernel32:KERNEL32.dll
 0000:fffb9000       .debug$S                   0000000180000000     kernel32:KERNEL32.dll
 0000:fffb9000       .debug$S                   0000000180000000     kernel32:KERNEL32.dll
 0000:fffb9000       .debug$S                   0000000180000000     kernel32:KERNEL32.dll
 0000:fffb9000       .debug$S                   0000000180000000     kernel32:KERNEL32.dll
 0000:fffb9000       .debug$S                   0000000180000000     kernel32:KERNEL32.dll
 0000:fffb9000       .debug$S                   0000000180000000     kernel32:KERNEL32.dll
 0000:fffb9000       .debug$S                   0000000180000000     kernel32:KERNEL32.dll
 0000:fffb9000       .debug$S                   0000000180000000     kernel32:KERNEL32.dll
 0000:fffb9000       .debug$S                   0000000180000000     kernel32:KERNEL32.dll
 0000:fffb9000       .debug$S                   0000000180000000     kernel32:KERNEL32.dll
 0000:fffb9000       .debug$S                   0000000180000000     kernel32:KERNEL32.dll
 0000:fffb9000       .debug$S                   0000000180000000     kernel32:KERNEL32.dll
 0000:fffb9000       .debug$S                   0000000180000000     kernel32:KERNEL32.dll
 0000:fffb9000       .debug$S                   0000000180000000     kernel32:KERNEL32.dll
 0000:fffb9000       .debug$S                   0000000180000000     kernel32:KERNEL32.dll
 0000:fffb9000       .debug$S                   0000000180000000     kernel32:KERNEL32.dll
 0000:fffb9000       .debug$S                   0000000180000000     kernel32:KERNEL32.dll
 0000:fffb9000       .debug$S                   0000000180000000     kernel32:KERNEL32.dll
 0000:fffb9000       .debug$S                   0000000180000000     kernel32:KERNEL32.dll
 0000:fffb9000       .debug$S                   0000000180000000     kernel32:KERNEL32.dll
 0000:fffb9000       .debug$S                   0000000180000000     kernel32:KERNEL32.dll
 0000:fffb9000       .debug$S                   0000000180000000     kernel32:KERNEL32.dll
 0000:fffb9000       .debug$S                   0000000180000000     kernel32:KERNEL32.dll
 0000:fffb9000       .debug$S                   0000000180000000     kernel32:KERNEL32.dll
 0000:fffb9000       .debug$S                   0000000180000000     kernel32:KERNEL32.dll
 0000:fffb9000       .debug$S                   0000000180000000     kernel32:KERNEL32.dll
 0000:fffb9000       .debug$S                   0000000180000000     kernel32:KERNEL32.dll
 0000:fffb9000       .debug$S                   0000000180000000     kernel32:KERNEL32.dll
 0000:fffb9000       .debug$S                   0000000180000000     kernel32:KERNEL32.dll
 0000:fffb9000       .debug$S                   0000000180000000     kernel32:KERNEL32.dll
 0000:fffb9000       .debug$S                   0000000180000000     kernel32:KERNEL32.dll
 0000:fffb9000       .debug$S                   0000000180000000     kernel32:KERNEL32.dll
 0000:fffb9000       .debug$S                   0000000180000000     kernel32:KERNEL32.dll
 0000:fffb9000       .debug$S                   0000000180000000     kernel32:KERNEL32.dll
 0000:fffb9000       .debug$S                   0000000180000000     kernel32:KERNEL32.dll
 0000:fffb9000       .debug$S                   0000000180000000     kernel32:KERNEL32.dll
 0000:fffb9000       .debug$S                   0000000180000000     kernel32:KERNEL32.dll
 0000:fffb9000       .debug$S                   0000000180000000     kernel32:KERNEL32.dll
 0000:fffb9000       .debug$S                   0000000180000000     kernel32:KERNEL32.dll
 0000:fffb9000       .debug$S                   0000000180000000     nw:nw.dll
 0000:fffb9000       .debug$S                   0000000180000000     nw:nw.dll
 0000:fffb9000       .debug$S                   0000000180000000     nw:nw.dll
 0000:fffb9000       .debug$S                   0000000180000000     nw:nw.dll
 0000:fffb9000       .debug$S                   0000000180000000     nw:nw.dll
 0000:fffb9000       .debug$S                   0000000180000000     nw:nw.dll
 0000:fffb9000       .debug$S                   0000000180000000     nw:nw.dll
 0000:fffb9000       .debug$S                   0000000180000000     nw:nw.dll
 0000:fffb9000       .debug$S                   0000000180000000     nw:nw.dll
 0000:fffb9000       .debug$S                   0000000180000000     nw:nw.dll
 0000:fffb9000       .debug$S                   0000000180000000     nw:nw.dll
 0000:fffb9000       .debug$S                   0000000180000000     nw:nw.dll
 0000:fffb9000       .debug$S                   0000000180000000     nw:nw.dll
 0000:fffb9000       .debug$S                   0000000180000000     nw:nw.dll
 0000:fffb9000       .debug$S                   0000000180000000     nw:nw.dll
 0000:fffb9000       .debug$S                   0000000180000000     nw:nw.dll
 0000:fffb9000       .debug$S                   0000000180000000     nw:nw.dll
 0000:fffb9000       .debug$S                   0000000180000000     nw:nw.dll
 0000:fffb9000       .debug$S                   0000000180000000     nw:nw.dll
 0000:fffb9000       .debug$S                   0000000180000000     nw:nw.dll
 0000:fffb9000       .debug$S                   0000000180000000     nw:nw.dll
 0000:fffb9000       .debug$S                   0000000180000000     nw:nw.dll
 0000:fffb9000       .debug$S                   0000000180000000     nw:nw.dll
 0000:fffb9000       .debug$S                   0000000180000000     nw:nw.dll
 0000:fffb9000       .debug$S                   0000000180000000     nw:nw.dll
 0000:fffb9000       .debug$S                   0000000180000000     nw:nw.dll
 0000:fffb9000       .debug$S                   0000000180000000     nw:nw.dll
 0000:fffb9000       .debug$S                   0000000180000000     nw:nw.dll
 0000:fffb9000       .debug$S                   0000000180000000     nw:nw.dll
 0000:fffb9000       .debug$S                   0000000180000000     nw:nw.dll
 0000:fffb9000       .debug$S                   0000000180000000     nw:nw.dll
 0000:fffb9000       .debug$S                   0000000180000000     nw:nw.dll
 0000:fffb9000       .debug$S                   0000000180000000     nw:nw.dll
 0000:fffb9000       .debug$S                   0000000180000000     nw:nw.dll
 0000:fffb9000       .debug$S                   0000000180000000     nw:nw.dll
 0000:fffb9000       .debug$S                   0000000180000000     nw:nw.dll
 0000:fffb9000       .debug$S                   0000000180000000     nw:nw.dll
 0000:fffb9000       .debug$S                   0000000180000000     nw:nw.dll
 0000:fffb9000       .debug$S                   0000000180000000     nw:nw.dll
 0000:fffb9000       .debug$S                   0000000180000000     nw:nw.dll
 0000:fffb9000       .debug$S                   0000000180000000     nw:nw.dll
 0000:fffb9000       .debug$S                   0000000180000000     nw:nw.dll
 0000:fffb9000       .debug$S                   0000000180000000     nw:nw.dll
 0000:fffb9000       .debug$S                   0000000180000000     nw:nw.dll
 0000:fffb9000       .debug$S                   0000000180000000     nw:nw.dll
 0000:fffb9000       .debug$S                   0000000180000000     nw:nw.dll
 0000:fffb9000       .debug$S                   0000000180000000     nw:nw.dll
 0000:fffb9000       .debug$S                   0000000180000000     nw:nw.dll
 0000:fffb9000       .debug$S                   0000000180000000     nw:nw.dll
 0000:fffb9000       .debug$S                   0000000180000000     nw:nw.dll
 0000:fffb9000       .debug$S                   0000000180000000     nw:nw.dll
 0000:fffb9000       .debug$S                   0000000180000000     nw:nw.dll
 0000:fffb9000       .debug$S                   0000000180000000     nw:nw.dll
 0000:fffb9000       .debug$S                   0000000180000000     nw:nw.dll
 0000:fffb9000       .debug$S                   0000000180000000     nw:nw.dll
 0000:fffb9000       .debug$S                   0000000180000000     nw:nw.dll
 0000:fffb9000       .debug$S                   0000000180000000     nw:nw.dll
 0000:fffb9000       .debug$S                   0000000180000000     nw:nw.dll
 0000:fffb9000       .debug$S                   0000000180000000     nw:nw.dll
 0000:fffb9000       .debug$S                   0000000180000000     nw:nw.dll
 0000:fffb9000       .debug$S                   0000000180000000     nw:nw.dll
 0000:fffb9000       .debug$S                   0000000180000000     nw:nw.dll
 0000:fffb9000       .debug$S                   0000000180000000     nw:nw.dll
 0000:fffb9000       .debug$S                   0000000180000000     nw:nw.dll
 0000:fffb9000       .debug$S                   0000000180000000     nw:nw.dll
 0000:fffb9000       .debug$S                   0000000180000000     nw:nw.dll
 0000:fffb9000       .debug$S                   0000000180000000     nw:nw.dll
 0000:fffb9000       .debug$S                   0000000180000000     nw:nw.dll
 0000:fffb9000       .debug$S                   0000000180000000     nw:nw.dll
 0000:fffb9000       .debug$S                   0000000180000000     nw:nw.dll
 0000:fffb9000       .debug$S                   0000000180000000     nw:nw.dll
 0000:fffb9000       .debug$S                   0000000180000000     nw:nw.dll
 0000:fffb9000       .debug$S                   0000000180000000     nw:nw.dll
 0000:fffb9000       .debug$S                   0000000180000000     nw:nw.dll
 0000:fffb9000       .debug$S                   0000000180000000     nw:nw.dll
 0000:fffb9000       .debug$S                   0000000180000000     nw:nw.dll
 0000:fffb9000       .debug$S                   0000000180000000     nw:nw.dll
 0000:fffb9000       .debug$S                   0000000180000000     nw:nw.dll
 0000:fffb9000       .debug$S                   0000000180000000     nw:nw.dll
 0000:fffb9000       .debug$S                   0000000180000000     nw:nw.dll
 0000:fffb9000       .debug$S                   0000000180000000     nw:nw.dll
 0000:fffb9000       .debug$S                   0000000180000000     nw:nw.dll
 0000:fffb9000       .debug$S                   0000000180000000     nw:nw.dll
 0000:fffb9000       .debug$S                   0000000180000000     nw:nw.dll
 0000:fffb9000       .debug$S                   0000000180000000     nw:nw.dll
 0000:fffb9000       .debug$S                   0000000180000000     nw:nw.dll
 0000:fffb9000       .debug$S                   0000000180000000     nw:nw.dll
 0000:fffb9000       .debug$S                   0000000180000000     nw:nw.dll
 0000:fffb9000       .debug$S                   0000000180000000     nw:nw.dll
 0000:fffb9000       .debug$S                   0000000180000000     nw:nw.dll
 0000:fffb9000       .debug$S                   0000000180000000     nw:nw.dll
 0000:fffb9000       .debug$S                   0000000180000000     nw:nw.dll
 0000:fffb9000       .debug$S                   0000000180000000     nw:nw.dll
 0000:fffb9000       .debug$S                   0000000180000000     nw:nw.dll
 0000:fffb9000       .debug$S                   0000000180000000     nw:nw.dll
 0000:fffb9000       .debug$S                   0000000180000000     nw:nw.dll
 0000:fffb9000       .debug$S                   0000000180000000     nw:nw.dll
 0000:fffb9000       .debug$S                   0000000180000000     nw:nw.dll
 0000:fffb9000       .debug$S                   0000000180000000     nw:nw.dll
 0000:fffb9000       .debug$S                   0000000180000000     nw:nw.dll
 0000:fffb9000       .debug$S                   0000000180000000     nw:nw.dll
 0000:fffb9000       .debug$S                   0000000180000000     nw:nw.dll
 0000:fffb9000       .debug$S                   0000000180000000     node:node.dll
 0000:fffb9000       .debug$S                   0000000180000000     node:node.dll
 0000:fffb9000       .debug$S                   0000000180000000     node:node.dll
 0000:fffb9000       .debug$S                   0000000180000000     node:node.dll
 0000:fffb9000       .debug$S                   0000000180000000     node:node.dll
 0000:fffb9000       .debug$S                   0000000180000000     node:node.dll
 0000:fffb9000       .debug$S                   0000000180000000     node:node.dll
 0000:fffb9000       .debug$S                   0000000180000000     node:node.dll
 0000:fffb9000       .debug$S                   0000000180000000     node:node.dll
 0000:fffb9000       .debug$S                   0000000180000000     cairo:libcairo-2.dll
 0000:fffb9000       .debug$S                   0000000180000000     cairo:libcairo-2.dll
 0000:fffb9000       .debug$S                   0000000180000000     cairo:libcairo-2.dll
 0000:fffb9000       .debug$S                   0000000180000000     cairo:libcairo-2.dll
 0000:fffb9000       .debug$S                   0000000180000000     cairo:libcairo-2.dll
 0000:fffb9000       .debug$S                   0000000180000000     cairo:libcairo-2.dll
 0000:fffb9000       .debug$S                   0000000180000000     cairo:libcairo-2.dll
 0000:fffb9000       .debug$S                   0000000180000000     libpng:libpng14-14.dll
 0000:fffb9000       .debug$S                   0000000180000000     libpng:libpng14-14.dll
 0000:fffb9000       .debug$S                   0000000180000000     libpng:libpng14-14.dll
 0000:fffb9000       .debug$S                   0000000180000000     libpng:libpng14-14.dll
 0000:fffb9000       .debug$S                   0000000180000000     libpng:libpng14-14.dll
 0000:fffb9000       .debug$S                   0000000180000000     libpng:libpng14-14.dll
 0000:fffb9000       .debug$S                   0000000180000000     libpng:libpng14-14.dll
 0000:fffb9000       .debug$S                   0000000180000000     libpng:libpng14-14.dll
 0000:fffb9000       .debug$S                   0000000180000000     libpng:libpng14-14.dll
 0000:fffb9000       .debug$S                   0000000180000000     libpng:libpng14-14.dll
 0000:fffb9000       .debug$S                   0000000180000000     libpng:libpng14-14.dll
 0000:fffb9000       .debug$S                   0000000180000000     libpng:libpng14-14.dll
 0000:fffb9000       .debug$S                   0000000180000000     libpng:libpng14-14.dll
 0000:fffb9000       .debug$S                   0000000180000000     libpng:libpng14-14.dll
 0000:fffb9000       .debug$S                   0000000180000000     libpng:libpng14-14.dll
 0000:fffb9000       .debug$S                   0000000180000000     libpng:libpng14-14.dll
 0000:fffb9000       .debug$S                   0000000180000000     libpng:libpng14-14.dll
 0000:fffb9000       .debug$S                   0000000180000000     libpng:libpng14-14.dll
 0000:fffb9000       .debug$S                   0000000180000000     cairo:libcairo-2.dll
 0000:fffb9000       .debug$S                   0000000180000000     cairo:libcairo-2.dll
 0000:fffb9000       .debug$S                   0000000180000000     cairo:libcairo-2.dll
 0000:fffb9000       .debug$S                   0000000180000000     cairo:libcairo-2.dll
 0000:fffb9000       .debug$S                   0000000180000000     cairo:libcairo-2.dll
 0000:fffb9000       .debug$S                   0000000180000000     cairo:libcairo-2.dll
 0000:fffb9000       .debug$S                   0000000180000000     cairo:libcairo-2.dll
 0000:fffb9000       .debug$S                   0000000180000000     cairo:libcairo-2.dll
 0000:fffb9000       .debug$S                   0000000180000000     cairo:libcairo-2.dll
 0000:fffb9000       .debug$S                   0000000180000000     cairo:libcairo-2.dll
 0000:fffb9000       .debug$S                   0000000180000000     cairo:libcairo-2.dll
 0000:fffb9000       .debug$S                   0000000180000000     cairo:libcairo-2.dll
 0000:fffb9000       .debug$S                   0000000180000000     cairo:libcairo-2.dll
 0000:fffb9000       .debug$S                   0000000180000000     cairo:libcairo-2.dll
 0000:fffb9000       .debug$S                   0000000180000000     cairo:libcairo-2.dll
 0000:fffb9000       .debug$S                   0000000180000000     cairo:libcairo-2.dll
 0000:fffb9000       .debug$S                   0000000180000000     cairo:libcairo-2.dll
 0000:fffb9000       .debug$S                   0000000180000000     cairo:libcairo-2.dll
 0000:fffb9000       .debug$S                   0000000180000000     cairo:libcairo-2.dll
 0000:fffb9000       .debug$S                   0000000180000000     cairo:libcairo-2.dll
 0000:fffb9000       .debug$S                   0000000180000000     cairo:libcairo-2.dll
 0000:fffb9000       .debug$S                   0000000180000000     cairo:libcairo-2.dll
 0000:fffb9000       .debug$S                   0000000180000000     cairo:libcairo-2.dll
 0000:fffb9000       .debug$S                   0000000180000000     cairo:libcairo-2.dll
 0000:fffb9000       .debug$S                   0000000180000000     cairo:libcairo-2.dll
 0000:fffb9000       .debug$S                   0000000180000000     cairo:libcairo-2.dll
 0000:fffb9000       .debug$S                   0000000180000000     cairo:libcairo-2.dll
 0000:fffb9000       .debug$S                   0000000180000000     cairo:libcairo-2.dll
 0000:fffb9000       .debug$S                   0000000180000000     cairo:libcairo-2.dll
 0000:fffb9000       .debug$S                   0000000180000000     cairo:libcairo-2.dll
 0000:fffb9000       .debug$S                   0000000180000000     cairo:libcairo-2.dll
 0000:fffb9000       .debug$S                   0000000180000000     cairo:libcairo-2.dll
 0000:fffb9000       .debug$S                   0000000180000000     cairo:libcairo-2.dll
 0000:fffb9000       .debug$S                   0000000180000000     cairo:libcairo-2.dll
 0000:fffb9000       .debug$S                   0000000180000000     cairo:libcairo-2.dll
 0000:fffb9000       .debug$S                   0000000180000000     cairo:libcairo-2.dll
 0000:fffb9000       .debug$S                   0000000180000000     cairo:libcairo-2.dll
 0000:fffb9000       .debug$S                   0000000180000000     cairo:libcairo-2.dll
 0000:fffb9000       .debug$S                   0000000180000000     cairo:libcairo-2.dll
 0000:fffb9000       .debug$S                   0000000180000000     cairo:libcairo-2.dll
 0000:fffb9000       .debug$S                   0000000180000000     cairo:libcairo-2.dll
 0000:fffb9000       .debug$S                   0000000180000000     cairo:libcairo-2.dll
 0000:fffb9000       .debug$S                   0000000180000000     cairo:libcairo-2.dll
 0000:fffb9000       .debug$S                   0000000180000000     cairo:libcairo-2.dll
 0000:fffb9000       .debug$S                   0000000180000000     cairo:libcairo-2.dll
 0000:fffb9000       .debug$S                   0000000180000000     cairo:libcairo-2.dll
 0000:fffb9000       .debug$S                   0000000180000000     cairo:libcairo-2.dll
 0000:fffb9000       .debug$S                   0000000180000000     cairo:libcairo-2.dll
 0000:fffb9000       .debug$S                   0000000180000000     cairo:libcairo-2.dll
 0000:fffb9000       .debug$S                   0000000180000000     cairo:libcairo-2.dll
 0000:fffb9000       .debug$S                   0000000180000000     cairo:libcairo-2.dll
 0000:fffb9000       .debug$S                   0000000180000000     cairo:libcairo-2.dll
 0000:fffb9000       .debug$S                   0000000180000000     cairo:libcairo-2.dll
 0000:fffb9000       .debug$S                   0000000180000000     cairo:libcairo-2.dll
 0000:fffb9000       .debug$S                   0000000180000000     cairo:libcairo-2.dll
 0000:fffb9000       .debug$S                   0000000180000000     cairo:libcairo-2.dll
 0000:fffb9000       .debug$S                   0000000180000000     cairo:libcairo-2.dll
 0000:fffb9000       .debug$S                   0000000180000000     cairo:libcairo-2.dll
 0000:fffb9000       .debug$S                   0000000180000000     cairo:libcairo-2.dll
 0000:fffb9000       .debug$S                   0000000180000000     cairo:libcairo-2.dll
 0000:fffb9000       .debug$S                   0000000180000000     cairo:libcairo-2.dll
 0000:fffb9000       .debug$S                   0000000180000000     cairo:libcairo-2.dll
 0000:fffb9000       .debug$S                   0000000180000000     cairo:libcairo-2.dll
 0000:fffb9000       .debug$S                   0000000180000000     cairo:libcairo-2.dll
 0000:fffb9000       .debug$S                   0000000180000000     cairo:libcairo-2.dll
 0000:fffb9000       .debug$S                   0000000180000000     cairo:libcairo-2.dll
 0000:fffb9000       .debug$S                   0000000180000000     cairo:libcairo-2.dll
 0000:fffb9000       .debug$S                   0000000180000000     cairo:libcairo-2.dll
 0000:fffb9000       .debug$S                   0000000180000000     cairo:libcairo-2.dll
 0000:fffb9000       .debug$S                   0000000180000000     cairo:libcairo-2.dll
 0000:fffb9000       .debug$S                   0000000180000000     cairo:libcairo-2.dll
 0000:fffb9000       .debug$S                   0000000180000000     cairo:libcairo-2.dll
 0000:fffb9000       .debug$S                   0000000180000000     cairo:libcairo-2.dll
 0000:fffb9000       .debug$S                   0000000180000000     cairo:libcairo-2.dll
 0000:fffb9000       .debug$S                   0000000180000000     cairo:libcairo-2.dll
 0000:fffb9000       .debug$S                   0000000180000000     cairo:libcairo-2.dll
 0000:fffb9000       .debug$S                   0000000180000000     cairo:libcairo-2.dll
 0000:fffb9000       .debug$S                   0000000180000000     cairo:libcairo-2.dll
 0000:fffb9000       .debug$S                   0000000180000000     cairo:libcairo-2.dll
 0000:fffb9000       .debug$S                   0000000180000000     cairo:libcairo-2.dll
 0000:fffb9000       .debug$S                   0000000180000000     cairo:libcairo-2.dll
 0000:fffb9000       .debug$S                   0000000180000000     cairo:libcairo-2.dll
 0000:fffb9000       .debug$S                   0000000180000000     cairo:libcairo-2.dll
 0000:fffb9000       .debug$S                   0000000180000000     cairo:libcairo-2.dll
 0000:fffb9000       .debug$S                   0000000180000000     cairo:libcairo-2.dll
 0000:fffb9000       .debug$S                   0000000180000000     cairo:libcairo-2.dll
 0001:00000000       ??__E?constructor@Canvas@@2V?$Persistent@VFunctionTemplate@v8@@V?$NonCopyablePersistentTraits@VFunctionTemplate@v8@@@2@@Nan@@A@@YAXXZ 0000000180001000 f   Canvas.obj
 0001:00000020       ??__E?constructor@Gradient@@2V?$Persistent@VFunctionTemplate@v8@@V?$NonCopyablePersistentTraits@VFunctionTemplate@v8@@@2@@Nan@@A@@YAXXZ 0000000180001020 f   CanvasGradient.obj
 0001:00000040       ??__E?constructor@Pattern@@2V?$Persistent@VFunctionTemplate@v8@@V?$NonCopyablePersistentTraits@VFunctionTemplate@v8@@@2@@Nan@@A@@YAXXZ 0000000180001040 f   CanvasPattern.obj
 0001:00000060       ??__E?constructor@Context2d@@2V?$Persistent@VFunctionTemplate@v8@@V?$NonCopyablePersistentTraits@VFunctionTemplate@v8@@@2@@Nan@@A@@YAXXZ 0000000180001060 f   CanvasRenderingContext2d.obj
 0001:00000080       ??__E?constructor@Image@@2V?$Persistent@VFunctionTemplate@v8@@V?$NonCopyablePersistentTraits@VFunctionTemplate@v8@@@2@@Nan@@A@@YAXXZ 0000000180001080 f   Image.obj
 0001:000000a0       ??__E?constructor@ImageData@@2V?$Persistent@VFunctionTemplate@v8@@V?$NonCopyablePersistentTraits@VFunctionTemplate@v8@@@2@@Nan@@A@@YAXXZ 00000001800010a0 f   ImageData.obj
 0001:000000c0       ?FunctionCallbackWrapper@imp@Nan@@YAXAEBV?$FunctionCallbackInfo@VValue@v8@@@v8@@@Z 00000001800010c0 f   Canvas.obj
 0001:00000190       ?GetterCallbackWrapper@imp@Nan@@YAXV?$Local@VName@v8@@@v8@@AEBV?$PropertyCallbackInfo@VValue@v8@@@4@@Z 0000000180001190 f   Canvas.obj
 0001:00000260       ?SetterCallbackWrapper@imp@Nan@@YAXV?$Local@VName@v8@@@v8@@V?$Local@VValue@v8@@@4@AEBV?$PropertyCallbackInfo@X@4@@Z 0000000180001260 f   Canvas.obj
 0001:00001060       ?canvas_png_flush@@YAXPEAUpng_struct_def@@@Z 0000000180002060 f   Canvas.obj
 0001:00001070       ?canvas_convert_data_to_bytes@@YAXPEAUpng_struct_def@@PEAUpng_row_info_struct@@PEAE@Z 0000000180002070 f   Canvas.obj
 0001:000010b0       ?canvas_unpremultiply_data@@YAXPEAUpng_struct_def@@PEAUpng_row_info_struct@@PEAE@Z 00000001800020b0 f   Canvas.obj
 0001:00001160       ?canvas_write_png@@YA?AW4_cairo_status@@PEAU_cairo_surface@@P6AXPEAUpng_struct_def@@PEAE_K@ZPEAX@Z 0000000180002160 f   Canvas.obj
 0001:000014a0       ?canvas_stream_write_func@@YAXPEAUpng_struct_def@@PEAE_K@Z 00000001800024a0 f   Canvas.obj
 0001:00002240       ?toBuffer@@YA?AW4_cairo_status@@PEAXPEBEI@Z 0000000180003240 f   Canvas.obj
 0001:00002d80       ?streamPNG@@YA?AW4_cairo_status@@PEAXPEBEI@Z 0000000180003d80 f   Canvas.obj
 0001:00003430       ?streamPDF@@YA?AW4_cairo_status@@PEAXPEBEI@Z 0000000180004430 f   Canvas.obj
 0001:000081c4       $LN77                      00000001800091c4     CanvasRenderingContext2d.obj
 0001:0000da90       ?h@@YAHD@Z                 000000018000ea90 f   color.obj
 0001:0000dacc       $LN9                       000000018000eacc     color.obj
 0001:0000dadc       $LN8                       000000018000eadc     color.obj
 0001:0000db20       ?rgba_from_hsla@@YAHMMMM@Z 000000018000eb20 f   color.obj
 0001:0000ddd0       ?rgba_from_rgb_string@@YAHPEBDPEAF@Z 000000018000edd0 f   color.obj
 0001:0000dff0       ?rgba_from_rgba_string@@YAHPEBDPEAF@Z 000000018000eff0 f   color.obj
 0001:0000e290       ?rgba_from_hsla_string@@YAHPEBDPEAF@Z 000000018000f290 f   color.obj
 0001:0000e4c0       ?rgba_from_hsl_string@@YAHPEBDPEAF@Z 000000018000f4c0 f   color.obj
 0001:0000e660       ?rgba_from_hex_string@@YAHPEBDPEAF@Z 000000018000f660 f   color.obj
 0001:0000e770       ?rgba_from_name_string@@YAHPEBDPEAF@Z 000000018000f770 f   color.obj
 0001:0000e8d0       ??$parse_integer@H@@YA_NPEAPEBDPEAH@Z 000000018000f8d0 f   color.obj
 0001:0000e950       ??$parse_css_number@M@@YA_NPEAPEBDPEAM@Z 000000018000f950 f   color.obj
 0001:00010520       _register_canvas           0000000180011520 f   init.obj
 0001:00010700       $$000000                   0000000180011700     LIBCMT:_amdsecgs_.obj
 0001:00010b54       ?dllmain_crt_dispatch@@YAHQEAUHINSTANCE__@@KQEAX@Z 0000000180011b54 f   LIBCMT:dll_dllmain.obj
 0001:00010ba4       ?dllmain_crt_process_attach@@YAHQEAUHINSTANCE__@@QEAX@Z 0000000180011ba4 f   LIBCMT:dll_dllmain.obj
 0001:00010cd0       ?dllmain_crt_process_detach@@YAH_N@Z 0000000180011cd0 f   LIBCMT:dll_dllmain.obj
 0001:00010d54       ?dllmain_dispatch@@YAHQEAUHINSTANCE__@@KQEAX@Z 0000000180011d54 f   LIBCMT:dll_dllmain.obj
 0001:00010e4c       ?dllmain_raw@@YAHQEAUHINSTANCE__@@KQEAX@Z 0000000180011e4c f   LIBCMT:dll_dllmain.obj
 0001:000110cc       capture_current_context    00000001800120cc f   LIBCMT:gs_report.obj
 0001:0001113c       capture_previous_context   000000018001213c f   LIBCMT:gs_report.obj
 0001:00011844       ?CatchIt@@YAXPEAUEHExceptionRecord@@PEA_KPEAU_CONTEXT@@PEAU_xDISPATCHER_CONTEXT@@PEBU_s_FuncInfo@@PEBU_s_HandlerType@@PEBU_s_CatchableType@@PEBU_s_TryBlockMapEntry@@H1EE@Z 0000000180012844 f   libvcruntime:frame.obj
 0001:00011908       ?ExFilterRethrow@@YAHPEAU_EXCEPTION_POINTERS@@PEAUEHExceptionRecord@@PEAH@Z 0000000180012908 f   libvcruntime:frame.obj
 0001:00011990       ?FindHandler@@YAXPEAUEHExceptionRecord@@PEA_KPEAU_CONTEXT@@PEAU_xDISPATCHER_CONTEXT@@PEBU_s_FuncInfo@@EH1@Z 0000000180012990 f   libvcruntime:frame.obj
 0001:00011e60       ?FindHandlerForForeignException@@YAXPEAUEHExceptionRecord@@PEA_KPEAU_CONTEXT@@PEAU_xDISPATCHER_CONTEXT@@PEBU_s_FuncInfo@@HH1@Z 0000000180012e60 f   libvcruntime:frame.obj
 0001:000120cc       ?IsInExceptionSpec@@YAEPEAUEHExceptionRecord@@PEBU_s_ESTypeList@@@Z 00000001800130cc f   libvcruntime:frame.obj
 0001:00013210       $$000000                   0000000180014210     libvcruntime:memset.obj
 0001:000132fc       MsetTab                    00000001800142fc     libvcruntime:memset.obj
 0001:00013420       $$000000                   0000000180014420     libvcruntime:memcpy.obj
 0001:000134c7       MoveSmall                  00000001800144c7     libvcruntime:memcpy.obj
 0001:00013b20       $$000000                   0000000180014b20     libvcruntime:handlers.obj
 0001:00014220       $$000000                   0000000180015220     libvcruntime:_jmpuwind_.obj
 0001:00014314       ?try_get_function@@YAPEAXW4function_id@?A0x679b24ab@@QEBDQEBW4module_id@2@2@Z 0000000180015314 f   libvcruntime:winapi_downlevel.obj
 0001:00014778       ??$common_assert_to_message_box@_W@@YAXQEB_W0IQEAX@Z 0000000180015778 f   libucrt:assert.obj
 0001:0001483c       ??$common_assert_to_message_box_build_string@_W@@YAXQEA_W_KQEB_W2IQEAX@Z 000000018001583c f   libucrt:assert.obj
 0001:00015010       ??$common_assert_to_stderr@_W@@YAXQEB_W0I@Z 0000000180016010 f   libucrt:assert.obj
 0001:00015180       ?get_assert_format@@YAPEB_W_W@Z 0000000180016180 f   libucrt:assert.obj
 0001:00015cd0       ??R<lambda_dd75445284c072d0bd3768540cc698fa>@@QEBAHXZ 0000000180016cd0 f   libucrt:output.obj
 0001:000188d4       ??$common_fsopen@D@@YAPEAU_iobuf@@QEBD0H@Z 00000001800198d4 f   libucrt:fopen.obj
 0001:00018aa0       ?common_fseek@@YAHV__crt_stdio_stream@@_JH@Z 0000000180019aa0 f   libucrt:fseek.obj
 0001:00018b0c       ?common_fseek_binary_mode_read_only_fast_track_nolock@@YA_NV__crt_stdio_stream@@_JH@Z 0000000180019b0c f   libucrt:fseek.obj
 0001:00018c1c       ?common_fseek_nolock@@YAHV__crt_stdio_stream@@_JH@Z 0000000180019c1c f   libucrt:fseek.obj
 0001:00019284       ?atexit_exception_filter@@YAHK@Z 000000018001a284 f   libucrt:exit.obj
 0001:00019290       ?common_exit@@YAXHW4_crt_exit_cleanup_mode@@W4_crt_exit_return_mode@@@Z 000000018001a290 f   libucrt:exit.obj
 0001:000193fc       ?exit_or_terminate_process@@YAXI@Z 000000018001a3fc f   libucrt:exit.obj
 0001:00019448       ?try_cor_exit_process@@YAXI@Z 000000018001a448 f   libucrt:exit.obj
 0001:000194e0       ??$parse_command_line@D@@YAXPEADPEAPEAD0PEA_K2@Z 000000018001a4e0 f   libucrt:argv_parsing.obj
 0001:00019878       ??$common_initialize_environment_nolock@D@@YAHXZ 000000018001a878 f   libucrt:environment_initialization.obj
 0001:000198e4       ??$create_environment@D@@YAQEAPEADQEAD@Z 000000018001a8e4 f   libucrt:environment_initialization.obj
 0001:000199e0       ??$free_environment@D@@YAXQEAPEAD@Z 000000018001a9e0 f   libucrt:environment_initialization.obj
 0001:000199e0       ??$free_environment@_W@@YAXQEAPEA_W@Z 000000018001a9e0 f   libucrt:environment_initialization.obj
 0001:00019a24       ??$uninitialize_environment_internal@D@@YAXAEAPEAPEAD@Z 000000018001aa24 f   libucrt:environment_initialization.obj
 0001:00019a40       ??$uninitialize_environment_internal@_W@@YAXAEAPEAPEA_W@Z 000000018001aa40 f   libucrt:environment_initialization.obj
 0001:00019c78       ??R<lambda_4e60a939b0d047cfe11ddc22648dfba9>@@QEBAHXZ 000000018001ac78 f   libucrt:onexit.obj
 0001:00019f28       initialize_global_variables 000000018001af28 f   libucrt:initialization.obj
 0001:00019f3c       initialize_c               000000018001af3c f   libucrt:initialization.obj
 0001:00019f60       initialize_global_state_isolation 000000018001af60 f   libucrt:initialization.obj
 0001:00019f60       initialize_environment     000000018001af60 f   libucrt:initialization.obj
 0001:00019f60       uninitialize_c             000000018001af60 f   libucrt:initialization.obj
 0001:00019f60       report_memory_leaks        000000018001af60 f   libucrt:initialization.obj
 0001:00019f60       uninitialize_global_state_isolation 000000018001af60 f   libucrt:initialization.obj
 0001:00019f64       uninitialize_environment   000000018001af64 f   libucrt:initialization.obj
 0001:00019f74       initialize_pointers        000000018001af74 f   libucrt:initialization.obj
 0001:00019fc8       uninitialize_vcruntime     000000018001afc8 f   libucrt:initialization.obj
 0001:00019fd0       uninitialize_allocated_memory 000000018001afd0 f   libucrt:initialization.obj
 0001:0001af68       ??$common_xtox@K_W@@YAHKQEA_W_KI_N@Z 000000018001bf68 f   libucrt:xtoa.obj
 0001:0001b014       ??$common_xtox_s@K_W@@YAHKQEA_W_KI_N@Z 000000018001c014 f   libucrt:xtoa.obj
 0001:0001b2d8       ??$message_box_wait_thread@_W@@YAKQEAX@Z 000000018001c2d8 f   libucrt:crtmbox.obj
 0001:0001b4ec       common_flush_all           000000018001c4ec f   libucrt:fflush.obj
 0001:0001b654       ??R<lambda_b721fa326cdb32351d23dfa67958c160>@@QEBAHXZ 000000018001c654 f   libucrt:setvbuf.obj
 0001:0001bb18       _call_matherr              000000018001cb18 f   libucrt:libm_error.obj
 0001:0001bb80       _exception_enabled         000000018001cb80 f   libucrt:libm_error.obj
 0001:0001bfec       ?construct_ptd_array@@YAXQEAU__acrt_ptd@@@Z 000000018001cfec f   libucrt:per_thread_data.obj
 0001:0001c0bc       ?destroy_fls@@YAXPEAX@Z    000000018001d0bc f   libucrt:per_thread_data.obj
 0001:0001c0dc       ?destroy_ptd_array@@YAXQEAU__acrt_ptd@@@Z 000000018001d0dc f   libucrt:per_thread_data.obj
 0001:0001c1d4       ?replace_current_thread_locale_nolock@@YAXQEAU__acrt_ptd@@QEAU__crt_locale_data@@@Z 000000018001d1d4 f   libucrt:per_thread_data.obj
 0001:0001c414       ?try_get_function@@YAPEAXW4function_id@?A0x63058377@@QEBDQEBW4module_id@2@2@Z 000000018001d414 f   libucrt:winapi_thunks.obj
 0001:0001cd80       ?initialize_inherited_file_handles_nolock@@YAXXZ 000000018001dd80 f   libucrt:ioinit.obj
 0001:0001ce6c       ?initialize_stdio_handles_nolock@@YAXXZ 000000018001de6c f   libucrt:ioinit.obj
 0001:0001d058       ?internal_isupper_l@@YA_NHQEAU__crt_locale_pointers@@@Z 000000018001e058 f   libucrt:tolower_toupper.obj
 0001:0001d98c       ?fp_format_a@@YAHQEBNPEAD_KQEAD2H_NIQEAU__crt_locale_pointers@@@Z 000000018001e98c f   libucrt:cvt.obj
 0001:0001dcec       ?fp_format_e@@YAHQEBNQEAD_K12H_NIQEAU__crt_locale_pointers@@@Z 000000018001ecec f   libucrt:cvt.obj
 0001:0001ddbc       ?fp_format_e_internal@@YAHQEAD_KH_NIQEAU_strflt@@2QEAU__crt_locale_pointers@@@Z 000000018001edbc f   libucrt:cvt.obj
 0001:0001df98       ?fp_format_f_internal@@YAHQEAD_KHQEAU_strflt@@_NQEAU__crt_locale_pointers@@@Z 000000018001ef98 f   libucrt:cvt.obj
 0001:0001e0e0       ?fp_format_g@@YAHQEBNQEAD_K12H_NIQEAU__crt_locale_pointers@@@Z 000000018001f0e0 f   libucrt:cvt.obj
 0001:0001e218       ?fp_format_nan_or_infinity@@YAHW4__acrt_fp_class@@_NPEAD_K1@Z 000000018001f218 f   libucrt:cvt.obj
 0001:0001e974       ?find_or_allocate_unused_stream_nolock@@YA?AV__crt_stdio_stream@@XZ 000000018001f974 f   libucrt:stream.obj
 0001:0001ef6c       ??$common_ftell_nolock@_J@@YA_JV__crt_stdio_stream@@@Z 000000018001ff6c f   libucrt:ftell.obj
 0001:0001f0e4       ?common_ftell_read_mode_nolock@@YA_JV__crt_stdio_stream@@_J1@Z 00000001800200e4 f   libucrt:ftell.obj
 0001:0001f25c       ?common_ftell_translated_utf8_nolock@@YA_JV__crt_stdio_stream@@_J@Z 000000018002025c f   libucrt:ftell.obj
 0001:0001f3dc       ??$common_lseek@_J@@YA_JH_JH@Z 00000001800203dc f   libucrt:lseek.obj
 0001:0001f4cc       ??$common_lseek_nolock@_J@@YA_JH_JH@Z 00000001800204cc f   libucrt:lseek.obj
 0001:0001f578       ??$translate_text_mode_nolock@_W@@YAHHQEA_W_K@Z 0000000180020578 f   libucrt:read.obj
 0001:0001f7a8       ?translate_ansi_or_utf8_nolock@@YAHHQEAD_KQEA_W1@Z 00000001800207a8 f   libucrt:read.obj
 0001:00020028       ??$common_refill_and_read_nolock@D@@YAHV__crt_stdio_stream@@@Z 0000000180021028 f   libucrt:_filbuf.obj
 0001:00020290       ?<helper_func_cdecl>@<lambda_2feae5270eb4d0d5532525f423405775>@@CAHPEBX0@Z 0000000180021290 f   libucrt:argv_wildcards.obj
 0001:000202a4       ??$common_expand_argv_wildcards@D@@YAHQEAPEADQEAPEAPEAD@Z 00000001800212a4 f   libucrt:argv_wildcards.obj
 0001:000204b0       ??$copy_and_add_argument_to_buffer@D@@YAHQEBD0_KAEAV?$argument_list@D@?A0xca0879c4@@@Z 00000001800214b0 f   libucrt:argv_wildcards.obj
 0001:000205c0       ??$expand_argument_wildcards@D@@YAHQEAD0AEAV?$argument_list@D@?A0xca0879c4@@@Z 00000001800215c0 f   libucrt:argv_wildcards.obj
 0001:00020874       ??R<lambda_ad1ced32f4ac17aa236e5ef05d6b3b7c>@@QEBAXXZ 0000000180021874 f   libucrt:mbctype.obj
 0001:00020a8c       ?getSystemCP@@YAHH@Z       0000000180021a8c f   libucrt:mbctype.obj
 0001:00020b0c       ?setSBCS@@YAXPEAU__crt_multibyte_data@@@Z 0000000180021b0c f   libucrt:mbctype.obj
 0001:00020b9c       ?setSBUpLow@@YAXPEAU__crt_multibyte_data@@@Z 0000000180021b9c f   libucrt:mbctype.obj
 0001:00020d80       ?setmbcp_internal@@YAHH_N@Z 0000000180021d80 f   libucrt:mbctype.obj
 0001:000212c8       ?x_ismbbtype_l@@YAHPEAU__crt_locale_pointers@@IHH@Z 00000001800222c8 f   libucrt:ismbbyte.obj
 0001:00021974       ?write_double_translated_ansi_nolock@@YA?AUwrite_result@?A0x9c548279@@HQEBDI@Z 0000000180022974 f   libucrt:write.obj
 0001:00021b7c       ?write_text_ansi_nolock@@YA?AUwrite_result@?A0x9c548279@@HQEBDI@Z 0000000180022b7c f   libucrt:write.obj
 0001:00021c84       ?write_text_utf16le_nolock@@YA?AUwrite_result@?A0x9c548279@@HQEBDI@Z 0000000180022c84 f   libucrt:write.obj
 0001:00021da0       ?write_text_utf8_nolock@@YA?AUwrite_result@?A0x9c548279@@HQEBDI@Z 0000000180022da0 f   libucrt:write.obj
 0001:00022b4c       ?GetTableIndexFromLocaleName@@YAHPEB_W@Z 0000000180023b4c f   libucrt:lcidtoname_downlevel.obj
 0001:00023194       ?__acrt_LCMapStringA_stat@@YAHPEAU__crt_locale_pointers@@PEB_WKPEBDHPEADHHH@Z 0000000180024194 f   libucrt:lcmapstringa.obj
 0001:00024e8c       memcpy_s                   0000000180025e8c f   libucrt:cfout.obj
 0001:00024f14       ??$write_buffer_nolock@D@@YA_NDV__crt_stdio_stream@@@Z 0000000180025f14 f   libucrt:_flsbuf.obj
 0001:00025018       ??$write_buffer_nolock@_W@@YA_N_WV__crt_stdio_stream@@@Z 0000000180026018 f   libucrt:_flsbuf.obj
 0001:000254d0       ?free_crt_array_internal@@YAXQEAPEBX_K@Z 00000001800264d0 f   libucrt:inittime.obj
 0001:000257f0       $$000000                   00000001800267f0     libucrt:strncmp.obj
 0001:000259f4       ??$common_sopen_dispatch@D@@YAHQEBDHHHQEAHH@Z 00000001800269f4 f   libucrt:open.obj
 0001:00025ad4       ?configure_text_mode@@YAHHUfile_options@?A0x656cf9f4@@HAEAW4__crt_lowio_text_mode@@@Z 0000000180026ad4 f   libucrt:open.obj
 0001:00025d68       ?decode_options@@YA?AUfile_options@?A0x656cf9f4@@HHH@Z 0000000180026d68 f   libucrt:open.obj
 0001:00025f74       ?truncate_ctrl_z_if_present@@YAHH@Z 0000000180026f74 f   libucrt:open.obj
 0001:00026550       ?shortsort@@YAXPEAD0_KP6AHPEBX2@Z@Z 0000000180027550 f   libucrt:qsort.obj
 0001:00026b68       ?initialize_multibyte@@YAHXZ 0000000180027b68 f   libucrt:multibyte_initializer.obj
 0001:00026c20       $$000000                   0000000180027c20     libucrt:fpsr.obj
 0001:00026e20       $$000000                   0000000180027e20     libucrt:log10.obj
 0001:000278dc       common_control87           00000001800288dc f   libucrt:ieee.obj
 0001:00027c10       _log_special_common        0000000180028c10 f   libucrt:log_special.obj
 0001:00027e10       $$000000                   0000000180028e10     LIBCMT:_chkstk_.obj
 0001:00027fc0       $$000000                   0000000180028fc0     libvcruntime:memcmp.obj
 0001:000289f0       $$000000                   00000001800299f0     libucrt:strcmp.obj
 0001:00028a70       $$000000                   0000000180029a70     libucrt:tan.obj
 0001:00029030       _tan_piby4                 000000018002a030 f   libucrt:tan.obj
 0001:00029208       _sincos_special            000000018002a208 f   libucrt:sincos_special.obj
 0001:000292c0       $$000000                   000000018002a2c0     libucrt:remainder_piby2_forfma3.obj
 0001:00029530       $$000000                   000000018002a530     libucrt:remainder_piby2_forasm.obj
 0001:00029880       $$000000                   000000018002a880     LIBCMT:_guard_dispatch_.obj
 0001:000298a0       $$000000                   000000018002a8a0     libvcruntime:_longjmp_.obj
 0001:000299a0       $$000000                   000000018002a9a0     libvcruntime:_setjmp_.obj
 0001:00029a60       ?dtor$0@?0??convert@?$ToFactory@VUint32@v8@@@imp@Nan@@SA?AV?$MaybeLocal@VUint32@v8@@@v8@@V?$Local@VValue@v8@@@5@@Z@4HA 000000018002aa60 f   Canvas.obj
 0001:00029a60       ?dtor$0@?0??convert@?$ToFactory@VInt32@v8@@@imp@Nan@@SA?AV?$MaybeLocal@VInt32@v8@@@v8@@V?$Local@VValue@v8@@@5@@Z@4HA 000000018002aa60 f   CanvasRenderingContext2d.obj
 0001:00029a60       ?dtor$0@?0??GetFunction@Nan@@YA?AV?$MaybeLocal@VFunction@v8@@@v8@@V?$Local@VFunctionTemplate@v8@@@3@@Z@4HA 000000018002aa60 f   CanvasRenderingContext2d.obj
 0001:00029a60       ?dtor$0@?0??NewInstance@Nan@@YA?AV?$MaybeLocal@VObject@v8@@@v8@@V?$Local@VObjectTemplate@v8@@@3@@Z@4HA 000000018002aa60 f   Canvas.obj
 0001:00029a70       ?dtor$0@?0??Set@Nan@@YA?AV?$Maybe@_N@v8@@V?$Local@VObject@v8@@@3@V?$Local@VValue@v8@@@3@1@Z@4HA 000000018002aa70 f   Canvas.obj
 0001:00029a80       ?dtor$0@?0??NewInstance@Nan@@YA?AV?$MaybeLocal@VObject@v8@@@v8@@V?$Local@VFunction@v8@@@3@HQEAV?$Local@VValue@v8@@@3@@Z@4HA 000000018002aa80 f   CanvasRenderingContext2d.obj
 0001:00029a80       ?dtor$0@?0??Call@Nan@@YA?AV?$MaybeLocal@VValue@v8@@@v8@@V?$Local@VFunction@v8@@@3@V?$Local@VObject@v8@@@3@HQEAV?$Local@VValue@v8@@@3@@Z@4HA 000000018002aa80 f   Canvas.obj
 0001:00029a90       ?dtor$0@?0??New@?$Factory@VFunctionTemplate@v8@@@imp@Nan@@SA?AV?$Local@VFunctionTemplate@v8@@@v8@@P6AXAEBV?$FunctionCallbackInfo@VValue@v8@@@3@@ZV?$Local@VValue@v8@@@5@V?$Local@VSignature@v8@@@5@@Z@4HA 000000018002aa90 f   Canvas.obj
 0001:00029aa0       ?dtor$0@?0??ThrowError@Nan@@YAXPEBD@Z@4HA 000000018002aaa0 f   CanvasPattern.obj
 0001:00029aa0       ?dtor$0@?0??Call_@Callback@Nan@@AEBA?AV?$Local@VValue@v8@@@v8@@PEAVIsolate@4@V?$Local@VObject@v8@@@4@HQEAV34@@Z@4HA 000000018002aaa0 f   Canvas.obj
 0001:00029aa0       ?dtor$0@?0??ThrowTypeError@Nan@@YAXPEBD@Z@4HA 000000018002aaa0 f   Canvas.obj
 0001:00029aa0       ?dtor$0@?0??ThrowRangeError@Nan@@YAXPEBD@Z@4HA 000000018002aaa0 f   Canvas.obj
 0001:00029aa0       ?dtor$0@?0???0?$TypedArrayContents@E@Nan@@QEAA@V?$Local@VValue@v8@@@v8@@@Z@4HA 000000018002aaa0 f   CanvasRenderingContext2d.obj
 0001:00029aa0       ?dtor$0@?0??resurface@Canvas@@QEAAXV?$Local@VObject@v8@@@v8@@@Z@4HA 000000018002aaa0 f   Canvas.obj
 0001:00029ab0       ?dtor$0@?0??Call@Callback@Nan@@QEBA?AV?$Local@VValue@v8@@@v8@@HQEAV34@@Z@4HA 000000018002aab0 f   Canvas.obj
 0001:00029ac0       ?dtor$0@?0??SetPrototypeMethod@Nan@@YAXV?$Local@VFunctionTemplate@v8@@@v8@@PEBDP6AXAEBV?$FunctionCallbackInfo@VValue@v8@@@1@@Z@Z@4HA 000000018002aac0 f   Canvas.obj
 0001:00029ac0       ?dtor$0@?0??Initialize@Gradient@@SAXV?$Local@VObject@v8@@@v8@@@Z@4HA 000000018002aac0 f   CanvasGradient.obj
 0001:00029ac0       ?dtor$0@?0??Initialize@Pattern@@SAXV?$Local@VObject@v8@@@v8@@@Z@4HA 000000018002aac0 f   CanvasPattern.obj
 0001:00029ad0       ?dtor$0@?0??SetAccessor@Nan@@YAXV?$Local@VObjectTemplate@v8@@@v8@@V?$Local@VString@v8@@@3@P6AX1AEBV?$PropertyCallbackInfo@VValue@v8@@@1@@ZP6AX1V?$Local@VValue@v8@@@3@AEBV?$PropertyCallbackInfo@X@1@@Z4W4AccessControl@3@W4PropertyAttribute@3@V?$Local@VAccessorSignature@v8@@@3@@Z@4HA 000000018002aad0 f   Canvas.obj
 0001:00029ae0       ?dtor$0@?0??Initialize@Canvas@@SAXV?$Local@VObject@v8@@@v8@@@Z@4HA 000000018002aae0 f   Canvas.obj
 0001:00029ae0       ?dtor$0@?0??Initialize@ImageData@@SAXV?$Local@VObject@v8@@@v8@@@Z@4HA 000000018002aae0 f   ImageData.obj
 0001:00029ae0       ?dtor$0@?0??Initialize@Context2d@@SAXV?$Local@VObject@v8@@@v8@@@Z@4HA 000000018002aae0 f   CanvasRenderingContext2d.obj
 0001:00029aec       ?dtor$2@?0??Initialize@ImageData@@SAXV?$Local@VObject@v8@@@v8@@@Z@4HA 000000018002aaec f   ImageData.obj
 0001:00029aec       ?dtor$2@?0??Initialize@Context2d@@SAXV?$Local@VObject@v8@@@v8@@@Z@4HA 000000018002aaec f   CanvasRenderingContext2d.obj
 0001:00029aec       ?dtor$2@?0??Initialize@Canvas@@SAXV?$Local@VObject@v8@@@v8@@@Z@4HA 000000018002aaec f   Canvas.obj
 0001:00029af8       ?dtor$6@?0??Initialize@ImageData@@SAXV?$Local@VObject@v8@@@v8@@@Z@4HA 000000018002aaf8 f   ImageData.obj
 0001:00029af8       ?dtor$6@?0??Initialize@Context2d@@SAXV?$Local@VObject@v8@@@v8@@@Z@4HA 000000018002aaf8 f   CanvasRenderingContext2d.obj
 0001:00029af8       ?dtor$6@?0??Initialize@Canvas@@SAXV?$Local@VObject@v8@@@v8@@@Z@4HA 000000018002aaf8 f   Canvas.obj
 0001:00029b10       ?dtor$0@?0??New@Canvas@@SAXAEBV?$FunctionCallbackInfo@VValue@v8@@@Nan@@@Z@4HA 000000018002ab10 f   Canvas.obj
 0001:00029b1e       ?dtor$2@?0??New@Canvas@@SAXAEBV?$FunctionCallbackInfo@VValue@v8@@@Nan@@@Z@4HA 000000018002ab1e f   Canvas.obj
 0001:00029b30       ?dtor$0@?0??ToBufferAsyncAfter@Canvas@@SAXPEAUuv_work_s@@@Z@4HA 000000018002ab30 f   Canvas.obj
 0001:00029b40       ?dtor$0@?0??ToBuffer@Canvas@@SAXAEBV?$FunctionCallbackInfo@VValue@v8@@@Nan@@@Z@4HA 000000018002ab40 f   Canvas.obj
 0001:00029b4c       ?dtor$1@?0??ToBuffer@Canvas@@SAXAEBV?$FunctionCallbackInfo@VValue@v8@@@Nan@@@Z@4HA 000000018002ab4c f   Canvas.obj
 0001:00029b60       ?dtor$1@?0??SetSource@Image@@SAXV?$Local@VString@v8@@@v8@@V?$Local@VValue@v8@@@3@AEBV?$PropertyCallbackInfo@X@Nan@@@Z@4HA 000000018002ab60 f   Image.obj
 0001:00029b60       ?dtor$0@?0??streamPDF@@YA?AW4_cairo_status@@PEAXPEBEI@Z@4HA 000000018002ab60 f   Canvas.obj
 0001:00029b60       ?dtor$0@?0??streamPNG@@YA?AW4_cairo_status@@PEAXPEBEI@Z@4HA 000000018002ab60 f   Canvas.obj
 0001:00029b70       ?dtor$0@?0??StreamPNGSync@Canvas@@SAXAEBV?$FunctionCallbackInfo@VValue@v8@@@Nan@@@Z@4HA 000000018002ab70 f   Canvas.obj
 0001:00029b80       ?dtor$0@?0??StreamPDFSync@Canvas@@SAXAEBV?$FunctionCallbackInfo@VValue@v8@@@Nan@@@Z@4HA 000000018002ab80 f   Canvas.obj
 0001:00029b90       ?dtor$0@?0???0Canvas@@QEAA@HHW4canvas_type_t@@@Z@4HA 000000018002ab90 f   Canvas.obj
 0001:00029ba0       ?dtor$0@?0??New@Gradient@@SAXAEBV?$FunctionCallbackInfo@VValue@v8@@@Nan@@@Z@4HA 000000018002aba0 f   CanvasGradient.obj
 0001:00029bac       ?dtor$1@?0??New@Gradient@@SAXAEBV?$FunctionCallbackInfo@VValue@v8@@@Nan@@@Z@4HA 000000018002abac f   CanvasGradient.obj
 0001:00029bc0       ?dtor$0@?0??AddColorStop@Gradient@@SAXAEBV?$FunctionCallbackInfo@VValue@v8@@@Nan@@@Z@4HA 000000018002abc0 f   CanvasGradient.obj
 0001:00029bd0       ?dtor$0@?0??SetFillColor@Context2d@@SAXAEBV?$FunctionCallbackInfo@VValue@v8@@@Nan@@@Z@4HA 000000018002abd0 f   CanvasRenderingContext2d.obj
 0001:00029bd0       ?dtor$0@?0??SetAntiAlias@Context2d@@SAXV?$Local@VString@v8@@@v8@@V?$Local@VValue@v8@@@3@AEBV?$PropertyCallbackInfo@X@Nan@@@Z@4HA 000000018002abd0 f   CanvasRenderingContext2d.obj
 0001:00029bd0       ?dtor$0@?0??SetFilter@Context2d@@SAXV?$Local@VString@v8@@@v8@@V?$Local@VValue@v8@@@3@AEBV?$PropertyCallbackInfo@X@Nan@@@Z@4HA 000000018002abd0 f   CanvasRenderingContext2d.obj
 0001:00029bd0       ?dtor$0@?0??FillText@Context2d@@SAXAEBV?$FunctionCallbackInfo@VValue@v8@@@Nan@@@Z@4HA 000000018002abd0 f   CanvasRenderingContext2d.obj
 0001:00029bd0       ?dtor$0@?0??StrokeText@Context2d@@SAXAEBV?$FunctionCallbackInfo@VValue@v8@@@Nan@@@Z@4HA 000000018002abd0 f   CanvasRenderingContext2d.obj
 0001:00029bd0       ?dtor$0@?0??SetTextDrawingMode@Context2d@@SAXV?$Local@VString@v8@@@v8@@V?$Local@VValue@v8@@@3@AEBV?$PropertyCallbackInfo@X@Nan@@@Z@4HA 000000018002abd0 f   CanvasRenderingContext2d.obj
 0001:00029bd0       ?dtor$0@?0??SetShadowColor@Context2d@@SAXV?$Local@VString@v8@@@v8@@V?$Local@VValue@v8@@@3@AEBV?$PropertyCallbackInfo@X@Nan@@@Z@4HA 000000018002abd0 f   CanvasRenderingContext2d.obj
 0001:00029bd0       ?dtor$0@?0??SetStrokeColor@Context2d@@SAXAEBV?$FunctionCallbackInfo@VValue@v8@@@Nan@@@Z@4HA 000000018002abd0 f   CanvasRenderingContext2d.obj
 0001:00029be0       ?dtor$0@?0??SetFont@Context2d@@SAXAEBV?$FunctionCallbackInfo@VValue@v8@@@Nan@@@Z@4HA 000000018002abe0 f   CanvasRenderingContext2d.obj
 0001:00029bee       ?dtor$1@?0??SetFont@Context2d@@SAXAEBV?$FunctionCallbackInfo@VValue@v8@@@Nan@@@Z@4HA 000000018002abee f   CanvasRenderingContext2d.obj
 0001:00029bfc       ?dtor$2@?0??SetFont@Context2d@@SAXAEBV?$FunctionCallbackInfo@VValue@v8@@@Nan@@@Z@4HA 000000018002abfc f   CanvasRenderingContext2d.obj
 0001:00029c0a       ?dtor$3@?0??SetFont@Context2d@@SAXAEBV?$FunctionCallbackInfo@VValue@v8@@@Nan@@@Z@4HA 000000018002ac0a f   CanvasRenderingContext2d.obj
 0001:00029c20       ?dtor$0@?0??MeasureText@Context2d@@SAXAEBV?$FunctionCallbackInfo@VValue@v8@@@Nan@@@Z@4HA 000000018002ac20 f   CanvasRenderingContext2d.obj
 0001:00029c30       ?dtor$0@?0??GetLineDash@Context2d@@SAXAEBV?$FunctionCallbackInfo@VValue@v8@@@Nan@@@Z@4HA 000000018002ac30 f   CanvasRenderingContext2d.obj
 0001:00029c30       ?dtor$0@?0??SetLineDash@Context2d@@SAXAEBV?$FunctionCallbackInfo@VValue@v8@@@Nan@@@Z@4HA 000000018002ac30 f   CanvasRenderingContext2d.obj
 0001:00029c40       ?dtor$0@?0??Initialize@Image@@SAXV?$Local@VObject@v8@@@v8@@@Z@4HA 000000018002ac40 f   Image.obj
 0001:00029c4c       ?dtor$2@?0??Initialize@Image@@SAXV?$Local@VObject@v8@@@v8@@@Z@4HA 000000018002ac4c f   Image.obj
 0001:00029c58       ?dtor$6@?0??Initialize@Image@@SAXV?$Local@VObject@v8@@@v8@@@Z@4HA 000000018002ac58 f   Image.obj
 0001:00029c64       ?dtor$10@?0??Initialize@Image@@SAXV?$Local@VObject@v8@@@v8@@@Z@4HA 000000018002ac64 f   Image.obj
 0001:00029c70       ?dtor$0@?0??SetOnerror@Image@@SAXV?$Local@VString@v8@@@v8@@V?$Local@VValue@v8@@@3@AEBV?$PropertyCallbackInfo@X@Nan@@@Z@4HA 000000018002ac70 f   Image.obj
 0001:00029c70       ?dtor$0@?0??SetOnload@Image@@SAXV?$Local@VString@v8@@@v8@@V?$Local@VValue@v8@@@3@AEBV?$PropertyCallbackInfo@X@Nan@@@Z@4HA 000000018002ac70 f   Image.obj
 0001:00029c80       ?dtor$0@?0??loaded@Image@@QEAAXXZ@4HA 000000018002ac80 f   Image.obj
 0001:00029c8c       __scrt_is_nonwritable_in_current_image$filt$0 000000018002ac8c f   LIBCMT:utility.obj
 0001:00029ca4       ?fin$0@?0??dllmain_crt_process_attach@@YAHQEAUHINSTANCE__@@QEAX@Z@4HA 000000018002aca4 f   LIBCMT:dll_dllmain.obj
 0001:00029cbb       ?fin$0@?0??dllmain_crt_process_detach@@YAH_N@Z@4HA 000000018002acbb f   LIBCMT:dll_dllmain.obj
 0001:00029cd7       ?filt$0@?0??dllmain_dispatch@@YAHQEAUHINSTANCE__@@KQEAX@Z@4HA 000000018002acd7 f   LIBCMT:dll_dllmain.obj
 0001:00029d0d       __CxxCallCatchBlock$filt$0 000000018002ad0d f   libvcruntime:frame.obj
 0001:00029d32       __CxxCallCatchBlock$fin$1  000000018002ad32 f   libvcruntime:frame.obj
 0001:00029daa       __DestructExceptionObject$filt$0 000000018002adaa f   libvcruntime:frame.obj
 0001:00029dc2       __FrameUnwindToState$filt$0 000000018002adc2 f   libvcruntime:frame.obj
 0001:00029dd8       __FrameUnwindToState$fin$1 000000018002add8 f   libvcruntime:frame.obj
 0001:00029dfb       _CallSETranslator$filt$0   000000018002adfb f   libvcruntime:trnsctrl.obj
 0001:00029e47       ?fin$0@?0???$common_fsopen@D@@YAPEAU_iobuf@@QEBD0H@Z@4HA 000000018002ae47 f   libucrt:fopen.obj
 0001:00029e72       fflush$fin$0               000000018002ae72 f   libucrt:fflush.obj
 0001:00029e72       fclose$fin$0               000000018002ae72 f   libucrt:fclose.obj
 0001:00029e8a       ?fin$0@?0??common_fseek@@YAHV__crt_stdio_stream@@_JH@Z@4HA 000000018002ae8a f   libucrt:fseek.obj
 0001:00029ea4       fread_s$fin$0              000000018002aea4 f   libucrt:fread.obj
 0001:00029ebc       _query_new_handler$fin$0   000000018002aebc f   libucrt:new_handler.obj
 0001:00029ed2       ?filt$0@?0??common_exit@@YAXHW4_crt_exit_cleanup_mode@@W4_crt_exit_return_mode@@@Z@4HA 000000018002aed2 f   libucrt:exit.obj
 0001:00029eed       ?fin$1@?0??common_exit@@YAXHW4_crt_exit_cleanup_mode@@W4_crt_exit_return_mode@@@Z@4HA 000000018002aeed f   libucrt:exit.obj
 0001:00029f06       ?fin$0@?0???$?RV<lambda_c36588078e9f5dfd39652860aa6b3aaf>@@AEAV<lambda_ec61778202f4f5fc7e7711acc23c3bca>@@V<lambda_dc9d2797ccde5d239b4a0efae8ebd7db>@@@?$__crt_seh_guarded_call@P6AXH@Z@@QEAAP6AXH@Z$$QEAV<lambda_c36588078e9f5dfd39652860aa6b3aaf>@@AEAV<lambda_ec61778202f4f5fc7e7711acc23c3bca>@@$$QEAV<lambda_dc9d2797ccde5d239b4a0efae8ebd7db>@@@Z@4HA 000000018002af06 f   libucrt:signal.obj
 0001:00029f06       ?fin$0@?0???$?RV<lambda_fb3a7dec4e47f37f22dae91bb15c9095>@@AEAV<lambda_698284760c8add0bfb0756c19673e34b>@@V<lambda_dfb8eca1e75fef3034a8fb18dd509707>@@@?$__crt_seh_guarded_call@X@@QEAAX$$QEAV<lambda_fb3a7dec4e47f37f22dae91bb15c9095>@@AEAV<lambda_698284760c8add0bfb0756c19673e34b>@@$$QEAV<lambda_dfb8eca1e75fef3034a8fb18dd509707>@@@Z@4HA 000000018002af06 f   libucrt:per_thread_data.obj
 0001:00029f06       ?fin$0@?0???$?RV<lambda_46352004c1216016012b18bd6f87e700>@@AEAV<lambda_3bd07e1a1191394380780325891bf33f>@@V<lambda_334532d3f185bcaa59b5be82d7d22bff>@@@?$__crt_seh_guarded_call@X@@QEAAX$$QEAV<lambda_46352004c1216016012b18bd6f87e700>@@AEAV<lambda_3bd07e1a1191394380780325891bf33f>@@$$QEAV<lambda_334532d3f185bcaa59b5be82d7d22bff>@@@Z@4HA 000000018002af06 f   libucrt:per_thread_data.obj
 0001:00029f06       ?fin$0@?0???$?RV<lambda_99476a1ad63dd22509b5d3e65b0ffc95>@@AEAV<lambda_ad1ced32f4ac17aa236e5ef05d6b3b7c>@@V<lambda_f7424dd8d45958661754dc4f2697e9c3>@@@?$__crt_seh_guarded_call@X@@QEAAX$$QEAV<lambda_99476a1ad63dd22509b5d3e65b0ffc95>@@AEAV<lambda_ad1ced32f4ac17aa236e5ef05d6b3b7c>@@$$QEAV<lambda_f7424dd8d45958661754dc4f2697e9c3>@@@Z@4HA 000000018002af06 f   libucrt:mbctype.obj
 0001:00029f06       ?fin$0@?0???$?RV<lambda_b8c45f8f788dd370798f47cfe8ac3a86>@@AEAV<lambda_4e60a939b0d047cfe11ddc22648dfba9>@@V<lambda_332c3edc96d0294ec56c57d38c1cdfd5>@@@?$__crt_seh_guarded_call@H@@QEAAH$$QEAV<lambda_b8c45f8f788dd370798f47cfe8ac3a86>@@AEAV<lambda_4e60a939b0d047cfe11ddc22648dfba9>@@$$QEAV<lambda_332c3edc96d0294ec56c57d38c1cdfd5>@@@Z@4HA 000000018002af06 f   libucrt:onexit.obj
 0001:00029f06       ?fin$0@?0???$?RV<lambda_72d1df2b273a38828b1ce30cbf4cdab5>@@AEAV<lambda_876a65b173b8412d3a47c70a915b0cf4>@@V<lambda_41932305e351933ebe8f8be3ed8bb5dc>@@@?$__crt_seh_guarded_call@X@@QEAAX$$QEAV<lambda_72d1df2b273a38828b1ce30cbf4cdab5>@@AEAV<lambda_876a65b173b8412d3a47c70a915b0cf4>@@$$QEAV<lambda_41932305e351933ebe8f8be3ed8bb5dc>@@@Z@4HA 000000018002af06 f   libucrt:per_thread_data.obj
 0001:00029f06       ?fin$0@?0???$?RV<lambda_5e887d1dcbef67a5eb4283622ba103bf>@@AEAV<lambda_4466841279450cc726390878d4a41900>@@V<lambda_341c25c0346d94847f1f3c463c57e077>@@@?$__crt_seh_guarded_call@X@@QEAAX$$QEAV<lambda_5e887d1dcbef67a5eb4283622ba103bf>@@AEAV<lambda_4466841279450cc726390878d4a41900>@@$$QEAV<lambda_341c25c0346d94847f1f3c463c57e077>@@@Z@4HA 000000018002af06 f   libucrt:per_thread_data.obj
 0001:00029f20       ?fin$0@?0???$?RV<lambda_e24bbb7b643b32fcea6fa61b31d4c984>@@AEAV<lambda_275893d493268fdec8709772e3fcec0e>@@V<lambda_9d71df4d7cf3f480f8d633942495c3b0>@@@?$__crt_seh_guarded_call@H@@QEAAH$$QEAV<lambda_e24bbb7b643b32fcea6fa61b31d4c984>@@AEAV<lambda_275893d493268fdec8709772e3fcec0e>@@$$QEAV<lambda_9d71df4d7cf3f480f8d633942495c3b0>@@@Z@4HA 000000018002af20 f   libucrt:onexit.obj
 0001:00029f3d       common_flush_all$fin$0     000000018002af3d f   libucrt:fflush.obj
 0001:00029f57       common_flush_all$fin$1     000000018002af57 f   libucrt:fflush.obj
 0001:00029f70       ?fin$0@?0???$?RV<lambda_7b91131dde12e1c3dfc74ff76b3f2eac>@@AEAV<lambda_dd75445284c072d0bd3768540cc698fa>@@V<lambda_16bc4ecb55b4718497c16bceaea2ceaf>@@@?$__crt_seh_guarded_call@H@@QEAAH$$QEAV<lambda_7b91131dde12e1c3dfc74ff76b3f2eac>@@AEAV<lambda_dd75445284c072d0bd3768540cc698fa>@@$$QEAV<lambda_16bc4ecb55b4718497c16bceaea2ceaf>@@@Z@4HA 000000018002af70 f   libucrt:output.obj
 0001:00029f70       ?fin$0@?0???$?RV<lambda_7a5ef57ff966f610505f1d28a3d40618>@@AEAV<lambda_b721fa326cdb32351d23dfa67958c160>@@V<lambda_5e0fb27672408a07956fe59e48ccb2aa>@@@?$__crt_seh_guarded_call@H@@QEAAH$$QEAV<lambda_7a5ef57ff966f610505f1d28a3d40618>@@AEAV<lambda_b721fa326cdb32351d23dfa67958c160>@@$$QEAV<lambda_5e0fb27672408a07956fe59e48ccb2aa>@@@Z@4HA 000000018002af70 f   libucrt:setvbuf.obj
 0001:00029f8b       raise$fin$0                000000018002af8b f   libucrt:signal.obj
 0001:00029faf       ?fin$0@?0??__acrt_stdio_allocate_stream@@YA?AV__crt_stdio_stream@@XZ@4HA 000000018002afaf f   libucrt:stream.obj
 0001:00029faf       _fcloseall$fin$0           000000018002afaf f   libucrt:closeall.obj
 0001:00029fc8       __acrt_uninitialize_locale$fin$0 000000018002afc8 f   libucrt:wsetlocale.obj
 0001:00029fc8       __acrt_update_thread_locale_data$fin$0 000000018002afc8 f   libucrt:locale_refcounting.obj
 0001:00029fe1       ?fin$0@?0???$?RV<lambda_bfedae4ebbf01fab1bb6dcc6a9e276e0>@@AEAV<lambda_2fe9b910cf3cbf4a0ab98a02ba45b3ec>@@V<lambda_237c231691f317818eb88cc1d5d642d6>@@@?$__crt_seh_guarded_call@H@@QEAAH$$QEAV<lambda_bfedae4ebbf01fab1bb6dcc6a9e276e0>@@AEAV<lambda_2fe9b910cf3cbf4a0ab98a02ba45b3ec>@@$$QEAV<lambda_237c231691f317818eb88cc1d5d642d6>@@@Z@4HA 000000018002afe1 f   libucrt:close.obj
 0001:00029fe1       ?fin$0@?0???$?RV<lambda_b521505b218e5242e90febf6bfebc422>@@AEAV<lambda_6978c1fb23f02e42e1d9e99668cc68aa>@@V<lambda_314360699dd331753a4119843814e9a7>@@@?$__crt_seh_guarded_call@H@@QEAAH$$QEAV<lambda_b521505b218e5242e90febf6bfebc422>@@AEAV<lambda_6978c1fb23f02e42e1d9e99668cc68aa>@@$$QEAV<lambda_314360699dd331753a4119843814e9a7>@@@Z@4HA 000000018002afe1 f   libucrt:commit.obj
 0001:00029ffb       ?fin$0@?0???$common_lseek@_J@@YA_JH_JH@Z@4HA 000000018002affb f   libucrt:lseek.obj
 0001:00029ffb       _write$fin$0               000000018002affb f   libucrt:write.obj
 0001:00029ffb       _read$fin$0                000000018002affb f   libucrt:read.obj
 0001:0002a012       __acrt_update_thread_multibyte_data$fin$0 000000018002b012 f   libucrt:mbctype.obj
 0001:0002a02b       __acrt_initialize_lowio$fin$0 000000018002b02b f   libucrt:ioinit.obj
 0001:0002a02b       __acrt_lowio_ensure_fh_exists$fin$0 000000018002b02b f   libucrt:osfinfo.obj
 0001:0002a02b       _alloc_osfhnd$fin$0        000000018002b02b f   libucrt:osfinfo.obj
 0001:0002a044       ?fin$0@?0???$common_sopen_dispatch@D@@YAHQEBDHHHQEAHH@Z@4HA 000000018002b044 f   libucrt:open.obj
 0001:0002a097       _ctrlfp$filt$0             000000018002b097 f   libucrt:fpctrl.obj
 0001:0002a097       common_control87$filt$0    000000018002b097 f   libucrt:ieee.obj
 0001:0002a0d0       _IsNonwritableInCurrentImage$filt$0 000000018002b0d0 f   LIBCMT:pesect.obj
 0001:0002a0f0       ??__F?constructor@Canvas@@2V?$Persistent@VFunctionTemplate@v8@@V?$NonCopyablePersistentTraits@VFunctionTemplate@v8@@@2@@Nan@@A@@YAXXZ 000000018002b0f0 f   Canvas.obj
 0001:0002a110       ??__F?constructor@Gradient@@2V?$Persistent@VFunctionTemplate@v8@@V?$NonCopyablePersistentTraits@VFunctionTemplate@v8@@@2@@Nan@@A@@YAXXZ 000000018002b110 f   CanvasGradient.obj
 0001:0002a130       ??__F?constructor@Pattern@@2V?$Persistent@VFunctionTemplate@v8@@V?$NonCopyablePersistentTraits@VFunctionTemplate@v8@@@2@@Nan@@A@@YAXXZ 000000018002b130 f   CanvasPattern.obj
 0001:0002a150       ??__F?constructor@Context2d@@2V?$Persistent@VFunctionTemplate@v8@@V?$NonCopyablePersistentTraits@VFunctionTemplate@v8@@@2@@Nan@@A@@YAXXZ 000000018002b150 f   CanvasRenderingContext2d.obj
 0001:0002a170       ??__F?constructor@Image@@2V?$Persistent@VFunctionTemplate@v8@@V?$NonCopyablePersistentTraits@VFunctionTemplate@v8@@@2@@Nan@@A@@YAXXZ 000000018002b170 f   Image.obj
 0001:0002a190       ??__F?constructor@ImageData@@2V?$Persistent@VFunctionTemplate@v8@@V?$NonCopyablePersistentTraits@VFunctionTemplate@v8@@@2@@Nan@@A@@YAXXZ 000000018002b190 f   ImageData.obj
 0002:000008f0       ??constructor$initializer$@Canvas@@2P6AXXZEA@@3P6AXXZEA 000000018002c8f0     Canvas.obj
 0002:000008f8       ??constructor$initializer$@Gradient@@2P6AXXZEA@@3P6AXXZEA 000000018002c8f8     CanvasGradient.obj
 0002:00000900       ??constructor$initializer$@Pattern@@2P6AXXZEA@@3P6AXXZEA 000000018002c900     CanvasPattern.obj
 0002:00000908       ??constructor$initializer$@Context2d@@2P6AXXZEA@@3P6AXXZEA 000000018002c908     CanvasRenderingContext2d.obj
 0002:00000910       ??constructor$initializer$@Image@@2P6AXXZEA@@3P6AXXZEA 000000018002c910     Image.obj
 0002:00000918       ??constructor$initializer$@ImageData@@2P6AXXZEA@@3P6AXXZEA 000000018002c918     ImageData.obj
 0002:00000a30       GS_ExceptionPointers       000000018002ca30     LIBCMT:gs_report.obj
 0002:00000aa0       ?ExceptionTemplate@?1??_CxxThrowException@@9@4UEHExceptionRecord@@B 000000018002caa0     libvcruntime:throw.obj
 0002:00000ae0       ?ExceptionTemplate@?1??_UnwindNestedFrames@@9@4U_EXCEPTION_RECORD@@B 000000018002cae0     libvcruntime:trnsctrl.obj
 0002:00000b78       ?module_names@?A0x679b24ab@@3QBQEB_WB 000000018002cb78     libvcruntime:winapi_downlevel.obj
 0002:00000c48       ?candidate_modules@?1??try_get_FlsAlloc@@YAP6AKP6AXPEAX@Z@ZXZ@4QBW4module_id@?A0x679b24ab@@B 000000018002cc48     libvcruntime:winapi_downlevel.obj
 0002:00000c60       ?candidate_modules@?1??try_get_FlsFree@@YAP6AHK@ZXZ@4QBW4module_id@?A0x679b24ab@@B 000000018002cc60     libvcruntime:winapi_downlevel.obj
 0002:00000c70       ?candidate_modules@?1??try_get_FlsGetValue@@YAP6APEAXK@ZXZ@4QBW4module_id@?A0x679b24ab@@B 000000018002cc70     libvcruntime:winapi_downlevel.obj
 0002:00000c88       ?candidate_modules@?1??try_get_FlsSetValue@@YAP6AHKPEAX@ZXZ@4QBW4module_id@?A0x679b24ab@@B 000000018002cc88     libvcruntime:winapi_downlevel.obj
 0002:00000ca0       ?candidate_modules@?1??try_get_InitializeCriticalSectionEx@@YAP6AHPEAU_RTL_CRITICAL_SECTION@@KK@ZXZ@4QBW4module_id@?A0x679b24ab@@B 000000018002cca0     libvcruntime:winapi_downlevel.obj
 0002:00000cd0       ?tokenTable@@3QBQEBDB      000000018002ccd0     libvcruntime:undname.obj
 0002:00000d40       ?nameTable@@3QBQEBDB       000000018002cd40     libvcruntime:undname.obj
 0002:00000fc8       ?rttiTable@@3QBQEBDB       000000018002cfc8     libvcruntime:undname.obj
 0002:00001ab0       __acrt_initializers        000000018002dab0     libucrt:initialization.obj
 0002:00001ba0       errtable                   000000018002dba0     libucrt:errno.obj
 0002:00001d10       module_names               000000018002dd10     libucrt:winapi_thunks.obj
 0002:00002240       ?candidate_modules@?1??try_get_AreFileApisANSI@@YAP6AHXZXZ@4QBW4module_id@?A0x63058377@@B 000000018002e240     libucrt:winapi_thunks.obj
 0002:00002258       ?candidate_modules@?1??try_get_FlsAlloc@@YAP6AKP6AXPEAX@Z@ZXZ@4QBW4module_id@?A0x63058377@@B 000000018002e258     libucrt:winapi_thunks.obj
 0002:00002260       ?candidate_modules@?1??try_get_FlsFree@@YAP6AHK@ZXZ@4QBW4module_id@?A0x63058377@@B 000000018002e260     libucrt:winapi_thunks.obj
 0002:00002268       ?candidate_modules@?1??try_get_FlsGetValue@@YAP6APEAXK@ZXZ@4QBW4module_id@?A0x63058377@@B 000000018002e268     libucrt:winapi_thunks.obj
 0002:00002270       ?candidate_modules@?1??try_get_FlsSetValue@@YAP6AHKPEAX@ZXZ@4QBW4module_id@?A0x63058377@@B 000000018002e270     libucrt:winapi_thunks.obj
 0002:00002278       ?candidate_modules@?1??try_get_GetActiveWindow@@YAP6APEAUHWND__@@XZXZ@4QBW4module_id@?A0x63058377@@B 000000018002e278     libucrt:winapi_thunks.obj
 0002:00002290       ?candidate_modules@?1??try_get_GetCurrentPackageId@@YAP6AJPEAIPEAE@ZXZ@4QBW4module_id@?A0x63058377@@B 000000018002e290     libucrt:winapi_thunks.obj
 0002:000022b0       ?candidate_modules@?1??try_get_GetLastActivePopup@@YAP6APEAUHWND__@@PEAU2@@ZXZ@4QBW4module_id@?A0x63058377@@B 000000018002e2b0     libucrt:winapi_thunks.obj
 0002:000022d0       ?candidate_modules@?1??try_get_GetProcessWindowStation@@YAP6APEAUHWINSTA__@@XZXZ@4QBW4module_id@?A0x63058377@@B 000000018002e2d0     libucrt:winapi_thunks.obj
 0002:000022f0       ?candidate_modules@?1??try_get_GetUserObjectInformationW@@YAP6AHPEAXH0KPEAK@ZXZ@4QBW4module_id@?A0x63058377@@B 000000018002e2f0     libucrt:winapi_thunks.obj
 0002:00002318       ?candidate_modules@?1??try_get_InitializeCriticalSectionEx@@YAP6AHPEAU_RTL_CRITICAL_SECTION@@KK@ZXZ@4QBW4module_id@?A0x63058377@@B 000000018002e318     libucrt:winapi_thunks.obj
 0002:00002320       ?candidate_modules@?1??try_get_LCMapStringEx@@YAP6AHPEB_WK0HPEA_WHPEAU_nlsversioninfo@@PEAX_J@ZXZ@4QBW4module_id@?A0x63058377@@B 000000018002e320     libucrt:winapi_thunks.obj
 0002:00002338       ?candidate_modules@?1??try_get_LocaleNameToLCID@@YAP6AKPEB_WK@ZXZ@4QBW4module_id@?A0x63058377@@B 000000018002e338     libucrt:winapi_thunks.obj
 0002:00002358       ?candidate_modules@?1??try_get_MessageBoxA@@YAP6AHPEAUHWND__@@PEBD1I@ZXZ@4QBW4module_id@?A0x63058377@@B 000000018002e358     libucrt:winapi_thunks.obj
 0002:00002370       ?candidate_modules@?1??try_get_MessageBoxW@@YAP6AHPEAUHWND__@@PEB_W1I@ZXZ@4QBW4module_id@?A0x63058377@@B 000000018002e370     libucrt:winapi_thunks.obj
 0002:00002a78       _mb_locale_names           000000018002ea78     libucrt:mbctype.obj
 0002:00003300       LcidToLocaleNameTable      000000018002f300     libucrt:lcidtoname_downlevel.obj
 0002:00004d60       LocaleNameToIndexTable     0000000180030d60     libucrt:lcidtoname_downlevel.obj
 0002:00006ff0       __real@433fffffffffffff    0000000180032ff0     libucrt:fpsr.obj
 0002:00006ff8       __real@c33fffffffffffff    0000000180032ff8     libucrt:fpsr.obj
 0002:00007000       __real_ninf                0000000180033000     libucrt:log10.obj
 0002:00007010       __real_inf                 0000000180033010     libucrt:log10.obj
 0002:00007020       __real_neg_qnan            0000000180033020     libucrt:log10.obj
 0002:00007030       __real_qnanbit             0000000180033030     libucrt:log10.obj
 0002:00007040       __int_1023                 0000000180033040     libucrt:log10.obj
 0002:00007050       __mask_001                 0000000180033050     libucrt:log10.obj
 0002:00007060       __mask_mant                0000000180033060     libucrt:log10.obj
 0002:00007070       __mask_mant_top8           0000000180033070     libucrt:log10.obj
 0002:00007080       __mask_mant9               0000000180033080     libucrt:log10.obj
 0002:00007090       __real_log10_e             0000000180033090     libucrt:log10.obj
 0002:000070a0       __real_log10_e_lead        00000001800330a0     libucrt:log10.obj
 0002:000070b0       __real_log10_e_tail        00000001800330b0     libucrt:log10.obj
 0002:000070c0       __real_log10_2_lead        00000001800330c0     libucrt:log10.obj
 0002:000070d0       __real_log10_2_tail        00000001800330d0     libucrt:log10.obj
 0002:000070e0       __real_two                 00000001800330e0     libucrt:log10.obj
 0002:000070f0       __real_one                 00000001800330f0     libucrt:log10.obj
 0002:00007100       __real_half                0000000180033100     libucrt:log10.obj
 0002:00007110       __mask_100                 0000000180033110     libucrt:log10.obj
 0002:00007120       __real_1_over_512          0000000180033120     libucrt:log10.obj
 0002:00007130       __real_1_over_2            0000000180033130     libucrt:log10.obj
 0002:00007140       __real_1_over_3            0000000180033140     libucrt:log10.obj
 0002:00007150       __real_1_over_4            0000000180033150     libucrt:log10.obj
 0002:00007160       __real_1_over_5            0000000180033160     libucrt:log10.obj
 0002:00007170       __real_1_over_6            0000000180033170     libucrt:log10.obj
 0002:00007180       __real_neg_1023            0000000180033180     libucrt:log10.obj
 0002:00007190       __mask_2045                0000000180033190     libucrt:log10.obj
 0002:000071a0       __real_threshold           00000001800331a0     libucrt:log10.obj
 0002:000071b0       __real_near_one_lt         00000001800331b0     libucrt:log10.obj
 0002:000071c0       __real_near_one_gt         00000001800331c0     libucrt:log10.obj
 0002:000071d0       __real_min_norm            00000001800331d0     libucrt:log10.obj
 0002:000071e0       __real_notsign             00000001800331e0     libucrt:log10.obj
 0002:000071f0       __real_ca1                 00000001800331f0     libucrt:log10.obj
 0002:00007200       __real_ca2                 0000000180033200     libucrt:log10.obj
 0002:00007210       __real_ca3                 0000000180033210     libucrt:log10.obj
 0002:00007220       __real_ca4                 0000000180033220     libucrt:log10.obj
 0002:00007230       __mask_lower               0000000180033230     libucrt:log10.obj
 0002:00007240       __flag_x_zero              0000000180033240     libucrt:log10.obj
 0002:00007244       __flag_x_neg               0000000180033244     libucrt:log10.obj
 0002:00007248       __flag_x_nan               0000000180033248     libucrt:log10.obj
 0002:0000a180       ?named_colors@@3PAUnamed_color@@A 0000000180036180     color.obj
 0002:0000ad30       $cppxdata$?resurface@Canvas@@QEAAXV?$Local@VObject@v8@@@v8@@@Z 0000000180036d30     Canvas.obj
 0002:0000ad58       $cppxdata$??1Canvas@@EEAA@XZ 0000000180036d58     Canvas.obj
 0002:0000ad80       $cppxdata$??0Canvas@@QEAA@HHW4canvas_type_t@@@Z 0000000180036d80     Canvas.obj
 0002:0000ada8       $cppxdata$?StreamPDFSync@Canvas@@SAXAEBV?$FunctionCallbackInfo@VValue@v8@@@Nan@@@Z 0000000180036da8     Canvas.obj
 0002:0000add0       $cppxdata$?streamPDF@@YA?AW4_cairo_status@@PEAXPEBEI@Z 0000000180036dd0     Canvas.obj
 0002:0000adf8       $cppxdata$?StreamPNGSync@Canvas@@SAXAEBV?$FunctionCallbackInfo@VValue@v8@@@Nan@@@Z 0000000180036df8     Canvas.obj
 0002:0000ae20       $cppxdata$?streamPNG@@YA?AW4_cairo_status@@PEAXPEBEI@Z 0000000180036e20     Canvas.obj
 0002:0000ae48       $cppxdata$?ToBuffer@Canvas@@SAXAEBV?$FunctionCallbackInfo@VValue@v8@@@Nan@@@Z 0000000180036e48     Canvas.obj
 0002:0000ae70       $cppxdata$?ToBufferAsyncAfter@Canvas@@SAXPEAUuv_work_s@@@Z 0000000180036e70     Canvas.obj
 0002:0000ae98       $cppxdata$?New@Canvas@@SAXAEBV?$FunctionCallbackInfo@VValue@v8@@@Nan@@@Z 0000000180036e98     Canvas.obj
 0002:0000aec0       $cppxdata$?Initialize@Canvas@@SAXV?$Local@VObject@v8@@@v8@@@Z 0000000180036ec0     Canvas.obj
 0002:0000aee8       $cppxdata$??__F?constructor@Canvas@@2V?$Persistent@VFunctionTemplate@v8@@V?$NonCopyablePersistentTraits@VFunctionTemplate@v8@@@2@@Nan@@A@@YAXXZ 0000000180036ee8     Canvas.obj
 0002:0000af10       $cppxdata$??1ObjectWrap@Nan@@UEAA@XZ 0000000180036f10     Canvas.obj
 0002:0000af38       $cppxdata$?SetAccessor@Nan@@YAXV?$Local@VObjectTemplate@v8@@@v8@@V?$Local@VString@v8@@@3@P6AX1AEBV?$PropertyCallbackInfo@VValue@v8@@@1@@ZP6AX1V?$Local@VValue@v8@@@3@AEBV?$PropertyCallbackInfo@X@1@@Z4W4AccessControl@3@W4PropertyAttribute@3@V?$Local@VAccessorSignature@v8@@@3@@Z 0000000180036f38     Canvas.obj
 0002:0000af60       $cppxdata$?SetPrototypeMethod@Nan@@YAXV?$Local@VFunctionTemplate@v8@@@v8@@PEBDP6AXAEBV?$FunctionCallbackInfo@VValue@v8@@@1@@Z@Z 0000000180036f60     Canvas.obj
 0002:0000af88       $cppxdata$??_GCallback@Nan@@QEAAPEAXI@Z 0000000180036f88     Canvas.obj
 0002:0000afb0       $cppxdata$?Call_@Callback@Nan@@AEBA?AV?$Local@VValue@v8@@@v8@@PEAVIsolate@4@V?$Local@VObject@v8@@@4@HQEAV34@@Z 0000000180036fb0     Canvas.obj
 0002:0000afd8       $cppxdata$?Call@Callback@Nan@@QEBA?AV?$Local@VValue@v8@@@v8@@HQEAV34@@Z 0000000180036fd8     Canvas.obj
 0002:0000b000       $cppxdata$?ThrowTypeError@Nan@@YAXPEBD@Z 0000000180037000     Canvas.obj
 0002:0000b028       $cppxdata$?ThrowRangeError@Nan@@YAXPEBD@Z 0000000180037028     Canvas.obj
 0002:0000b050       $cppxdata$?New@?$Factory@VFunctionTemplate@v8@@@imp@Nan@@SA?AV?$Local@VFunctionTemplate@v8@@@v8@@P6AXAEBV?$FunctionCallbackInfo@VValue@v8@@@3@@ZV?$Local@VValue@v8@@@5@V?$Local@VSignature@v8@@@5@@Z 0000000180037050     Canvas.obj
 0002:0000b078       $cppxdata$?convert@?$ToFactory@VUint32@v8@@@imp@Nan@@SA?AV?$MaybeLocal@VUint32@v8@@@v8@@V?$Local@VValue@v8@@@5@@Z 0000000180037078     Canvas.obj
 0002:0000b0a0       $cppxdata$?Call@Nan@@YA?AV?$MaybeLocal@VValue@v8@@@v8@@V?$Local@VFunction@v8@@@3@V?$Local@VObject@v8@@@3@HQEAV?$Local@VValue@v8@@@3@@Z 00000001800370a0     Canvas.obj
 0002:0000b0c8       $cppxdata$?Set@Nan@@YA?AV?$Maybe@_N@v8@@V?$Local@VObject@v8@@@3@V?$Local@VValue@v8@@@3@1@Z 00000001800370c8     Canvas.obj
 0002:0000b0f0       $cppxdata$?NewInstance@Nan@@YA?AV?$MaybeLocal@VObject@v8@@@v8@@V?$Local@VObjectTemplate@v8@@@3@@Z 00000001800370f0     Canvas.obj
 0002:0000b1e0       $cppxdata$?AddColorStop@Gradient@@SAXAEBV?$FunctionCallbackInfo@VValue@v8@@@Nan@@@Z 00000001800371e0     CanvasGradient.obj
 0002:0000b208       $cppxdata$?New@Gradient@@SAXAEBV?$FunctionCallbackInfo@VValue@v8@@@Nan@@@Z 0000000180037208     CanvasGradient.obj
 0002:0000b230       $cppxdata$?Initialize@Gradient@@SAXV?$Local@VObject@v8@@@v8@@@Z 0000000180037230     CanvasGradient.obj
 0002:0000b258       $cppxdata$??__F?constructor@Gradient@@2V?$Persistent@VFunctionTemplate@v8@@V?$NonCopyablePersistentTraits@VFunctionTemplate@v8@@@2@@Nan@@A@@YAXXZ 0000000180037258     CanvasGradient.obj
 0002:0000b280       $cppxdata$?Initialize@Pattern@@SAXV?$Local@VObject@v8@@@v8@@@Z 0000000180037280     CanvasPattern.obj
 0002:0000b2a8       $cppxdata$??__F?constructor@Pattern@@2V?$Persistent@VFunctionTemplate@v8@@V?$NonCopyablePersistentTraits@VFunctionTemplate@v8@@@2@@Nan@@A@@YAXXZ 00000001800372a8     CanvasPattern.obj
 0002:0000b2d0       $cppxdata$?ThrowError@Nan@@YAXPEBD@Z 00000001800372d0     CanvasPattern.obj
 0002:0000b2f8       $cppxdata$??0?$TypedArrayContents@E@Nan@@QEAA@V?$Local@VValue@v8@@@v8@@@Z 00000001800372f8     CanvasRenderingContext2d.obj
 0002:0000b320       $cppxdata$?GetLineDash@Context2d@@SAXAEBV?$FunctionCallbackInfo@VValue@v8@@@Nan@@@Z 0000000180037320     CanvasRenderingContext2d.obj
 0002:0000b348       $cppxdata$?SetLineDash@Context2d@@SAXAEBV?$FunctionCallbackInfo@VValue@v8@@@Nan@@@Z 0000000180037348     CanvasRenderingContext2d.obj
 0002:0000b370       $cppxdata$?MeasureText@Context2d@@SAXAEBV?$FunctionCallbackInfo@VValue@v8@@@Nan@@@Z 0000000180037370     CanvasRenderingContext2d.obj
 0002:0000b398       $cppxdata$?SetFont@Context2d@@SAXAEBV?$FunctionCallbackInfo@VValue@v8@@@Nan@@@Z 0000000180037398     CanvasRenderingContext2d.obj
 0002:0000b3c0       $cppxdata$?StrokeText@Context2d@@SAXAEBV?$FunctionCallbackInfo@VValue@v8@@@Nan@@@Z 00000001800373c0     CanvasRenderingContext2d.obj
 0002:0000b3e8       $cppxdata$?FillText@Context2d@@SAXAEBV?$FunctionCallbackInfo@VValue@v8@@@Nan@@@Z 00000001800373e8     CanvasRenderingContext2d.obj
 0002:0000b410       $cppxdata$?SetStrokeColor@Context2d@@SAXAEBV?$FunctionCallbackInfo@VValue@v8@@@Nan@@@Z 0000000180037410     CanvasRenderingContext2d.obj
 0002:0000b438       $cppxdata$?SetFillColor@Context2d@@SAXAEBV?$FunctionCallbackInfo@VValue@v8@@@Nan@@@Z 0000000180037438     CanvasRenderingContext2d.obj
 0002:0000b460       $cppxdata$?SetShadowColor@Context2d@@SAXV?$Local@VString@v8@@@v8@@V?$Local@VValue@v8@@@3@AEBV?$PropertyCallbackInfo@X@Nan@@@Z 0000000180037460     CanvasRenderingContext2d.obj
 0002:0000b488       $cppxdata$?SetFilter@Context2d@@SAXV?$Local@VString@v8@@@v8@@V?$Local@VValue@v8@@@3@AEBV?$PropertyCallbackInfo@X@Nan@@@Z 0000000180037488     CanvasRenderingContext2d.obj
 0002:0000b4b0       $cppxdata$?SetTextDrawingMode@Context2d@@SAXV?$Local@VString@v8@@@v8@@V?$Local@VValue@v8@@@3@AEBV?$PropertyCallbackInfo@X@Nan@@@Z 00000001800374b0     CanvasRenderingContext2d.obj
 0002:0000b4d8       $cppxdata$?SetAntiAlias@Context2d@@SAXV?$Local@VString@v8@@@v8@@V?$Local@VValue@v8@@@3@AEBV?$PropertyCallbackInfo@X@Nan@@@Z 00000001800374d8     CanvasRenderingContext2d.obj
 0002:0000b500       $cppxdata$?Initialize@Context2d@@SAXV?$Local@VObject@v8@@@v8@@@Z 0000000180037500     CanvasRenderingContext2d.obj
 0002:0000b528       $cppxdata$??__F?constructor@Context2d@@2V?$Persistent@VFunctionTemplate@v8@@V?$NonCopyablePersistentTraits@VFunctionTemplate@v8@@@2@@Nan@@A@@YAXXZ 0000000180037528     CanvasRenderingContext2d.obj
 0002:0000b550       $cppxdata$?convert@?$ToFactory@VInt32@v8@@@imp@Nan@@SA?AV?$MaybeLocal@VInt32@v8@@@v8@@V?$Local@VValue@v8@@@5@@Z 0000000180037550     CanvasRenderingContext2d.obj
 0002:0000b578       $cppxdata$?GetFunction@Nan@@YA?AV?$MaybeLocal@VFunction@v8@@@v8@@V?$Local@VFunctionTemplate@v8@@@3@@Z 0000000180037578     CanvasRenderingContext2d.obj
 0002:0000b5a0       $cppxdata$?NewInstance@Nan@@YA?AV?$MaybeLocal@VObject@v8@@@v8@@V?$Local@VFunction@v8@@@3@HQEAV?$Local@VValue@v8@@@3@@Z 00000001800375a0     CanvasRenderingContext2d.obj
 0002:0000b5c8       $cppxdata$?loaded@Image@@QEAAXXZ 00000001800375c8     Image.obj
 0002:0000b5f0       $cppxdata$??1Image@@EEAA@XZ 00000001800375f0     Image.obj
 0002:0000b618       $cppxdata$?SetOnerror@Image@@SAXV?$Local@VString@v8@@@v8@@V?$Local@VValue@v8@@@3@AEBV?$PropertyCallbackInfo@X@Nan@@@Z 0000000180037618     Image.obj
 0002:0000b640       $cppxdata$?SetOnload@Image@@SAXV?$Local@VString@v8@@@v8@@V?$Local@VValue@v8@@@3@AEBV?$PropertyCallbackInfo@X@Nan@@@Z 0000000180037640     Image.obj
 0002:0000b668       $cppxdata$?SetSource@Image@@SAXV?$Local@VString@v8@@@v8@@V?$Local@VValue@v8@@@3@AEBV?$PropertyCallbackInfo@X@Nan@@@Z 0000000180037668     Image.obj
 0002:0000b690       $cppxdata$?Initialize@Image@@SAXV?$Local@VObject@v8@@@v8@@@Z 0000000180037690     Image.obj
 0002:0000b6b8       $cppxdata$??__F?constructor@Image@@2V?$Persistent@VFunctionTemplate@v8@@V?$NonCopyablePersistentTraits@VFunctionTemplate@v8@@@2@@Nan@@A@@YAXXZ 00000001800376b8     Image.obj
 0002:0000b6e0       $cppxdata$?Initialize@ImageData@@SAXV?$Local@VObject@v8@@@v8@@@Z 00000001800376e0     ImageData.obj
 0002:0000b708       $cppxdata$??__F?constructor@ImageData@@2V?$Persistent@VFunctionTemplate@v8@@V?$NonCopyablePersistentTraits@VFunctionTemplate@v8@@@2@@Nan@@A@@YAXXZ 0000000180037708     ImageData.obj
 0002:0000b7e0       L_signbit                  00000001800377e0     libucrt:tan.obj
 0002:0000b7f0       L_sign_mask                00000001800377f0     libucrt:tan.obj
 0002:0000b800       L_int_one                  0000000180037800     libucrt:tan.obj
 0002:0000b810       L_twobypi                  0000000180037810     libucrt:tan.obj
 0002:0000b820       L_point_333                0000000180037820     libucrt:tan.obj
 0002:0000b830       L_tan_p0                   0000000180037830     libucrt:tan.obj
 0002:0000b840       L_tan_p2                   0000000180037840     libucrt:tan.obj
 0002:0000b850       L_tan_p4                   0000000180037850     libucrt:tan.obj
 0002:0000b860       L_tan_q0                   0000000180037860     libucrt:tan.obj
 0002:0000b870       L_tan_q2                   0000000180037870     libucrt:tan.obj
 0002:0000b880       L_tan_q4                   0000000180037880     libucrt:tan.obj
 0002:0000b890       L_tan_q6                   0000000180037890     libucrt:tan.obj
 0002:0000b8a0       L_half_mask                00000001800378a0     libucrt:tan.obj
 0002:0000b8b0       L_piby4_lead               00000001800378b0     libucrt:tan.obj
 0002:0000b8c0       L_piby4_tail               00000001800378c0     libucrt:tan.obj
 0002:0000b8d0       L_piby2_1                  00000001800378d0     libucrt:tan.obj
 0002:0000b8d8       L_piby2_1tail              00000001800378d8     libucrt:tan.obj
 0002:0000b8e0       L_piby2_2                  00000001800378e0     libucrt:tan.obj
 0002:0000b8e8       L_piby2_2tail              00000001800378e8     libucrt:tan.obj
 0002:0000b8f0       L_piby2_3                  00000001800378f0     libucrt:tan.obj
 0002:0000b8f8       L_piby2_3tail              00000001800378f8     libucrt:tan.obj
 0002:0000b900       L_two_to_neg_27            0000000180037900     libucrt:tan.obj
 0002:0000b908       L_two_to_neg_13            0000000180037908     libucrt:tan.obj
 0002:0000b910       L_inf_mask_64              0000000180037910     libucrt:tan.obj
 0002:0000b918       L_point_five               0000000180037918     libucrt:tan.obj
 0002:0000b920       L_point_68                 0000000180037920     libucrt:tan.obj
 0002:0000b928       L_n_point_68               0000000180037928     libucrt:tan.obj
 0002:0000b930       L_zero                     0000000180037930     libucrt:tan.obj
 0002:0000b938       L_one                      0000000180037938     libucrt:tan.obj
 0002:0000b940       L_n_one                    0000000180037940     libucrt:tan.obj
 0002:0000b948       L_two                      0000000180037948     libucrt:tan.obj
 0002:0000b950       L_near_one                 0000000180037950     libucrt:tan.obj
 0002:0000b958       L_moderate_arg_cw          0000000180037958     libucrt:tan.obj
 0002:0000b960       L_moderate_arg_bdl         0000000180037960     libucrt:tan.obj
 0002:0000b970       L_piby2_lead               0000000180037970     libucrt:remainder_piby2_forfma3.obj
 0002:0000b980       L_fff800                   0000000180037980     libucrt:remainder_piby2_forfma3.obj
 0002:0000b990       L_piby2_part1              0000000180037990     libucrt:remainder_piby2_forfma3.obj
 0002:0000b9a0       L_piby2_part2              00000001800379a0     libucrt:remainder_piby2_forfma3.obj
 0002:0000b9b0       L_piby2_part3              00000001800379b0     libucrt:remainder_piby2_forfma3.obj
 0002:0000b9c0       L_piby2_1                  00000001800379c0     libucrt:remainder_piby2_forfma3.obj
 0002:0000b9d0       L_piby2_2                  00000001800379d0     libucrt:remainder_piby2_forfma3.obj
 0002:0000b9e0       L_piby2_3                  00000001800379e0     libucrt:remainder_piby2_forfma3.obj
 0002:0000b9f0       L_piby2_1tail              00000001800379f0     libucrt:remainder_piby2_forfma3.obj
 0002:0000ba00       L_piby2_2tail              0000000180037a00     libucrt:remainder_piby2_forfma3.obj
 0002:0000ba10       L_piby2_3tail              0000000180037a10     libucrt:remainder_piby2_forfma3.obj
 0002:0000ba20       L_sign_mask                0000000180037a20     libucrt:remainder_piby2_forfma3.obj
 0002:0000ba30       L_twobypi                  0000000180037a30     libucrt:remainder_piby2_forfma3.obj
 0002:0000ba40       L_point_five               0000000180037a40     libucrt:remainder_piby2_forfma3.obj
 0002:0000ba50       L_int_three                0000000180037a50     libucrt:remainder_piby2_forfma3.obj
 0002:0000ba60       L_inf_mask_64              0000000180037a60     libucrt:remainder_piby2_forfma3.obj
 0002:0000ba70       L_signbit                  0000000180037a70     libucrt:remainder_piby2_forfma3.obj
 0002:0000ba80       L_r                        0000000180037a80     libucrt:remainder_piby2_forfma3.obj
 0002:0000ba90       L_xc1                      0000000180037a90     libucrt:remainder_piby2_forfma3.obj
 0002:0000baa0       L_xc2                      0000000180037aa0     libucrt:remainder_piby2_forfma3.obj
 0002:0000bab0       L_xc3                      0000000180037ab0     libucrt:remainder_piby2_forfma3.obj
 0002:0000bac0       L_sigma                    0000000180037ac0     libucrt:remainder_piby2_forfma3.obj
 0002:0000bad0       L__piby2_part3_piby2_lead  0000000180037ad0     libucrt:remainder_piby2_forasm.obj
 0002:0000bae0       L__piby2_part1             0000000180037ae0     libucrt:remainder_piby2_forasm.obj
 0002:0000baf0       L__piby2_part2             0000000180037af0     libucrt:remainder_piby2_forasm.obj
 0002:0000bb00       L_piby2_1                  0000000180037b00     libucrt:remainder_piby2_forasm.obj
 0002:0000bb10       L_piby2_2                  0000000180037b10     libucrt:remainder_piby2_forasm.obj
 0002:0000bb20       L_piby2_3                  0000000180037b20     libucrt:remainder_piby2_forasm.obj
 0002:0000bb30       L_piby2_1tail              0000000180037b30     libucrt:remainder_piby2_forasm.obj
 0002:0000bb40       L_piby2_2tail              0000000180037b40     libucrt:remainder_piby2_forasm.obj
 0002:0000bb50       L_piby2_3tail              0000000180037b50     libucrt:remainder_piby2_forasm.obj
 0002:0000bb60       L_twobypi                  0000000180037b60     libucrt:remainder_piby2_forasm.obj
 0002:0000bb70       L_point_five               0000000180037b70     libucrt:remainder_piby2_forasm.obj
 0002:0000bb80       L_int_three                0000000180037b80     libucrt:remainder_piby2_forasm.obj
 0002:0000bb90       L_inf_mask_64              0000000180037b90     libucrt:remainder_piby2_forasm.obj
 0002:0000bba0       L_signbit                  0000000180037ba0     libucrt:remainder_piby2_forasm.obj
 0002:0000bbb0       L_int_1                    0000000180037bb0     libucrt:remainder_piby2_forasm.obj
 0002:0000bbc0       L_int_15                   0000000180037bc0     libucrt:remainder_piby2_forasm.obj
 0002:0000bbc8       L_int_48                   0000000180037bc8     libucrt:remainder_piby2_forasm.obj
 0002:0000bbd0       L_3pio4                    0000000180037bd0     libucrt:remainder_piby2_forasm.obj
 0002:0000bbd8       L_5pio4                    0000000180037bd8     libucrt:remainder_piby2_forasm.obj
 0002:0000bbe0       L_7pio4                    0000000180037be0     libucrt:remainder_piby2_forasm.obj
 0002:0000bbe8       L_9pio4                    0000000180037be8     libucrt:remainder_piby2_forasm.obj
 0002:0000bbf0       L__2_by_pi_bits            0000000180037bf0     libucrt:remainder_piby2_forasm.obj
 0002:0000c570       $unwind$?FunctionCallbackWrapper@imp@Nan@@YAXAEBV?$FunctionCallbackInfo@VValue@v8@@@v8@@@Z 0000000180038570     Canvas.obj
 0002:0000c580       $unwind$?GetterCallbackWrapper@imp@Nan@@YAXV?$Local@VName@v8@@@v8@@AEBV?$PropertyCallbackInfo@VValue@v8@@@4@@Z 0000000180038580     Canvas.obj
 0002:0000c58c       $unwind$?SetterCallbackWrapper@imp@Nan@@YAXV?$Local@VName@v8@@@v8@@V?$Local@VValue@v8@@@4@AEBV?$PropertyCallbackInfo@X@4@@Z 000000018003858c     Canvas.obj
 0002:0000c598       $unwind$?NewInstance@Nan@@YA?AV?$MaybeLocal@VObject@v8@@@v8@@V?$Local@VObjectTemplate@v8@@@3@@Z 0000000180038598     Canvas.obj
 0002:0000c5ac       $stateUnwindMap$?NewInstance@Nan@@YA?AV?$MaybeLocal@VObject@v8@@@v8@@V?$Local@VObjectTemplate@v8@@@3@@Z 00000001800385ac     Canvas.obj
 0002:0000c5ac       $stateUnwindMap$?GetFunction@Nan@@YA?AV?$MaybeLocal@VFunction@v8@@@v8@@V?$Local@VFunctionTemplate@v8@@@3@@Z 00000001800385ac     CanvasRenderingContext2d.obj
 0002:0000c5ac       $stateUnwindMap$?convert@?$ToFactory@VUint32@v8@@@imp@Nan@@SA?AV?$MaybeLocal@VUint32@v8@@@v8@@V?$Local@VValue@v8@@@5@@Z 00000001800385ac     Canvas.obj
 0002:0000c5ac       $stateUnwindMap$?convert@?$ToFactory@VInt32@v8@@@imp@Nan@@SA?AV?$MaybeLocal@VInt32@v8@@@v8@@V?$Local@VValue@v8@@@5@@Z 00000001800385ac     CanvasRenderingContext2d.obj
 0002:0000c5b8       $ip2state$?NewInstance@Nan@@YA?AV?$MaybeLocal@VObject@v8@@@v8@@V?$Local@VObjectTemplate@v8@@@3@@Z 00000001800385b8     Canvas.obj
 0002:0000c5d0       $unwind$?Set@Nan@@YA?AV?$Maybe@_N@v8@@V?$Local@VObject@v8@@@3@V?$Local@VValue@v8@@@3@1@Z 00000001800385d0     Canvas.obj
 0002:0000c5e4       $stateUnwindMap$?Set@Nan@@YA?AV?$Maybe@_N@v8@@V?$Local@VObject@v8@@@3@V?$Local@VValue@v8@@@3@1@Z 00000001800385e4     Canvas.obj
 0002:0000c5f0       $ip2state$?Set@Nan@@YA?AV?$Maybe@_N@v8@@V?$Local@VObject@v8@@@3@V?$Local@VValue@v8@@@3@1@Z 00000001800385f0     Canvas.obj
 0002:0000c608       $unwind$?Call@Nan@@YA?AV?$MaybeLocal@VValue@v8@@@v8@@V?$Local@VFunction@v8@@@3@V?$Local@VObject@v8@@@3@HQEAV?$Local@VValue@v8@@@3@@Z 0000000180038608     Canvas.obj
 0002:0000c620       $stateUnwindMap$?NewInstance@Nan@@YA?AV?$MaybeLocal@VObject@v8@@@v8@@V?$Local@VFunction@v8@@@3@HQEAV?$Local@VValue@v8@@@3@@Z 0000000180038620     CanvasRenderingContext2d.obj
 0002:0000c620       $stateUnwindMap$?Call@Nan@@YA?AV?$MaybeLocal@VValue@v8@@@v8@@V?$Local@VFunction@v8@@@3@V?$Local@VObject@v8@@@3@HQEAV?$Local@VValue@v8@@@3@@Z 0000000180038620     Canvas.obj
 0002:0000c628       $ip2state$?Call@Nan@@YA?AV?$MaybeLocal@VValue@v8@@@v8@@V?$Local@VFunction@v8@@@3@V?$Local@VObject@v8@@@3@HQEAV?$Local@VValue@v8@@@3@@Z 0000000180038628     Canvas.obj
 0002:0000c640       $unwind$?convert@?$ToFactory@VUint32@v8@@@imp@Nan@@SA?AV?$MaybeLocal@VUint32@v8@@@v8@@V?$Local@VValue@v8@@@5@@Z 0000000180038640     Canvas.obj
 0002:0000c658       $ip2state$?convert@?$ToFactory@VUint32@v8@@@imp@Nan@@SA?AV?$MaybeLocal@VUint32@v8@@@v8@@V?$Local@VValue@v8@@@5@@Z 0000000180038658     Canvas.obj
 0002:0000c670       $unwind$?New@?$Factory@VFunctionTemplate@v8@@@imp@Nan@@SA?AV?$Local@VFunctionTemplate@v8@@@v8@@P6AXAEBV?$FunctionCallbackInfo@VValue@v8@@@3@@ZV?$Local@VValue@v8@@@5@V?$Local@VSignature@v8@@@5@@Z 0000000180038670     Canvas.obj
 0002:0000c688       $stateUnwindMap$?New@?$Factory@VFunctionTemplate@v8@@@imp@Nan@@SA?AV?$Local@VFunctionTemplate@v8@@@v8@@P6AXAEBV?$FunctionCallbackInfo@VValue@v8@@@3@@ZV?$Local@VValue@v8@@@5@V?$Local@VSignature@v8@@@5@@Z 0000000180038688     Canvas.obj
 0002:0000c690       $ip2state$?New@?$Factory@VFunctionTemplate@v8@@@imp@Nan@@SA?AV?$Local@VFunctionTemplate@v8@@@v8@@P6AXAEBV?$FunctionCallbackInfo@VValue@v8@@@3@@ZV?$Local@VValue@v8@@@5@V?$Local@VSignature@v8@@@5@@Z 0000000180038690     Canvas.obj
 0002:0000c6a8       $unwind$?ThrowRangeError@Nan@@YAXPEBD@Z 00000001800386a8     Canvas.obj
 0002:0000c6b8       $stateUnwindMap$??0?$TypedArrayContents@E@Nan@@QEAA@V?$Local@VValue@v8@@@v8@@@Z 00000001800386b8     CanvasRenderingContext2d.obj
 0002:0000c6b8       $stateUnwindMap$?Call_@Callback@Nan@@AEBA?AV?$Local@VValue@v8@@@v8@@PEAVIsolate@4@V?$Local@VObject@v8@@@4@HQEAV34@@Z 00000001800386b8     Canvas.obj
 0002:0000c6b8       $stateUnwindMap$?ThrowRangeError@Nan@@YAXPEBD@Z 00000001800386b8     Canvas.obj
 0002:0000c6b8       $stateUnwindMap$?ThrowError@Nan@@YAXPEBD@Z 00000001800386b8     CanvasPattern.obj
 0002:0000c6b8       $stateUnwindMap$?resurface@Canvas@@QEAAXV?$Local@VObject@v8@@@v8@@@Z 00000001800386b8     Canvas.obj
 0002:0000c6b8       $stateUnwindMap$?ThrowTypeError@Nan@@YAXPEBD@Z 00000001800386b8     Canvas.obj
 0002:0000c6c0       $ip2state$?ThrowRangeError@Nan@@YAXPEBD@Z 00000001800386c0     Canvas.obj
 0002:0000c6d8       $unwind$?ThrowTypeError@Nan@@YAXPEBD@Z 00000001800386d8     Canvas.obj
 0002:0000c6e8       $ip2state$?ThrowTypeError@Nan@@YAXPEBD@Z 00000001800386e8     Canvas.obj
 0002:0000c700       $unwind$?Call@Callback@Nan@@QEBA?AV?$Local@VValue@v8@@@v8@@HQEAV34@@Z 0000000180038700     Canvas.obj
 0002:0000c71c       $stateUnwindMap$?Call@Callback@Nan@@QEBA?AV?$Local@VValue@v8@@@v8@@HQEAV34@@Z 000000018003871c     Canvas.obj
 0002:0000c728       $ip2state$?Call@Callback@Nan@@QEBA?AV?$Local@VValue@v8@@@v8@@HQEAV34@@Z 0000000180038728     Canvas.obj
 0002:0000c740       $unwind$?Call_@Callback@Nan@@AEBA?AV?$Local@VValue@v8@@@v8@@PEAVIsolate@4@V?$Local@VObject@v8@@@4@HQEAV34@@Z 0000000180038740     Canvas.obj
 0002:0000c758       $ip2state$?Call_@Callback@Nan@@AEBA?AV?$Local@VValue@v8@@@v8@@PEAVIsolate@4@V?$Local@VObject@v8@@@4@HQEAV34@@Z 0000000180038758     Canvas.obj
 0002:0000c770       $unwind$??_GCallback@Nan@@QEAAPEAXI@Z 0000000180038770     Canvas.obj
 0002:0000c780       $stateUnwindMap$??_GCallback@Nan@@QEAAPEAXI@Z 0000000180038780     Canvas.obj
 0002:0000c790       $ip2state$??_GCallback@Nan@@QEAAPEAXI@Z 0000000180038790     Canvas.obj
 0002:0000c7a8       $unwind$?SetPrototypeMethod@Nan@@YAXV?$Local@VFunctionTemplate@v8@@@v8@@PEBDP6AXAEBV?$FunctionCallbackInfo@VValue@v8@@@1@@Z@Z 00000001800387a8     Canvas.obj
 0002:0000c7c0       $stateUnwindMap$?SetPrototypeMethod@Nan@@YAXV?$Local@VFunctionTemplate@v8@@@v8@@PEBDP6AXAEBV?$FunctionCallbackInfo@VValue@v8@@@1@@Z@Z 00000001800387c0     Canvas.obj
 0002:0000c7c0       $stateUnwindMap$?Initialize@Gradient@@SAXV?$Local@VObject@v8@@@v8@@@Z 00000001800387c0     CanvasGradient.obj
 0002:0000c7c0       $stateUnwindMap$?Initialize@Pattern@@SAXV?$Local@VObject@v8@@@v8@@@Z 00000001800387c0     CanvasPattern.obj
 0002:0000c7c8       $ip2state$?SetPrototypeMethod@Nan@@YAXV?$Local@VFunctionTemplate@v8@@@v8@@PEBDP6AXAEBV?$FunctionCallbackInfo@VValue@v8@@@1@@Z@Z 00000001800387c8     Canvas.obj
 0002:0000c7e0       $unwind$?SetAccessor@Nan@@YAXV?$Local@VObjectTemplate@v8@@@v8@@V?$Local@VString@v8@@@3@P6AX1AEBV?$PropertyCallbackInfo@VValue@v8@@@1@@ZP6AX1V?$Local@VValue@v8@@@3@AEBV?$PropertyCallbackInfo@X@1@@Z4W4AccessControl@3@W4PropertyAttribute@3@V?$Local@VAccessorSignature@v8@@@3@@Z 00000001800387e0     Canvas.obj
 0002:0000c7f8       $stateUnwindMap$?SetAccessor@Nan@@YAXV?$Local@VObjectTemplate@v8@@@v8@@V?$Local@VString@v8@@@3@P6AX1AEBV?$PropertyCallbackInfo@VValue@v8@@@1@@ZP6AX1V?$Local@VValue@v8@@@3@AEBV?$PropertyCallbackInfo@X@1@@Z4W4AccessControl@3@W4PropertyAttribute@3@V?$Local@VAccessorSignature@v8@@@3@@Z 00000001800387f8     Canvas.obj
 0002:0000c800       $ip2state$?SetAccessor@Nan@@YAXV?$Local@VObjectTemplate@v8@@@v8@@V?$Local@VString@v8@@@3@P6AX1AEBV?$PropertyCallbackInfo@VValue@v8@@@1@@ZP6AX1V?$Local@VValue@v8@@@3@AEBV?$PropertyCallbackInfo@X@1@@Z4W4AccessControl@3@W4PropertyAttribute@3@V?$Local@VAccessorSignature@v8@@@3@@Z 0000000180038800     Canvas.obj
 0002:0000c818       $unwind$??1ObjectWrap@Nan@@UEAA@XZ 0000000180038818     Canvas.obj
 0002:0000c828       $stateUnwindMap$??__F?constructor@Pattern@@2V?$Persistent@VFunctionTemplate@v8@@V?$NonCopyablePersistentTraits@VFunctionTemplate@v8@@@2@@Nan@@A@@YAXXZ 0000000180038828     CanvasPattern.obj
 0002:0000c828       $stateUnwindMap$??__F?constructor@Context2d@@2V?$Persistent@VFunctionTemplate@v8@@V?$NonCopyablePersistentTraits@VFunctionTemplate@v8@@@2@@Nan@@A@@YAXXZ 0000000180038828     CanvasRenderingContext2d.obj
 0002:0000c828       $stateUnwindMap$??__F?constructor@Image@@2V?$Persistent@VFunctionTemplate@v8@@V?$NonCopyablePersistentTraits@VFunctionTemplate@v8@@@2@@Nan@@A@@YAXXZ 0000000180038828     Image.obj
 0002:0000c828       $stateUnwindMap$??__F?constructor@ImageData@@2V?$Persistent@VFunctionTemplate@v8@@V?$NonCopyablePersistentTraits@VFunctionTemplate@v8@@@2@@Nan@@A@@YAXXZ 0000000180038828     ImageData.obj
 0002:0000c828       $stateUnwindMap$??__F?constructor@Gradient@@2V?$Persistent@VFunctionTemplate@v8@@V?$NonCopyablePersistentTraits@VFunctionTemplate@v8@@@2@@Nan@@A@@YAXXZ 0000000180038828     CanvasGradient.obj
 0002:0000c828       $stateUnwindMap$??__F?constructor@Canvas@@2V?$Persistent@VFunctionTemplate@v8@@V?$NonCopyablePersistentTraits@VFunctionTemplate@v8@@@2@@Nan@@A@@YAXXZ 0000000180038828     Canvas.obj
 0002:0000c828       $stateUnwindMap$??1ObjectWrap@Nan@@UEAA@XZ 0000000180038828     Canvas.obj
 0002:0000c830       $ip2state$??1ObjectWrap@Nan@@UEAA@XZ 0000000180038830     Canvas.obj
 0002:0000c838       $unwind$?Wrap@ObjectWrap@Nan@@IEAAXV?$Local@VObject@v8@@@v8@@@Z 0000000180038838     Canvas.obj
 0002:0000c838       $unwind$??$free_environment@D@@YAXQEAPEAD@Z 0000000180038838     libucrt:environment_initialization.obj
 0002:0000c838       $unwind$??$free_environment@_W@@YAXQEAPEA_W@Z 0000000180038838     libucrt:environment_initialization.obj
 0002:0000c844       $unwind$_clrfp             0000000180038844     libucrt:fpctrl.obj
 0002:0000c844       $unwind$wcscpy_s           0000000180038844     libucrt:wcscpy_s.obj
 0002:0000c844       $unwind$__vcrt_uninitialize_locks 0000000180038844     libvcruntime:locks.obj
 0002:0000c844       $unwind$?SetTextAlignment@Context2d@@SAXAEBV?$FunctionCallbackInfo@VValue@v8@@@Nan@@@Z 0000000180038844     CanvasRenderingContext2d.obj
 0002:0000c844       $unwind$wcscat_s           0000000180038844     libucrt:wcscat_s.obj
 0002:0000c844       $unwind$__std_exception_destroy 0000000180038844     libvcruntime:std_exception.obj
 0002:0000c844       $unwind$_IsExceptionObjectToBeDestroyed 0000000180038844     libvcruntime:trnsctrl.obj
 0002:0000c844       $unwind$_set_statfp        0000000180038844     libucrt:fpctrl.obj
 0002:0000c844       $unwind$__acrt_initialize_locks 0000000180038844     libucrt:locks.obj
 0002:0000c844       $unwind$?type_case_integer@?$output_processor@_WV?$string_output_adapter@_W@__crt_stdio_output@@V?$standard_base@_WV?$string_output_adapter@_W@__crt_stdio_output@@@2@@__crt_stdio_output@@AEAA_NI_N@Z 0000000180038844     libucrt:output.obj
 0002:0000c844       $unwind$?closure_destroy@@YAXPEAUclosure_t@@@Z 0000000180038844     Canvas.obj
 0002:0000c844       $unwind$__vcrt_freeptd     0000000180038844     libvcruntime:per_thread_data.obj
 0002:0000c844       $unwind$__acrt_uninitialize_locks 0000000180038844     libucrt:locks.obj
 0002:0000c844       $unwind$?SetTextBaseline@Context2d@@SAXAEBV?$FunctionCallbackInfo@VValue@v8@@@Nan@@@Z 0000000180038844     CanvasRenderingContext2d.obj
 0002:0000c844       $unwind$strcpy_s           0000000180038844     libucrt:strcpy_s.obj
 0002:0000c844       $unwind$_CreateFrameInfo   0000000180038844     libvcruntime:trnsctrl.obj
 0002:0000c844       $unwind$?restorePath@Context2d@@QEAAXXZ 0000000180038844     CanvasRenderingContext2d.obj
 0002:0000c844       $unwind$__acrt_fp_strflt_to_string 0000000180038844     libucrt:_fptostr.obj
 0002:0000c844       $unwind$??0bad_array_new_length@std@@QEAA@AEBV01@@Z 0000000180038844     LIBCMT:throw_bad_alloc.obj
 0002:0000c844       $unwind$_fflush_nolock     0000000180038844     libucrt:fflush.obj
 0002:0000c844       $unwind$__vcrt_initialize_locks 0000000180038844     libvcruntime:locks.obj
 0002:0000c844       $unwind$??$message_box_wait_thread@_W@@YAKQEAX@Z 0000000180038844     libucrt:crtmbox.obj
 0002:0000c844       $unwind$?savePath@Context2d@@QEAAXXZ 0000000180038844     CanvasRenderingContext2d.obj
 0002:0000c844       $unwind$__acrt_stdio_allocate_buffer_nolock 0000000180038844     libucrt:_getbuf.obj
 0002:0000c844       $unwind$__acrt_stdio_free_buffer_nolock 0000000180038844     libucrt:_freebuf.obj
 0002:0000c844       $unwind$_calloc_base       0000000180038844     libucrt:calloc_base.obj
 0002:0000c844       $unwind$?WeakCallback@ObjectWrap@Nan@@CAXAEBV?$WeakCallbackInfo@VObjectWrap@Nan@@@v8@@@Z 0000000180038844     Canvas.obj
 0002:0000c844       $unwind$__acrt_can_show_message_box 0000000180038844     libucrt:winapi_thunks.obj
 0002:0000c844       $unwind$??0bad_alloc@std@@QEAA@AEBV01@@Z 0000000180038844     libcpmt:xthrow.obj
 0002:0000c844       $unwind$__acrt_uninitialize_stdio 0000000180038844     libucrt:_file.obj
 0002:0000c844       $unwind$??2@YAPEAX_K@Z     0000000180038844     LIBCMT:new_scalar.obj
 0002:0000c844       $unwind$_SetThrowImageBase 0000000180038844     libvcruntime:trnsctrl.obj
 0002:0000c844       $unwind$?rgba_from_hex_string@@YAHPEBDPEAF@Z 0000000180038844     color.obj
 0002:0000c844       $unwind$??_Gtype_info@@UEAAPEAXI@Z 0000000180038844     LIBCMT:std_type_info_static.obj
 0002:0000c844       $unwind$?Unref@ObjectWrap@Nan@@MEAAXXZ 0000000180038844     Canvas.obj
 0002:0000c844       $unwind$_malloc_base       0000000180038844     libucrt:malloc_base.obj
 0002:0000c844       $unwind$__acrt_uninitialize_winapi_thunks 0000000180038844     libucrt:winapi_thunks.obj
 0002:0000c844       $unwind$_SetImageBase      0000000180038844     libvcruntime:trnsctrl.obj
 0002:0000c844       $unwind$__acrt_allocate_buffer_for_argv 0000000180038844     libucrt:argv_parsing.obj
 0002:0000c844       $unwind$??0logic_error@std@@QEAA@AEBV01@@Z 0000000180038844     libcpmt:xthrow.obj
 0002:0000c844       $unwind$?Ref@ObjectWrap@Nan@@MEAAXXZ 0000000180038844     Canvas.obj
 0002:0000c844       $unwind$fegetenv           0000000180038844     libucrt:fegetenv.obj
 0002:0000c844       $unwind$fesetenv           0000000180038844     libucrt:fesetenv.obj
 0002:0000c844       $unwind$__std_type_info_destroy_list 0000000180038844     libvcruntime:std_type_info.obj
 0002:0000c844       $unwind$__raise_securityfailure 0000000180038844     LIBCMT:gs_report.obj
 0002:0000c844       $unwind$??0?$output_processor@_WV?$stream_output_adapter@_W@__crt_stdio_output@@V?$standard_base@_WV?$stream_output_adapter@_W@__crt_stdio_output@@@2@@__crt_stdio_output@@QEAA@AEBV?$stream_output_adapter@_W@1@_KQEB_WQEAU__crt_locale_pointers@@QEAD@Z 0000000180038844     libucrt:output.obj
 0002:0000c844       $unwind$_onexit            0000000180038844     LIBCMT:utility.obj
 0002:0000c844       $unwind$?__StateFromIp@@YAHPEBU_s_FuncInfo@@PEAU_xDISPATCHER_CONTEXT@@_J@Z 0000000180038844     libvcruntime:ehstate.obj
 0002:0000c844       $unwind$??0?$output_processor@_WV?$string_output_adapter@_W@__crt_stdio_output@@V?$standard_base@_WV?$string_output_adapter@_W@__crt_stdio_output@@@2@@__crt_stdio_output@@QEAA@AEBV?$string_output_adapter@_W@1@_KQEB_WQEAU__crt_locale_pointers@@QEAD@Z 0000000180038844     libucrt:output.obj
 0002:0000c844       $unwind$__acrt_freeptd     0000000180038844     libucrt:per_thread_data.obj
 0002:0000c844       $unwind$_clearfp           0000000180038844     libucrt:ieee.obj
 0002:0000c844       $unwind$__scrt_release_startup_lock 0000000180038844     LIBCMT:utility.obj
 0002:0000c844       $unwind$?type_case_integer@?$output_processor@_WV?$stream_output_adapter@_W@__crt_stdio_output@@V?$standard_base@_WV?$stream_output_adapter@_W@__crt_stdio_output@@@2@@__crt_stdio_output@@AEAA_NI_N@Z 0000000180038844     libucrt:output.obj
 0002:0000c844       $unwind$__acrt_update_multibyte_info 0000000180038844     libucrt:locale_update.obj
 0002:0000c844       $unwind$__scrt_initialize_crt 0000000180038844     LIBCMT:utility.obj
 0002:0000c844       $unwind$??0?$output_processor@DV?$string_output_adapter@D@__crt_stdio_output@@V?$standard_base@DV?$string_output_adapter@D@__crt_stdio_output@@@2@@__crt_stdio_output@@QEAA@AEBV?$string_output_adapter@D@1@_KQEBDQEAU__crt_locale_pointers@@QEAD@Z 0000000180038844     libucrt:output.obj
 0002:0000c844       $unwind$?state_case_normal@?$output_processor@DV?$string_output_adapter@D@__crt_stdio_output@@V?$standard_base@DV?$string_output_adapter@D@__crt_stdio_output@@@2@@__crt_stdio_output@@AEAA_NXZ 0000000180038844     libucrt:output.obj
 0002:0000c844       $unwind$??0bad_exception@std@@QEAA@AEBV01@@Z 0000000180038844     libvcruntime:frame.obj
 0002:0000c844       $unwind$?exit_or_terminate_process@@YAXI@Z 0000000180038844     libucrt:exit.obj
 0002:0000c844       $unwind$?Save@Context2d@@SAXAEBV?$FunctionCallbackInfo@VValue@v8@@@Nan@@@Z 0000000180038844     CanvasRenderingContext2d.obj
 0002:0000c844       $unwind$__scrt_uninitialize_crt 0000000180038844     LIBCMT:utility.obj
 0002:0000c844       $unwind$??0length_error@std@@QEAA@AEBV01@@Z 0000000180038844     libcpmt:xthrow.obj
 0002:0000c844       $unwind$uninitialize_allocated_memory 0000000180038844     libucrt:initialization.obj
 0002:0000c844       $unwind$initialize_pointers 0000000180038844     libucrt:initialization.obj
 0002:0000c844       $unwind$__acrt_update_locale_info 0000000180038844     libucrt:locale_update.obj
 0002:0000c844       $unwind$_setfpstatusword   0000000180038844     libucrt:_fenvutils.obj
 0002:0000c844       $unwind$feholdexcept       0000000180038844     libucrt:feholdexcept.obj
 0002:0000c844       $unwind$?__GetUnwindTryBlock@@YAHPEA_KPEAU_xDISPATCHER_CONTEXT@@PEBU_s_FuncInfo@@@Z 0000000180038844     libvcruntime:ehstate.obj
 0002:0000c844       $unwind$?New@Image@@SAXAEBV?$FunctionCallbackInfo@VValue@v8@@@Nan@@@Z 0000000180038844     Image.obj
 0002:0000c844       $unwind$??0exception@std@@QEAA@AEBV01@@Z 0000000180038844     libcpmt:xthrow.obj
 0002:0000c844       $unwind$?type_case_integer@?$output_processor@DV?$string_output_adapter@D@__crt_stdio_output@@V?$standard_base@DV?$string_output_adapter@D@__crt_stdio_output@@@2@@__crt_stdio_output@@AEAA_NI_N@Z 0000000180038844     libucrt:output.obj
 0002:0000c844       $unwind$?_Tidy@?$vector@NV?$allocator@N@std@@@std@@IEAAXXZ 0000000180038844     CanvasRenderingContext2d.obj
 0002:0000c844       $unwind$__acrt_AreFileApisANSI 0000000180038844     libucrt:winapi_thunks.obj
 0002:0000c84c       $unwind$??_GGradient@@EEAAPEAXI@Z 000000018003884c     CanvasGradient.obj
 0002:0000c84c       $unwind$?Rotate@Context2d@@SAXAEBV?$FunctionCallbackInfo@VValue@v8@@@Nan@@@Z 000000018003884c     CanvasRenderingContext2d.obj
 0002:0000c84c       $unwind$??_Glength_error@std@@UEAAPEAXI@Z 000000018003884c     libcpmt:xthrow.obj
 0002:0000c84c       $unwind$?try_cor_exit_process@@YAXI@Z 000000018003884c     libucrt:exit.obj
 0002:0000c84c       $unwind$?Clip@Context2d@@SAXAEBV?$FunctionCallbackInfo@VValue@v8@@@Nan@@@Z 000000018003884c     CanvasRenderingContext2d.obj
 0002:0000c84c       $unwind$?type_case_c_tchar@?$output_processor@DV?$string_output_adapter@D@__crt_stdio_output@@V?$standard_base@DV?$string_output_adapter@D@__crt_stdio_output@@@2@@__crt_stdio_output@@AEAA_ND@Z 000000018003884c     libucrt:output.obj
 0002:0000c84c       $unwind$?Fill@Context2d@@SAXAEBV?$FunctionCallbackInfo@VValue@v8@@@Nan@@@Z 000000018003884c     CanvasRenderingContext2d.obj
 0002:0000c84c       $unwind$??_GImageData@@UEAAPEAXI@Z 000000018003884c     ImageData.obj
 0002:0000c84c       $unwind$?Restore@Context2d@@SAXAEBV?$FunctionCallbackInfo@VValue@v8@@@Nan@@@Z 000000018003884c     CanvasRenderingContext2d.obj
 0002:0000c84c       $unwind$??_Gbad_exception@std@@UEAAPEAXI@Z 000000018003884c     libvcruntime:frame.obj
 0002:0000c84c       $unwind$?rgba_from_string@@YAHPEBDPEAF@Z 000000018003884c     color.obj
 0002:0000c84c       $unwind$__acrt_invoke_user_matherr 000000018003884c     libucrt:matherr.obj
 0002:0000c84c       $unwind$?SetShadowBlur@Context2d@@SAXV?$Local@VString@v8@@@v8@@V?$Local@VValue@v8@@@3@AEBV?$PropertyCallbackInfo@X@Nan@@@Z 000000018003884c     CanvasRenderingContext2d.obj
 0002:0000c84c       $unwind$_realloc_base      000000018003884c     libucrt:realloc_base.obj
 0002:0000c84c       $unwind$?force_decimal_point@__crt_stdio_output@@YAXPEADQEAU__crt_locale_pointers@@@Z 000000018003884c     libucrt:output.obj
 0002:0000c84c       $unwind$??0_LocaleUpdate@@QEAA@QEAU__crt_locale_pointers@@@Z 000000018003884c     libucrt:output.obj
 0002:0000c84c       $unwind$??_Glogic_error@std@@UEAAPEAXI@Z 000000018003884c     libcpmt:xthrow.obj
 0002:0000c84c       $unwind$?internal_isupper_l@@YA_NHQEAU__crt_locale_pointers@@@Z 000000018003884c     libucrt:tolower_toupper.obj
 0002:0000c84c       $unwind$??0Context2d@@QEAA@PEAVCanvas@@@Z 000000018003884c     CanvasRenderingContext2d.obj
 0002:0000c84c       $unwind$_updatetlocinfoEx_nolock 000000018003884c     libucrt:locale_refcounting.obj
 0002:0000c84c       $unwind$??$common_initialize_environment_nolock@D@@YAHXZ 000000018003884c     libucrt:environment_initialization.obj
 0002:0000c84c       $unwind$_fclose_nolock     000000018003884c     libucrt:fclose.obj
 0002:0000c84c       $unwind$longjmp            000000018003884c     libvcruntime:longjmpc.obj
 0002:0000c84c       $unwind$??_GContext2d@@EEAAPEAXI@Z 000000018003884c     CanvasRenderingContext2d.obj
 0002:0000c84c       $unwind$??_Gbad_alloc@std@@UEAAPEAXI@Z 000000018003884c     libcpmt:xthrow.obj
 0002:0000c84c       $unwind$?saveState@Context2d@@QEAAXXZ 000000018003884c     CanvasRenderingContext2d.obj
 0002:0000c84c       $unwind$??_GCanvas@@EEAAPEAXI@Z 000000018003884c     Canvas.obj
 0002:0000c84c       $unwind$_callnewh          000000018003884c     libucrt:new_handler.obj
 0002:0000c84c       $unwind$??$common_xtox@K_W@@YAHKQEA_W_KI_N@Z 000000018003884c     libucrt:xtoa.obj
 0002:0000c84c       $unwind$__vcrt_FlsGetValue 000000018003884c     libvcruntime:winapi_downlevel.obj
 0002:0000c84c       $unwind$__acrt_errno_map_os_error 000000018003884c     libucrt:errno.obj
 0002:0000c84c       $unwind$??_GPattern@@EEAAPEAXI@Z 000000018003884c     CanvasPattern.obj
 0002:0000c84c       $unwind$??_Gexception@std@@UEAAPEAXI@Z 000000018003884c     libcpmt:xthrow.obj
 0002:0000c84c       $unwind$??_GImage@@EEAAPEAXI@Z 000000018003884c     Image.obj
 0002:0000c84c       $unwind$__vcrt_FlsFree     000000018003884c     libvcruntime:winapi_downlevel.obj
 0002:0000c84c       $unwind$__acrt_stdio_begin_temporary_buffering_nolock 000000018003884c     libucrt:_sftbuf.obj
 0002:0000c84c       $unwind$?GetOnerror@Image@@SAXV?$Local@VString@v8@@@v8@@AEBV?$PropertyCallbackInfo@VValue@v8@@@Nan@@@Z 000000018003884c     Image.obj
 0002:0000c84c       $unwind$__vcrt_FlsAlloc    000000018003884c     libvcruntime:winapi_downlevel.obj
 0002:0000c84c       $unwind$??_Gbad_array_new_length@std@@UEAAPEAXI@Z 000000018003884c     LIBCMT:throw_bad_alloc.obj
 0002:0000c84c       $unwind$?GetOnload@Image@@SAXV?$Local@VString@v8@@@v8@@AEBV?$PropertyCallbackInfo@VValue@v8@@@Nan@@@Z 000000018003884c     Image.obj
 0002:0000c84c       $unwind$?readPNG@Image@@SA?AW4_cairo_status@@PEAXPEAEI@Z 000000018003884c     Image.obj
 0002:0000c84c       $unwind$strncpy_s          000000018003884c     libucrt:strncpy_s.obj
 0002:0000c84c       $unwind$?ExFilterRethrow@@YAHPEAU_EXCEPTION_POINTERS@@PEAUEHExceptionRecord@@PEAH@Z 000000018003884c     libvcruntime:frame.obj
 0002:0000c84c       $unwind$__acrt_uninitialize_lowio 000000018003884c     libucrt:ioinit.obj
 0002:0000c84c       $unwind$__acrt_FlsAlloc    000000018003884c     libucrt:winapi_thunks.obj
 0002:0000c84c       $unwind$__acrt_FlsFree     000000018003884c     libucrt:winapi_thunks.obj
 0002:0000c84c       $unwind$??_GObjectWrap@Nan@@UEAAPEAXI@Z 000000018003884c     Canvas.obj
 0002:0000c84c       $unwind$__acrt_FlsGetValue 000000018003884c     libucrt:winapi_thunks.obj
 0002:0000c84c       $unwind$wcsncat_s          000000018003884c     libucrt:wcsncat_s.obj
 0002:0000c84c       $unwind$__acrt_get_parent_window 000000018003884c     libucrt:winapi_thunks.obj
 0002:0000c84c       $unwind$_FindAndUnlinkFrame 000000018003884c     libvcruntime:trnsctrl.obj
 0002:0000c84c       $unwind$_close_nolock      000000018003884c     libucrt:close.obj
 0002:0000c84c       $unwind$?replace_current_thread_locale_nolock@@YAXQEAU__acrt_ptd@@QEAU__crt_locale_data@@@Z 000000018003884c     libucrt:per_thread_data.obj
 0002:0000c84c       $unwind$__acrt_getptd      000000018003884c     libucrt:per_thread_data.obj
 0002:0000c84c       $unwind$?GetComplete@Image@@SAXV?$Local@VString@v8@@@v8@@AEBV?$PropertyCallbackInfo@VValue@v8@@@Nan@@@Z 000000018003884c     Image.obj
 0002:0000c84c       $unwind$?__SetUnwindTryBlock@@YAXPEA_KPEAU_xDISPATCHER_CONTEXT@@PEBU_s_FuncInfo@@H@Z 000000018003884c     libvcruntime:ehstate.obj
 0002:0000c858       $unwind$?type_case_n@?$output_processor@_WV?$stream_output_adapter@_W@__crt_stdio_output@@V?$standard_base@_WV?$stream_output_adapter@_W@__crt_stdio_output@@@2@@__crt_stdio_output@@AEAA_NXZ 0000000180038858     libucrt:output.obj
 0002:0000c858       $unwind$__acrt_getptd_noexit 0000000180038858     libucrt:per_thread_data.obj
 0002:0000c858       $unwind$__acrt_stdio_flush_nolock 0000000180038858     libucrt:fflush.obj
 0002:0000c858       $unwind$?closure_init@@YA?AW4_cairo_status@@PEAUclosure_t@@PEAVCanvas@@II@Z 0000000180038858     Canvas.obj
 0002:0000c858       $unwind$__acrt_LocaleNameToLCID 0000000180038858     libucrt:winapi_thunks.obj
 0002:0000c858       $unwind$__acrt_FlsSetValue 0000000180038858     libucrt:winapi_thunks.obj
 0002:0000c858       $unwind$__vcrt_getptd_noexit 0000000180038858     libvcruntime:per_thread_data.obj
 0002:0000c858       $unwind$?type_case_n@?$output_processor@_WV?$string_output_adapter@_W@__crt_stdio_output@@V?$standard_base@_WV?$string_output_adapter@_W@__crt_stdio_output@@@2@@__crt_stdio_output@@AEAA_NXZ 0000000180038858     libucrt:output.obj
 0002:0000c858       $unwind$??$common_lseek_nolock@_J@@YA_JH_JH@Z 0000000180038858     libucrt:lseek.obj
 0002:0000c858       $unwind$memcpy_s           0000000180038858     libucrt:cfout.obj
 0002:0000c858       $unwind$__acrt_execute_uninitializers 0000000180038858     libucrt:shared_initialization.obj
 0002:0000c858       $unwind$?canvas_stream_write_func@@YAXPEAUpng_struct_def@@PEAE_K@Z 0000000180038858     Canvas.obj
 0002:0000c858       $unwind$__acrt_stdio_flush_and_write_narrow_nolock 0000000180038858     libucrt:_flsbuf.obj
 0002:0000c858       $unwind$?free_crt_array_internal@@YAXQEAPEBX_K@Z 0000000180038858     libucrt:inittime.obj
 0002:0000c858       $unwind$_exception_enabled 0000000180038858     libucrt:libm_error.obj
 0002:0000c858       $unwind$?type_case_s@?$output_processor@_WV?$string_output_adapter@_W@__crt_stdio_output@@V?$standard_base@_WV?$string_output_adapter@_W@__crt_stdio_output@@@2@@__crt_stdio_output@@AEAA_NXZ 0000000180038858     libucrt:output.obj
 0002:0000c858       $unwind$?type_case_Z@?$output_processor@_WV?$string_output_adapter@_W@__crt_stdio_output@@V?$standard_base@_WV?$string_output_adapter@_W@__crt_stdio_output@@@2@@__crt_stdio_output@@AEAA_NXZ 0000000180038858     libucrt:output.obj
 0002:0000c858       $unwind$__acrt_stdio_flush_and_write_wide_nolock 0000000180038858     libucrt:_flsbuf.obj
 0002:0000c858       $unwind$__vcrt_FlsSetValue 0000000180038858     libvcruntime:winapi_downlevel.obj
 0002:0000c858       $unwind$_DllMainCRTStartup 0000000180038858     LIBCMT:dll_dllmain.obj
 0002:0000c858       $unwind$?type_case_Z@?$output_processor@_WV?$stream_output_adapter@_W@__crt_stdio_output@@V?$standard_base@_WV?$stream_output_adapter@_W@__crt_stdio_output@@@2@@__crt_stdio_output@@AEAA_NXZ 0000000180038858     libucrt:output.obj
 0002:0000c858       $unwind$?type_case_s@?$output_processor@_WV?$stream_output_adapter@_W@__crt_stdio_output@@V?$standard_base@_WV?$stream_output_adapter@_W@__crt_stdio_output@@@2@@__crt_stdio_output@@AEAA_NXZ 0000000180038858     libucrt:output.obj
 0002:0000c858       $unwind$??R<lambda_ad1ced32f4ac17aa236e5ef05d6b3b7c>@@QEBAXXZ 0000000180038858     libucrt:mbctype.obj
 0002:0000c858       $unwind$?type_case_Z@?$output_processor@DV?$string_output_adapter@D@__crt_stdio_output@@V?$standard_base@DV?$string_output_adapter@D@__crt_stdio_output@@@2@@__crt_stdio_output@@AEAA_NXZ 0000000180038858     libucrt:output.obj
 0002:0000c858       $unwind$_RTC_Terminate     0000000180038858     LIBCMT:_initsect_.obj
 0002:0000c858       $unwind$?type_case_s@?$output_processor@DV?$string_output_adapter@D@__crt_stdio_output@@V?$standard_base@DV?$string_output_adapter@D@__crt_stdio_output@@@2@@__crt_stdio_output@@AEAA_NXZ 0000000180038858     libucrt:output.obj
 0002:0000c858       $unwind$_RTC_Initialize    0000000180038858     LIBCMT:_initsect_.obj
 0002:0000c858       $unwind$_initterm_e        0000000180038858     libucrt:initterm.obj
 0002:0000c858       $unwind$?type_case_n@?$output_processor@DV?$string_output_adapter@D@__crt_stdio_output@@V?$standard_base@DV?$string_output_adapter@D@__crt_stdio_output@@@2@@__crt_stdio_output@@AEAA_NXZ 0000000180038858     libucrt:output.obj
 0002:0000c868       $unwind$?canvas_unpremultiply_data@@YAXPEAUpng_struct_def@@PEAUpng_row_info_struct@@PEAE@Z 0000000180038868     Canvas.obj
 0002:0000c874       $chain$0$?canvas_unpremultiply_data@@YAXPEAUpng_struct_def@@PEAUpng_row_info_struct@@PEAE@Z 0000000180038874     Canvas.obj
 0002:0000c888       $chain$1$?canvas_unpremultiply_data@@YAXPEAUpng_struct_def@@PEAUpng_row_info_struct@@PEAE@Z 0000000180038888     Canvas.obj
 0002:0000c898       $unwind$?canvas_write_png@@YA?AW4_cairo_status@@PEAU_cairo_surface@@P6AXPEAUpng_struct_def@@PEAE_K@ZPEAX@Z 0000000180038898     Canvas.obj
 0002:0000c8b8       $unwind$??__F?constructor@Canvas@@2V?$Persistent@VFunctionTemplate@v8@@V?$NonCopyablePersistentTraits@VFunctionTemplate@v8@@@2@@Nan@@A@@YAXXZ 00000001800388b8     Canvas.obj
 0002:0000c8c8       $ip2state$??__F?constructor@Canvas@@2V?$Persistent@VFunctionTemplate@v8@@V?$NonCopyablePersistentTraits@VFunctionTemplate@v8@@@2@@Nan@@A@@YAXXZ 00000001800388c8     Canvas.obj
 0002:0000c8d0       $unwind$?Initialize@Canvas@@SAXV?$Local@VObject@v8@@@v8@@@Z 00000001800388d0     Canvas.obj
 0002:0000c8ec       $stateUnwindMap$?Initialize@ImageData@@SAXV?$Local@VObject@v8@@@v8@@@Z 00000001800388ec     ImageData.obj
 0002:0000c8ec       $stateUnwindMap$?Initialize@Canvas@@SAXV?$Local@VObject@v8@@@v8@@@Z 00000001800388ec     Canvas.obj
 0002:0000c8ec       $stateUnwindMap$?Initialize@Context2d@@SAXV?$Local@VObject@v8@@@v8@@@Z 00000001800388ec     CanvasRenderingContext2d.obj
 0002:0000c908       $ip2state$?Initialize@Canvas@@SAXV?$Local@VObject@v8@@@v8@@@Z 0000000180038908     Canvas.obj
 0002:0000c940       $unwind$?New@Canvas@@SAXAEBV?$FunctionCallbackInfo@VValue@v8@@@Nan@@@Z 0000000180038940     Canvas.obj
 0002:0000c95c       $stateUnwindMap$?New@Canvas@@SAXAEBV?$FunctionCallbackInfo@VValue@v8@@@Nan@@@Z 000000018003895c     Canvas.obj
 0002:0000c970       $ip2state$?New@Canvas@@SAXAEBV?$FunctionCallbackInfo@VValue@v8@@@Nan@@@Z 0000000180038970     Canvas.obj
 0002:0000c998       $unwind$?GetType@Canvas@@SAXV?$Local@VString@v8@@@v8@@AEBV?$PropertyCallbackInfo@VValue@v8@@@Nan@@@Z 0000000180038998     Canvas.obj
 0002:0000c998       $unwind$?ToBufferAsync@Canvas@@SAXPEAUuv_work_s@@@Z 0000000180038998     Canvas.obj
 0002:0000c998       $unwind$?GetAntiAlias@Context2d@@SAXV?$Local@VString@v8@@@v8@@AEBV?$PropertyCallbackInfo@VValue@v8@@@Nan@@@Z 0000000180038998     CanvasRenderingContext2d.obj
 0002:0000c998       $unwind$??$__acrt_stdio_parse_mode@D@@YA?AU__acrt_stdio_stream_mode@@QEBD@Z 0000000180038998     libucrt:openfile.obj
 0002:0000c998       $unwind$?fill@Context2d@@QEAAX_N@Z 0000000180038998     CanvasRenderingContext2d.obj
 0002:0000c998       $unwind$?GetSource@Image@@SAXV?$Local@VString@v8@@@v8@@AEBV?$PropertyCallbackInfo@VValue@v8@@@Nan@@@Z 0000000180038998     Image.obj
 0002:0000c998       $unwind$?GetGlobalCompositeOperation@Context2d@@SAXV?$Local@VString@v8@@@v8@@AEBV?$PropertyCallbackInfo@VValue@v8@@@Nan@@@Z 0000000180038998     CanvasRenderingContext2d.obj
 0002:0000c998       $unwind$?GetPatternQuality@Context2d@@SAXV?$Local@VString@v8@@@v8@@AEBV?$PropertyCallbackInfo@VValue@v8@@@Nan@@@Z 0000000180038998     CanvasRenderingContext2d.obj
 0002:0000c998       $unwind$?stroke@Context2d@@QEAAX_N@Z 0000000180038998     CanvasRenderingContext2d.obj
 0002:0000c998       $unwind$?setFillRule@Context2d@@QEAAXV?$Local@VValue@v8@@@v8@@@Z 0000000180038998     CanvasRenderingContext2d.obj
 0002:0000c998       $unwind$?GetLineCap@Context2d@@SAXV?$Local@VString@v8@@@v8@@AEBV?$PropertyCallbackInfo@VValue@v8@@@Nan@@@Z 0000000180038998     CanvasRenderingContext2d.obj
 0002:0000c998       $unwind$?GetFilter@Context2d@@SAXV?$Local@VString@v8@@@v8@@AEBV?$PropertyCallbackInfo@VValue@v8@@@Nan@@@Z 0000000180038998     CanvasRenderingContext2d.obj
 0002:0000c998       $unwind$?loadFromBuffer@Image@@QEAA?AW4_cairo_status@@PEAEI@Z 0000000180038998     Image.obj
 0002:0000c998       $unwind$?GetLineJoin@Context2d@@SAXV?$Local@VString@v8@@@v8@@AEBV?$PropertyCallbackInfo@VValue@v8@@@Nan@@@Z 0000000180038998     CanvasRenderingContext2d.obj
 0002:0000c998       $unwind$?GetTextDrawingMode@Context2d@@SAXV?$Local@VString@v8@@@v8@@AEBV?$PropertyCallbackInfo@VValue@v8@@@Nan@@@Z 0000000180038998     CanvasRenderingContext2d.obj
 0002:0000c9a4       $unwind$?GetWidth@ImageData@@SAXV?$Local@VString@v8@@@v8@@AEBV?$PropertyCallbackInfo@VValue@v8@@@Nan@@@Z 00000001800389a4     ImageData.obj
 0002:0000c9a4       $unwind$?GetHeight@Canvas@@SAXV?$Local@VString@v8@@@v8@@AEBV?$PropertyCallbackInfo@VValue@v8@@@Nan@@@Z 00000001800389a4     Canvas.obj
 0002:0000c9a4       $unwind$?GetLineWidth@Context2d@@SAXV?$Local@VString@v8@@@v8@@AEBV?$PropertyCallbackInfo@VValue@v8@@@Nan@@@Z 00000001800389a4     CanvasRenderingContext2d.obj
 0002:0000c9a4       $unwind$?GetWidth@Canvas@@SAXV?$Local@VString@v8@@@v8@@AEBV?$PropertyCallbackInfo@VValue@v8@@@Nan@@@Z 00000001800389a4     Canvas.obj
 0002:0000c9a4       $unwind$?GetMiterLimit@Context2d@@SAXV?$Local@VString@v8@@@v8@@AEBV?$PropertyCallbackInfo@VValue@v8@@@Nan@@@Z 00000001800389a4     CanvasRenderingContext2d.obj
 0002:0000c9a4       $unwind$?GetLineDashOffset@Context2d@@SAXV?$Local@VString@v8@@@v8@@AEBV?$PropertyCallbackInfo@VValue@v8@@@Nan@@@Z 00000001800389a4     CanvasRenderingContext2d.obj
 0002:0000c9a4       $unwind$?GetHeight@Image@@SAXV?$Local@VString@v8@@@v8@@AEBV?$PropertyCallbackInfo@VValue@v8@@@Nan@@@Z 00000001800389a4     Image.obj
 0002:0000c9a4       $unwind$?GetShadowOffsetX@Context2d@@SAXV?$Local@VString@v8@@@v8@@AEBV?$PropertyCallbackInfo@VValue@v8@@@Nan@@@Z 00000001800389a4     CanvasRenderingContext2d.obj
 0002:0000c9a4       $unwind$?GetShadowOffsetY@Context2d@@SAXV?$Local@VString@v8@@@v8@@AEBV?$PropertyCallbackInfo@VValue@v8@@@Nan@@@Z 00000001800389a4     CanvasRenderingContext2d.obj
 0002:0000c9a4       $unwind$?GetWidth@Image@@SAXV?$Local@VString@v8@@@v8@@AEBV?$PropertyCallbackInfo@VValue@v8@@@Nan@@@Z 00000001800389a4     Image.obj
 0002:0000c9a4       $unwind$?GetStride@Canvas@@SAXV?$Local@VString@v8@@@v8@@AEBV?$PropertyCallbackInfo@VValue@v8@@@Nan@@@Z 00000001800389a4     Canvas.obj
 0002:0000c9a4       $unwind$?GetGlobalAlpha@Context2d@@SAXV?$Local@VString@v8@@@v8@@AEBV?$PropertyCallbackInfo@VValue@v8@@@Nan@@@Z 00000001800389a4     CanvasRenderingContext2d.obj
 0002:0000c9a4       $unwind$?GetShadowBlur@Context2d@@SAXV?$Local@VString@v8@@@v8@@AEBV?$PropertyCallbackInfo@VValue@v8@@@Nan@@@Z 00000001800389a4     CanvasRenderingContext2d.obj
 0002:0000c9a4       $unwind$?GetDataMode@Image@@SAXV?$Local@VString@v8@@@v8@@AEBV?$PropertyCallbackInfo@VValue@v8@@@Nan@@@Z 00000001800389a4     Image.obj
 0002:0000c9a4       $unwind$?GetHeight@ImageData@@SAXV?$Local@VString@v8@@@v8@@AEBV?$PropertyCallbackInfo@VValue@v8@@@Nan@@@Z 00000001800389a4     ImageData.obj
 0002:0000c9b0       $unwind$?SetWidth@Canvas@@SAXV?$Local@VString@v8@@@v8@@V?$Local@VValue@v8@@@3@AEBV?$PropertyCallbackInfo@X@Nan@@@Z 00000001800389b0     Canvas.obj
 0002:0000c9b0       $unwind$?SetHeight@Canvas@@SAXV?$Local@VString@v8@@@v8@@V?$Local@VValue@v8@@@3@AEBV?$PropertyCallbackInfo@X@Nan@@@Z 00000001800389b0     Canvas.obj
 0002:0000c9b8       $chain$0$?SetWidth@Canvas@@SAXV?$Local@VString@v8@@@v8@@V?$Local@VValue@v8@@@3@AEBV?$PropertyCallbackInfo@X@Nan@@@Z 00000001800389b8     Canvas.obj
 0002:0000c9cc       $chain$1$?SetWidth@Canvas@@SAXV?$Local@VString@v8@@@v8@@V?$Local@VValue@v8@@@3@AEBV?$PropertyCallbackInfo@X@Nan@@@Z 00000001800389cc     Canvas.obj
 0002:0000c9dc       $chain$0$?SetHeight@Canvas@@SAXV?$Local@VString@v8@@@v8@@V?$Local@VValue@v8@@@3@AEBV?$PropertyCallbackInfo@X@Nan@@@Z 00000001800389dc     Canvas.obj
 0002:0000c9f0       $chain$1$?SetHeight@Canvas@@SAXV?$Local@VString@v8@@@v8@@V?$Local@VValue@v8@@@3@AEBV?$PropertyCallbackInfo@X@Nan@@@Z 00000001800389f0     Canvas.obj
 0002:0000ca00       $unwind$__acrt_execute_initializers 0000000180038a00     libucrt:shared_initialization.obj
 0002:0000ca00       $unwind$__acrt_lowio_create_handle_array 0000000180038a00     libucrt:osfinfo.obj
 0002:0000ca00       $unwind$__scrt_dllmain_exception_filter 0000000180038a00     LIBCMT:utility.obj
 0002:0000ca00       $unwind$__acrt_free_locale 0000000180038a00     libucrt:locale_refcounting.obj
 0002:0000ca00       $unwind$_recalloc_base     0000000180038a00     libucrt:recalloc.obj
 0002:0000ca00       $unwind$?_ExecutionInCatch@@YAHPEAU_xDISPATCHER_CONTEXT@@PEBU_s_FuncInfo@@@Z 0000000180038a00     libvcruntime:trnsctrl.obj
 0002:0000ca00       $unwind$_wassert           0000000180038a00     libucrt:assert.obj
 0002:0000ca00       $unwind$__vcrt_InitializeCriticalSectionEx 0000000180038a00     libvcruntime:winapi_downlevel.obj
 0002:0000ca00       $unwind$?expand_if_necessary@?$argument_list@D@?A0xca0879c4@@AEAAHXZ 0000000180038a00     libucrt:argv_wildcards.obj
 0002:0000ca00       $unwind$__acrt_InitializeCriticalSectionEx 0000000180038a00     libucrt:winapi_thunks.obj
 0002:0000ca00       $unwind$_seh_filter_exe    0000000180038a00     libucrt:exception_filter.obj
 0002:0000ca00       $unwind$?dllmain_raw@@YAHQEAUHINSTANCE__@@KQEAX@Z 0000000180038a00     LIBCMT:dll_dllmain.obj
 0002:0000ca00       $unwind$?setSBCS@@YAXPEAU__crt_multibyte_data@@@Z 0000000180038a00     libucrt:mbctype.obj
 0002:0000ca00       $unwind$?find_or_allocate_unused_stream_nolock@@YA?AV__crt_stdio_stream@@XZ 0000000180038a00     libucrt:stream.obj
 0002:0000ca00       $unwind$?toBuffer@@YA?AW4_cairo_status@@PEAXPEBEI@Z 0000000180038a00     Canvas.obj
 0002:0000ca00       $unwind$??$ensure_buffer_is_big_enough@D@formatting_buffer@__crt_stdio_output@@QEAA_N_K@Z 0000000180038a00     libucrt:output.obj
 0002:0000ca14       $unwind$?ToBufferAsyncAfter@Canvas@@SAXPEAUuv_work_s@@@Z 0000000180038a14     Canvas.obj
 0002:0000ca2c       $stateUnwindMap$?ToBufferAsyncAfter@Canvas@@SAXPEAUuv_work_s@@@Z 0000000180038a2c     Canvas.obj
 0002:0000ca48       $ip2state$?ToBufferAsyncAfter@Canvas@@SAXPEAUuv_work_s@@@Z 0000000180038a48     Canvas.obj
 0002:0000ca70       $unwind$?ToBuffer@Canvas@@SAXAEBV?$FunctionCallbackInfo@VValue@v8@@@Nan@@@Z 0000000180038a70     Canvas.obj
 0002:0000ca90       $stateUnwindMap$?ToBuffer@Canvas@@SAXAEBV?$FunctionCallbackInfo@VValue@v8@@@Nan@@@Z 0000000180038a90     Canvas.obj
 0002:0000caa0       $ip2state$?ToBuffer@Canvas@@SAXAEBV?$FunctionCallbackInfo@VValue@v8@@@Nan@@@Z 0000000180038aa0     Canvas.obj
 0002:0000cad8       $unwind$?streamPNG@@YA?AW4_cairo_status@@PEAXPEBEI@Z 0000000180038ad8     Canvas.obj
 0002:0000cafc       $stateUnwindMap$?SetSource@Image@@SAXV?$Local@VString@v8@@@v8@@V?$Local@VValue@v8@@@3@AEBV?$PropertyCallbackInfo@X@Nan@@@Z 0000000180038afc     Image.obj
 0002:0000cafc       $stateUnwindMap$?streamPDF@@YA?AW4_cairo_status@@PEAXPEBEI@Z 0000000180038afc     Canvas.obj
 0002:0000cafc       $stateUnwindMap$?streamPNG@@YA?AW4_cairo_status@@PEAXPEBEI@Z 0000000180038afc     Canvas.obj
 0002:0000cb08       $ip2state$?streamPNG@@YA?AW4_cairo_status@@PEAXPEBEI@Z 0000000180038b08     Canvas.obj
 0002:0000cb20       $unwind$?StreamPNGSync@Canvas@@SAXAEBV?$FunctionCallbackInfo@VValue@v8@@@Nan@@@Z 0000000180038b20     Canvas.obj
 0002:0000cb48       $stateUnwindMap$?StreamPNGSync@Canvas@@SAXAEBV?$FunctionCallbackInfo@VValue@v8@@@Nan@@@Z 0000000180038b48     Canvas.obj
 0002:0000cb50       $ip2state$?StreamPNGSync@Canvas@@SAXAEBV?$FunctionCallbackInfo@VValue@v8@@@Nan@@@Z 0000000180038b50     Canvas.obj
 0002:0000cb68       $unwind$?streamPDF@@YA?AW4_cairo_status@@PEAXPEBEI@Z 0000000180038b68     Canvas.obj
 0002:0000cb90       $ip2state$?streamPDF@@YA?AW4_cairo_status@@PEAXPEBEI@Z 0000000180038b90     Canvas.obj
 0002:0000cba8       $unwind$?StreamPDFSync@Canvas@@SAXAEBV?$FunctionCallbackInfo@VValue@v8@@@Nan@@@Z 0000000180038ba8     Canvas.obj
 0002:0000cbd0       $stateUnwindMap$?StreamPDFSync@Canvas@@SAXAEBV?$FunctionCallbackInfo@VValue@v8@@@Nan@@@Z 0000000180038bd0     Canvas.obj
 0002:0000cbd8       $ip2state$?StreamPDFSync@Canvas@@SAXAEBV?$FunctionCallbackInfo@VValue@v8@@@Nan@@@Z 0000000180038bd8     Canvas.obj
 0002:0000cbf0       $unwind$??0Canvas@@QEAA@HHW4canvas_type_t@@@Z 0000000180038bf0     Canvas.obj
 0002:0000cc0c       $stateUnwindMap$??0Canvas@@QEAA@HHW4canvas_type_t@@@Z 0000000180038c0c     Canvas.obj
 0002:0000cc18       $ip2state$??0Canvas@@QEAA@HHW4canvas_type_t@@@Z 0000000180038c18     Canvas.obj
 0002:0000cc30       $unwind$??1Canvas@@EEAA@XZ 0000000180038c30     Canvas.obj
 0002:0000cc48       $ip2state$??1Canvas@@EEAA@XZ 0000000180038c48     Canvas.obj
 0002:0000cc50       $unwind$?resurface@Canvas@@QEAAXV?$Local@VObject@v8@@@v8@@@Z 0000000180038c50     Canvas.obj
 0002:0000cc68       $ip2state$?resurface@Canvas@@QEAAXV?$Local@VObject@v8@@@v8@@@Z 0000000180038c68     Canvas.obj
 0002:0000cc80       $unwind$??$Unwrap@VGradient@@@ObjectWrap@Nan@@SAPEAVGradient@@V?$Local@VObject@v8@@@v8@@@Z 0000000180038c80     CanvasGradient.obj
 0002:0000cc80       $unwind$??$Unwrap@VImageData@@@ObjectWrap@Nan@@SAPEAVImageData@@V?$Local@VObject@v8@@@v8@@@Z 0000000180038c80     CanvasRenderingContext2d.obj
 0002:0000cc80       $unwind$??$Unwrap@VCanvas@@@ObjectWrap@Nan@@SAPEAVCanvas@@V?$Local@VObject@v8@@@v8@@@Z 0000000180038c80     Canvas.obj
 0002:0000cc80       $unwind$??$Unwrap@VImage@@@ObjectWrap@Nan@@SAPEAVImage@@V?$Local@VObject@v8@@@v8@@@Z 0000000180038c80     CanvasPattern.obj
 0002:0000cc80       $unwind$??$Unwrap@VPattern@@@ObjectWrap@Nan@@SAPEAVPattern@@V?$Local@VObject@v8@@@v8@@@Z 0000000180038c80     CanvasRenderingContext2d.obj
 0002:0000cc80       $unwind$??$Unwrap@VContext2d@@@ObjectWrap@Nan@@SAPEAVContext2d@@V?$Local@VObject@v8@@@v8@@@Z 0000000180038c80     Canvas.obj
 0002:0000cc88       $unwind$??__F?constructor@Gradient@@2V?$Persistent@VFunctionTemplate@v8@@V?$NonCopyablePersistentTraits@VFunctionTemplate@v8@@@2@@Nan@@A@@YAXXZ 0000000180038c88     CanvasGradient.obj
 0002:0000cc98       $ip2state$??__F?constructor@Gradient@@2V?$Persistent@VFunctionTemplate@v8@@V?$NonCopyablePersistentTraits@VFunctionTemplate@v8@@@2@@Nan@@A@@YAXXZ 0000000180038c98     CanvasGradient.obj
 0002:0000cca0       $unwind$?Initialize@Gradient@@SAXV?$Local@VObject@v8@@@v8@@@Z 0000000180038ca0     CanvasGradient.obj
 0002:0000ccb0       $ip2state$?Initialize@Gradient@@SAXV?$Local@VObject@v8@@@v8@@@Z 0000000180038cb0     CanvasGradient.obj
 0002:0000ccc8       $unwind$?New@Gradient@@SAXAEBV?$FunctionCallbackInfo@VValue@v8@@@Nan@@@Z 0000000180038cc8     CanvasGradient.obj
 0002:0000cd00       $stateUnwindMap$?New@Gradient@@SAXAEBV?$FunctionCallbackInfo@VValue@v8@@@Nan@@@Z 0000000180038d00     CanvasGradient.obj
 0002:0000cd10       $ip2state$?New@Gradient@@SAXAEBV?$FunctionCallbackInfo@VValue@v8@@@Nan@@@Z 0000000180038d10     CanvasGradient.obj
 0002:0000cd38       $unwind$?AddColorStop@Gradient@@SAXAEBV?$FunctionCallbackInfo@VValue@v8@@@Nan@@@Z 0000000180038d38     CanvasGradient.obj
 0002:0000cd60       $stateUnwindMap$?AddColorStop@Gradient@@SAXAEBV?$FunctionCallbackInfo@VValue@v8@@@Nan@@@Z 0000000180038d60     CanvasGradient.obj
 0002:0000cd68       $ip2state$?AddColorStop@Gradient@@SAXAEBV?$FunctionCallbackInfo@VValue@v8@@@Nan@@@Z 0000000180038d68     CanvasGradient.obj
 0002:0000cd90       $unwind$?ThrowError@Nan@@YAXPEBD@Z 0000000180038d90     CanvasPattern.obj
 0002:0000cda0       $ip2state$?ThrowError@Nan@@YAXPEBD@Z 0000000180038da0     CanvasPattern.obj
 0002:0000cdb8       $unwind$??__F?constructor@Pattern@@2V?$Persistent@VFunctionTemplate@v8@@V?$NonCopyablePersistentTraits@VFunctionTemplate@v8@@@2@@Nan@@A@@YAXXZ 0000000180038db8     CanvasPattern.obj
 0002:0000cdc8       $ip2state$??__F?constructor@Pattern@@2V?$Persistent@VFunctionTemplate@v8@@V?$NonCopyablePersistentTraits@VFunctionTemplate@v8@@@2@@Nan@@A@@YAXXZ 0000000180038dc8     CanvasPattern.obj
 0002:0000cdd0       $unwind$?Initialize@Pattern@@SAXV?$Local@VObject@v8@@@v8@@@Z 0000000180038dd0     CanvasPattern.obj
 0002:0000cde8       $ip2state$?Initialize@Pattern@@SAXV?$Local@VObject@v8@@@v8@@@Z 0000000180038de8     CanvasPattern.obj
 0002:0000ce00       $unwind$?New@Pattern@@SAXAEBV?$FunctionCallbackInfo@VValue@v8@@@Nan@@@Z 0000000180038e00     CanvasPattern.obj
 0002:0000ce08       $chain$1$?New@Pattern@@SAXAEBV?$FunctionCallbackInfo@VValue@v8@@@Nan@@@Z 0000000180038e08     CanvasPattern.obj
 0002:0000ce20       $chain$7$?New@Pattern@@SAXAEBV?$FunctionCallbackInfo@VValue@v8@@@Nan@@@Z 0000000180038e20     CanvasPattern.obj
 0002:0000ce20       $chain$5$?New@Pattern@@SAXAEBV?$FunctionCallbackInfo@VValue@v8@@@Nan@@@Z 0000000180038e20     CanvasPattern.obj
 0002:0000ce20       $chain$3$?New@Pattern@@SAXAEBV?$FunctionCallbackInfo@VValue@v8@@@Nan@@@Z 0000000180038e20     CanvasPattern.obj
 0002:0000ce38       $unwind$?NewInstance@Nan@@YA?AV?$MaybeLocal@VObject@v8@@@v8@@V?$Local@VFunction@v8@@@3@HQEAV?$Local@VValue@v8@@@3@@Z 0000000180038e38     CanvasRenderingContext2d.obj
 0002:0000ce50       $ip2state$?NewInstance@Nan@@YA?AV?$MaybeLocal@VObject@v8@@@v8@@V?$Local@VFunction@v8@@@3@HQEAV?$Local@VValue@v8@@@3@@Z 0000000180038e50     CanvasRenderingContext2d.obj
 0002:0000ce68       $unwind$?GetFunction@Nan@@YA?AV?$MaybeLocal@VFunction@v8@@@v8@@V?$Local@VFunctionTemplate@v8@@@3@@Z 0000000180038e68     CanvasRenderingContext2d.obj
 0002:0000ce80       $ip2state$?GetFunction@Nan@@YA?AV?$MaybeLocal@VFunction@v8@@@v8@@V?$Local@VFunctionTemplate@v8@@@3@@Z 0000000180038e80     CanvasRenderingContext2d.obj
 0002:0000ce98       $unwind$?convert@?$ToFactory@VInt32@v8@@@imp@Nan@@SA?AV?$MaybeLocal@VInt32@v8@@@v8@@V?$Local@VValue@v8@@@5@@Z 0000000180038e98     CanvasRenderingContext2d.obj
 0002:0000ceb0       $ip2state$?convert@?$ToFactory@VInt32@v8@@@imp@Nan@@SA?AV?$MaybeLocal@VInt32@v8@@@v8@@V?$Local@VValue@v8@@@5@@Z 0000000180038eb0     CanvasRenderingContext2d.obj
 0002:0000cec8       $unwind$??__F?constructor@Context2d@@2V?$Persistent@VFunctionTemplate@v8@@V?$NonCopyablePersistentTraits@VFunctionTemplate@v8@@@2@@Nan@@A@@YAXXZ 0000000180038ec8     CanvasRenderingContext2d.obj
 0002:0000ced8       $ip2state$??__F?constructor@Context2d@@2V?$Persistent@VFunctionTemplate@v8@@V?$NonCopyablePersistentTraits@VFunctionTemplate@v8@@@2@@Nan@@A@@YAXXZ 0000000180038ed8     CanvasRenderingContext2d.obj
 0002:0000cee0       $unwind$?Initialize@Context2d@@SAXV?$Local@VObject@v8@@@v8@@@Z 0000000180038ee0     CanvasRenderingContext2d.obj
 0002:0000cf00       $ip2state$?Initialize@Context2d@@SAXV?$Local@VObject@v8@@@v8@@@Z 0000000180038f00     CanvasRenderingContext2d.obj
 0002:0000cf38       $unwind$?shadow@Context2d@@QEAAXP6AXPEAU_cairo@@@Z@Z 0000000180038f38     CanvasRenderingContext2d.obj
 0002:0000cf50       $chain$3$?shadow@Context2d@@QEAAXP6AXPEAU_cairo@@@Z@Z 0000000180038f50     CanvasRenderingContext2d.obj
 0002:0000cf70       $chain$4$?shadow@Context2d@@QEAAXP6AXPEAU_cairo@@@Z@Z 0000000180038f70     CanvasRenderingContext2d.obj
 0002:0000cf80       $unwind$?blur@Context2d@@QEAAXPEAU_cairo_surface@@H@Z 0000000180038f80     CanvasRenderingContext2d.obj
 0002:0000cf98       $unwind$?New@Context2d@@SAXAEBV?$FunctionCallbackInfo@VValue@v8@@@Nan@@@Z 0000000180038f98     CanvasRenderingContext2d.obj
 0002:0000cfa0       $chain$0$?New@Context2d@@SAXAEBV?$FunctionCallbackInfo@VValue@v8@@@Nan@@@Z 0000000180038fa0     CanvasRenderingContext2d.obj
 0002:0000cfb4       $chain$2$?New@Context2d@@SAXAEBV?$FunctionCallbackInfo@VValue@v8@@@Nan@@@Z 0000000180038fb4     CanvasRenderingContext2d.obj
 0002:0000cfb4       $chain$4$?New@Context2d@@SAXAEBV?$FunctionCallbackInfo@VValue@v8@@@Nan@@@Z 0000000180038fb4     CanvasRenderingContext2d.obj
 0002:0000cfc8       $unwind$??$uninitialize_environment_internal@_W@@YAXAEAPEAPEA_W@Z 0000000180038fc8     libucrt:environment_initialization.obj
 0002:0000cfc8       $unwind$__vcrt_uninitialize 0000000180038fc8     libvcruntime:initialization.obj
 0002:0000cfc8       $unwind$__pctype_func      0000000180038fc8     libucrt:ctype.obj
 0002:0000cfc8       $unwind$_statfp            0000000180038fc8     libucrt:fpctrl.obj
 0002:0000cfc8       $unwind$__acrt_release_locale_ref 0000000180038fc8     libucrt:locale_refcounting.obj
 0002:0000cfc8       $unwind$__acrt_thread_attach 0000000180038fc8     libucrt:initialization.obj
 0002:0000cfc8       $unwind$?Stroke@Context2d@@SAXAEBV?$FunctionCallbackInfo@VValue@v8@@@Nan@@@Z 0000000180038fc8     CanvasRenderingContext2d.obj
 0002:0000cfc8       $unwind$__dcrt_terminate_console_output 0000000180038fc8     libucrt:initcon.obj
 0002:0000cfc8       $unwind$_getfpcontrolword  0000000180038fc8     libucrt:_fenvutils.obj
 0002:0000cfc8       $unwind$_getfpstatusword   0000000180038fc8     libucrt:_fenvutils.obj
 0002:0000cfc8       $unwind$__acrt_thread_detach 0000000180038fc8     libucrt:initialization.obj
 0002:0000cfc8       $unwind$??$uninitialize_environment_internal@D@@YAXAEAPEAPEAD@Z 0000000180038fc8     libucrt:environment_initialization.obj
 0002:0000cfc8       $unwind$__scrt_dllmain_crt_thread_attach 0000000180038fc8     LIBCMT:utility.obj
 0002:0000cfc8       $unwind$initialize_c       0000000180038fc8     libucrt:initialization.obj
 0002:0000cfc8       $unwind$__scrt_dllmain_uninitialize_critical 0000000180038fc8     LIBCMT:utility.obj
 0002:0000cfc8       $unwind$__dcrt_uninitialize_environments_nolock 0000000180038fc8     libucrt:environment_initialization.obj
 0002:0000cfc8       $unwind$?ResetTransform@Context2d@@SAXAEBV?$FunctionCallbackInfo@VValue@v8@@@Nan@@@Z 0000000180038fc8     CanvasRenderingContext2d.obj
 0002:0000cfc8       $unwind$_GetThrowImageBase 0000000180038fc8     libvcruntime:trnsctrl.obj
 0002:0000cfc8       $unwind$_errno             0000000180038fc8     libucrt:errno.obj
 0002:0000cfc8       $unwind$uninitialize_environment 0000000180038fc8     libucrt:initialization.obj
 0002:0000cfc8       $unwind$__scrt_dllmain_uninitialize_c 0000000180038fc8     LIBCMT:utility.obj
 0002:0000cfc8       $unwind$__acrt_uninitialize_critical 0000000180038fc8     libucrt:initialization.obj
 0002:0000cfc8       $unwind$__scrt_dllmain_after_initialize_c 0000000180038fc8     LIBCMT:utility.obj
 0002:0000cfc8       $unwind$__scrt_dllmain_crt_thread_detach 0000000180038fc8     LIBCMT:utility.obj
 0002:0000cfc8       $unwind$__scrt_dllmain_before_initialize_c 0000000180038fc8     LIBCMT:utility.obj
 0002:0000cfc8       $unwind$__acrt_initialize_multibyte 0000000180038fc8     libucrt:mbctype.obj
 0002:0000cfc8       $unwind$_GetImageBase      0000000180038fc8     libvcruntime:trnsctrl.obj
 0002:0000cfc8       $unwind$?ClosePath@Context2d@@SAXAEBV?$FunctionCallbackInfo@VValue@v8@@@Nan@@@Z 0000000180038fc8     CanvasRenderingContext2d.obj
 0002:0000cfc8       $unwind$__GSHandlerCheck   0000000180038fc8     LIBCMT:_gshandler_.obj
 0002:0000cfc8       $unwind$?BeginPath@Context2d@@SAXAEBV?$FunctionCallbackInfo@VValue@v8@@@Nan@@@Z 0000000180038fc8     CanvasRenderingContext2d.obj
 0002:0000cfc8       $unwind$__acrt_initialize_command_line 0000000180038fc8     libucrt:argv_data.obj
 0002:0000cfc8       $unwind$?state_case_size@?$output_processor@DV?$string_output_adapter@D@__crt_stdio_output@@V?$standard_base@DV?$string_output_adapter@D@__crt_stdio_output@@@2@@__crt_stdio_output@@AEAA_NXZ 0000000180038fc8     libucrt:output.obj
 0002:0000cfc8       $unwind$?state_case_size@?$output_processor@_WV?$string_output_adapter@_W@__crt_stdio_output@@V?$standard_base@_WV?$string_output_adapter@_W@__crt_stdio_output@@@2@@__crt_stdio_output@@AEAA_NXZ 0000000180038fc8     libucrt:output.obj
 0002:0000cfc8       $unwind$abort              0000000180038fc8     libucrt:abort.obj
 0002:0000cfc8       $unwind$?state_case_normal_tchar@?$output_processor@DV?$string_output_adapter@D@__crt_stdio_output@@V?$standard_base@DV?$string_output_adapter@D@__crt_stdio_output@@@2@@__crt_stdio_output@@AEAA_ND@Z 0000000180038fc8     libucrt:output.obj
 0002:0000cfc8       $unwind$__doserrno         0000000180038fc8     libucrt:errno.obj
 0002:0000cfc8       $unwind$?__GetCurrentState@@YAHPEA_KPEAU_xDISPATCHER_CONTEXT@@PEBU_s_FuncInfo@@@Z 0000000180038fc8     libvcruntime:ehstate.obj
 0002:0000cfc8       $unwind$__report_rangecheckfailure 0000000180038fc8     LIBCMT:gs_report.obj
 0002:0000cfc8       $unwind$_get_fmode         0000000180038fc8     libucrt:setmode.obj
 0002:0000cfc8       $unwind$?initialize_multibyte@@YAHXZ 0000000180038fc8     libucrt:multibyte_initializer.obj
 0002:0000cfc8       $unwind$__std_terminate    0000000180038fc8     libvcruntime:frame.obj
 0002:0000cfc8       $unwind$__scrt_acquire_startup_lock 0000000180038fc8     LIBCMT:utility.obj
 0002:0000cfc8       $unwind$_invoke_watson     0000000180038fc8     libucrt:invalid_parameter.obj
 0002:0000cfc8       $unwind$?state_case_size@?$output_processor@_WV?$stream_output_adapter@_W@__crt_stdio_output@@V?$standard_base@_WV?$stream_output_adapter@_W@__crt_stdio_output@@@2@@__crt_stdio_output@@AEAA_NXZ 0000000180038fc8     libucrt:output.obj
 0002:0000cfc8       $unwind$_set_error_mode    0000000180038fc8     libucrt:set_error_mode.obj
 0002:0000cfc8       $unwind$_fileno            0000000180038fc8     libucrt:fileno.obj
 0002:0000cfc8       $unwind$_get_osfhandle     0000000180038fc8     libucrt:osfinfo.obj
 0002:0000cfc8       $unwind$atexit             0000000180038fc8     LIBCMT:utility.obj
 0002:0000cfc8       $unwind$_set_errno_from_matherr 0000000180038fc8     libucrt:fpexcept.obj
 0002:0000cfc8       $unwind$__vcrt_freefls     0000000180038fc8     libvcruntime:per_thread_data.obj
 0002:0000cfc8       $unwind$?AddPage@Context2d@@SAXAEBV?$FunctionCallbackInfo@VValue@v8@@@Nan@@@Z 0000000180038fc8     CanvasRenderingContext2d.obj
 0002:0000cfc8       $unwind$__vcrt_getptd      0000000180038fc8     libvcruntime:per_thread_data.obj
 0002:0000cfc8       $unwind$tolower            0000000180038fc8     libucrt:tolower_toupper.obj
 0002:0000cfc8       $unwind$__FrameUnwindFilter 0000000180038fc8     libvcruntime:frame.obj
 0002:0000cfc8       $unwind$_msize             0000000180038fc8     libucrt:msize.obj
 0002:0000cfc8       $unwind$__vcrt_uninitialize_ptd 0000000180038fc8     libvcruntime:per_thread_data.obj
 0002:0000cfc8       $unwind$__vcrt_initialize_ptd 0000000180038fc8     libvcruntime:per_thread_data.obj
 0002:0000cfc8       $unwind$__scrt_initialize_default_local_stdio_options 0000000180038fc8     LIBCMT:default_local_stdio_options.obj
 0002:0000cfc8       $unwind$?dllmain_crt_dispatch@@YAHQEAUHINSTANCE__@@KQEAX@Z 0000000180038fc8     LIBCMT:dll_dllmain.obj
 0002:0000cfc8       $unwind$__vcrt_thread_detach 0000000180038fc8     libvcruntime:initialization.obj
 0002:0000cfc8       $unwind$__acrt_initialize_ptd 0000000180038fc8     libucrt:per_thread_data.obj
 0002:0000cfc8       $unwind$__acrt_initialize_heap 0000000180038fc8     libucrt:heap_handle.obj
 0002:0000cfc8       $unwind$__vcrt_thread_attach 0000000180038fc8     libvcruntime:initialization.obj
 0002:0000cfc8       $unwind$__acrt_uninitialize_ptd 0000000180038fc8     libucrt:per_thread_data.obj
 0002:0000cfc8       $unwind$_isatty            0000000180038fc8     libucrt:isatty.obj
 0002:0000cfc8       $unwind$__vcrt_initialize  0000000180038fc8     libvcruntime:initialization.obj
 0002:0000cfc8       $unwind$__vcrt_uninitialize_critical 0000000180038fc8     libvcruntime:initialization.obj
 0002:0000cfc8       $unwind$_strnicmp          0000000180038fc8     libucrt:strnicmp.obj
 0002:0000cfc8       $unwind$__acrt_DownlevelLocaleNameToLCID 0000000180038fc8     libucrt:lcidtoname_downlevel.obj
 0002:0000cfd0       $unwind$?PutImageData@Context2d@@SAXAEBV?$FunctionCallbackInfo@VValue@v8@@@Nan@@@Z 0000000180038fd0     CanvasRenderingContext2d.obj
 0002:0000cfd8       $chain$0$?PutImageData@Context2d@@SAXAEBV?$FunctionCallbackInfo@VValue@v8@@@Nan@@@Z 0000000180038fd8     CanvasRenderingContext2d.obj
 0002:0000cfec       $chain$8$?PutImageData@Context2d@@SAXAEBV?$FunctionCallbackInfo@VValue@v8@@@Nan@@@Z 0000000180038fec     CanvasRenderingContext2d.obj
 0002:0000d018       $unwind$?GetImageData@Context2d@@SAXAEBV?$FunctionCallbackInfo@VValue@v8@@@Nan@@@Z 0000000180039018     CanvasRenderingContext2d.obj
 0002:0000d034       $chain$1$?GetImageData@Context2d@@SAXAEBV?$FunctionCallbackInfo@VValue@v8@@@Nan@@@Z 0000000180039034     CanvasRenderingContext2d.obj
 0002:0000d04c       $chain$2$?GetImageData@Context2d@@SAXAEBV?$FunctionCallbackInfo@VValue@v8@@@Nan@@@Z 000000018003904c     CanvasRenderingContext2d.obj
 0002:0000d05c       $unwind$?DrawImage@Context2d@@SAXAEBV?$FunctionCallbackInfo@VValue@v8@@@Nan@@@Z 000000018003905c     CanvasRenderingContext2d.obj
 0002:0000d068       $chain$4$?DrawImage@Context2d@@SAXAEBV?$FunctionCallbackInfo@VValue@v8@@@Nan@@@Z 0000000180039068     CanvasRenderingContext2d.obj
 0002:0000d08c       $chain$12$?DrawImage@Context2d@@SAXAEBV?$FunctionCallbackInfo@VValue@v8@@@Nan@@@Z 000000018003908c     CanvasRenderingContext2d.obj
 0002:0000d0bc       $chain$13$?DrawImage@Context2d@@SAXAEBV?$FunctionCallbackInfo@VValue@v8@@@Nan@@@Z 00000001800390bc     CanvasRenderingContext2d.obj
 0002:0000d0cc       $chain$15$?DrawImage@Context2d@@SAXAEBV?$FunctionCallbackInfo@VValue@v8@@@Nan@@@Z 00000001800390cc     CanvasRenderingContext2d.obj
 0002:0000d110       $chain$17$?DrawImage@Context2d@@SAXAEBV?$FunctionCallbackInfo@VValue@v8@@@Nan@@@Z 0000000180039110     CanvasRenderingContext2d.obj
 0002:0000d128       $chain$19$?DrawImage@Context2d@@SAXAEBV?$FunctionCallbackInfo@VValue@v8@@@Nan@@@Z 0000000180039128     CanvasRenderingContext2d.obj
 0002:0000d14c       $unwind$?SetMiterLimit@Context2d@@SAXV?$Local@VString@v8@@@v8@@V?$Local@VValue@v8@@@3@AEBV?$PropertyCallbackInfo@X@Nan@@@Z 000000018003914c     CanvasRenderingContext2d.obj
 0002:0000d14c       $unwind$?SetLineWidth@Context2d@@SAXV?$Local@VString@v8@@@v8@@V?$Local@VValue@v8@@@3@AEBV?$PropertyCallbackInfo@X@Nan@@@Z 000000018003914c     CanvasRenderingContext2d.obj
 0002:0000d14c       $unwind$?SetGlobalAlpha@Context2d@@SAXV?$Local@VString@v8@@@v8@@V?$Local@VValue@v8@@@3@AEBV?$PropertyCallbackInfo@X@Nan@@@Z 000000018003914c     CanvasRenderingContext2d.obj
 0002:0000d158       $unwind$?SetLineCap@Context2d@@SAXV?$Local@VString@v8@@@v8@@V?$Local@VValue@v8@@@3@AEBV?$PropertyCallbackInfo@X@Nan@@@Z 0000000180039158     CanvasRenderingContext2d.obj
 0002:0000d158       $unwind$?SetPatternQuality@Context2d@@SAXV?$Local@VString@v8@@@v8@@V?$Local@VValue@v8@@@3@AEBV?$PropertyCallbackInfo@X@Nan@@@Z 0000000180039158     CanvasRenderingContext2d.obj
 0002:0000d158       $unwind$?SetLineJoin@Context2d@@SAXV?$Local@VString@v8@@@v8@@V?$Local@VValue@v8@@@3@AEBV?$PropertyCallbackInfo@X@Nan@@@Z 0000000180039158     CanvasRenderingContext2d.obj
 0002:0000d158       $unwind$?init@@YAXV?$Local@VObject@v8@@@v8@@@Z 0000000180039158     init.obj
 0002:0000d160       $unwind$?SetGlobalCompositeOperation@Context2d@@SAXV?$Local@VString@v8@@@v8@@V?$Local@VValue@v8@@@3@AEBV?$PropertyCallbackInfo@X@Nan@@@Z 0000000180039160     CanvasRenderingContext2d.obj
 0002:0000d170       $unwind$?SetDataMode@Image@@SAXV?$Local@VString@v8@@@v8@@V?$Local@VValue@v8@@@3@AEBV?$PropertyCallbackInfo@X@Nan@@@Z 0000000180039170     Image.obj
 0002:0000d170       $unwind$?SetShadowOffsetX@Context2d@@SAXV?$Local@VString@v8@@@v8@@V?$Local@VValue@v8@@@3@AEBV?$PropertyCallbackInfo@X@Nan@@@Z 0000000180039170     CanvasRenderingContext2d.obj
 0002:0000d170       $unwind$__acrt_locale_free_numeric 0000000180039170     libucrt:initnum.obj
 0002:0000d170       $unwind$__acrt_locale_free_lc_time_if_unreferenced 0000000180039170     libucrt:locale_refcounting.obj
 0002:0000d170       $unwind$?SetShadowOffsetY@Context2d@@SAXV?$Local@VString@v8@@@v8@@V?$Local@VValue@v8@@@3@AEBV?$PropertyCallbackInfo@X@Nan@@@Z 0000000180039170     CanvasRenderingContext2d.obj
 0002:0000d170       $unwind$_free_base         0000000180039170     libucrt:free_base.obj
 0002:0000d170       $unwind$?destroy_fls@@YAXPEAX@Z 0000000180039170     libucrt:per_thread_data.obj
 0002:0000d178       $unwind$?SetAntiAlias@Context2d@@SAXV?$Local@VString@v8@@@v8@@V?$Local@VValue@v8@@@3@AEBV?$PropertyCallbackInfo@X@Nan@@@Z 0000000180039178     CanvasRenderingContext2d.obj
 0002:0000d188       $stateUnwindMap$?SetFillColor@Context2d@@SAXAEBV?$FunctionCallbackInfo@VValue@v8@@@Nan@@@Z 0000000180039188     CanvasRenderingContext2d.obj
 0002:0000d188       $stateUnwindMap$?SetAntiAlias@Context2d@@SAXV?$Local@VString@v8@@@v8@@V?$Local@VValue@v8@@@3@AEBV?$PropertyCallbackInfo@X@Nan@@@Z 0000000180039188     CanvasRenderingContext2d.obj
 0002:0000d188       $stateUnwindMap$?FillText@Context2d@@SAXAEBV?$FunctionCallbackInfo@VValue@v8@@@Nan@@@Z 0000000180039188     CanvasRenderingContext2d.obj
 0002:0000d188       $stateUnwindMap$?SetTextDrawingMode@Context2d@@SAXV?$Local@VString@v8@@@v8@@V?$Local@VValue@v8@@@3@AEBV?$PropertyCallbackInfo@X@Nan@@@Z 0000000180039188     CanvasRenderingContext2d.obj
 0002:0000d188       $stateUnwindMap$?SetStrokeColor@Context2d@@SAXAEBV?$FunctionCallbackInfo@VValue@v8@@@Nan@@@Z 0000000180039188     CanvasRenderingContext2d.obj
 0002:0000d188       $stateUnwindMap$?StrokeText@Context2d@@SAXAEBV?$FunctionCallbackInfo@VValue@v8@@@Nan@@@Z 0000000180039188     CanvasRenderingContext2d.obj
 0002:0000d188       $stateUnwindMap$?SetShadowColor@Context2d@@SAXV?$Local@VString@v8@@@v8@@V?$Local@VValue@v8@@@3@AEBV?$PropertyCallbackInfo@X@Nan@@@Z 0000000180039188     CanvasRenderingContext2d.obj
 0002:0000d188       $stateUnwindMap$?SetFilter@Context2d@@SAXV?$Local@VString@v8@@@v8@@V?$Local@VValue@v8@@@3@AEBV?$PropertyCallbackInfo@X@Nan@@@Z 0000000180039188     CanvasRenderingContext2d.obj
 0002:0000d190       $ip2state$?SetAntiAlias@Context2d@@SAXV?$Local@VString@v8@@@v8@@V?$Local@VValue@v8@@@3@AEBV?$PropertyCallbackInfo@X@Nan@@@Z 0000000180039190     CanvasRenderingContext2d.obj
 0002:0000d1a8       $unwind$?SetTextDrawingMode@Context2d@@SAXV?$Local@VString@v8@@@v8@@V?$Local@VValue@v8@@@3@AEBV?$PropertyCallbackInfo@X@Nan@@@Z 00000001800391a8     CanvasRenderingContext2d.obj
 0002:0000d1b8       $ip2state$?SetTextDrawingMode@Context2d@@SAXV?$Local@VString@v8@@@v8@@V?$Local@VValue@v8@@@3@AEBV?$PropertyCallbackInfo@X@Nan@@@Z 00000001800391b8     CanvasRenderingContext2d.obj
 0002:0000d1d0       $unwind$?SetFilter@Context2d@@SAXV?$Local@VString@v8@@@v8@@V?$Local@VValue@v8@@@3@AEBV?$PropertyCallbackInfo@X@Nan@@@Z 00000001800391d0     CanvasRenderingContext2d.obj
 0002:0000d1e8       $ip2state$?SetFilter@Context2d@@SAXV?$Local@VString@v8@@@v8@@V?$Local@VValue@v8@@@3@AEBV?$PropertyCallbackInfo@X@Nan@@@Z 00000001800391e8     CanvasRenderingContext2d.obj
 0002:0000d200       $unwind$?IsPointInPath@Context2d@@SAXAEBV?$FunctionCallbackInfo@VValue@v8@@@Nan@@@Z 0000000180039200     CanvasRenderingContext2d.obj
 0002:0000d200       $unwind$_isleadbyte_l      0000000180039200     libucrt:_wctype.obj
 0002:0000d200       $unwind$isdigit            0000000180039200     libucrt:_ctype.obj
 0002:0000d200       $unwind$?getSystemCP@@YAHH@Z 0000000180039200     libucrt:mbctype.obj
 0002:0000d208       $chain$3$?IsPointInPath@Context2d@@SAXAEBV?$FunctionCallbackInfo@VValue@v8@@@Nan@@@Z 0000000180039208     CanvasRenderingContext2d.obj
 0002:0000d228       $chain$4$?IsPointInPath@Context2d@@SAXAEBV?$FunctionCallbackInfo@VValue@v8@@@Nan@@@Z 0000000180039228     CanvasRenderingContext2d.obj
 0002:0000d238       $unwind$??R<lambda_b721fa326cdb32351d23dfa67958c160>@@QEBAHXZ 0000000180039238     libucrt:setvbuf.obj
 0002:0000d238       $unwind$?SetFillPattern@Context2d@@SAXAEBV?$FunctionCallbackInfo@VValue@v8@@@Nan@@@Z 0000000180039238     CanvasRenderingContext2d.obj
 0002:0000d238       $unwind$?type_case_c_tchar@?$output_processor@_WV?$string_output_adapter@_W@__crt_stdio_output@@V?$standard_base@_WV?$string_output_adapter@_W@__crt_stdio_output@@@2@@__crt_stdio_output@@AEAA_N_W@Z 0000000180039238     libucrt:output.obj
 0002:0000d238       $unwind$?SetStrokePattern@Context2d@@SAXAEBV?$FunctionCallbackInfo@VValue@v8@@@Nan@@@Z 0000000180039238     CanvasRenderingContext2d.obj
 0002:0000d238       $unwind$?type_case_c_tchar@?$output_processor@_WV?$stream_output_adapter@_W@__crt_stdio_output@@V?$standard_base@_WV?$stream_output_adapter@_W@__crt_stdio_output@@@2@@__crt_stdio_output@@AEAA_N_W@Z 0000000180039238     libucrt:output.obj
 0002:0000d238       $unwind$?truncate_ctrl_z_if_present@@YAHH@Z 0000000180039238     libucrt:open.obj
 0002:0000d248       $unwind$?SetShadowColor@Context2d@@SAXV?$Local@VString@v8@@@v8@@V?$Local@VValue@v8@@@3@AEBV?$PropertyCallbackInfo@X@Nan@@@Z 0000000180039248     CanvasRenderingContext2d.obj
 0002:0000d260       $ip2state$?SetShadowColor@Context2d@@SAXV?$Local@VString@v8@@@v8@@V?$Local@VValue@v8@@@3@AEBV?$PropertyCallbackInfo@X@Nan@@@Z 0000000180039260     CanvasRenderingContext2d.obj
 0002:0000d278       $unwind$?GetShadowColor@Context2d@@SAXV?$Local@VString@v8@@@v8@@AEBV?$PropertyCallbackInfo@VValue@v8@@@Nan@@@Z 0000000180039278     CanvasRenderingContext2d.obj
 0002:0000d278       $unwind$?GetFillColor@Context2d@@SAXV?$Local@VString@v8@@@v8@@AEBV?$PropertyCallbackInfo@VValue@v8@@@Nan@@@Z 0000000180039278     CanvasRenderingContext2d.obj
 0002:0000d278       $unwind$?GetStrokeColor@Context2d@@SAXV?$Local@VString@v8@@@v8@@AEBV?$PropertyCallbackInfo@VValue@v8@@@Nan@@@Z 0000000180039278     CanvasRenderingContext2d.obj
 0002:0000d28c       $unwind$?SetFillColor@Context2d@@SAXAEBV?$FunctionCallbackInfo@VValue@v8@@@Nan@@@Z 000000018003928c     CanvasRenderingContext2d.obj
 0002:0000d2a0       $ip2state$?SetFillColor@Context2d@@SAXAEBV?$FunctionCallbackInfo@VValue@v8@@@Nan@@@Z 00000001800392a0     CanvasRenderingContext2d.obj
 0002:0000d2b8       $unwind$?SetStrokeColor@Context2d@@SAXAEBV?$FunctionCallbackInfo@VValue@v8@@@Nan@@@Z 00000001800392b8     CanvasRenderingContext2d.obj
 0002:0000d2d0       $ip2state$?SetStrokeColor@Context2d@@SAXAEBV?$FunctionCallbackInfo@VValue@v8@@@Nan@@@Z 00000001800392d0     CanvasRenderingContext2d.obj
 0002:0000d2e8       $unwind$?BezierCurveTo@Context2d@@SAXAEBV?$FunctionCallbackInfo@VValue@v8@@@Nan@@@Z 00000001800392e8     CanvasRenderingContext2d.obj
 0002:0000d2f4       $chain$9$?BezierCurveTo@Context2d@@SAXAEBV?$FunctionCallbackInfo@VValue@v8@@@Nan@@@Z 00000001800392f4     CanvasRenderingContext2d.obj
 0002:0000d32c       $chain$10$?BezierCurveTo@Context2d@@SAXAEBV?$FunctionCallbackInfo@VValue@v8@@@Nan@@@Z 000000018003932c     CanvasRenderingContext2d.obj
 0002:0000d33c       $unwind$?QuadraticCurveTo@Context2d@@SAXAEBV?$FunctionCallbackInfo@VValue@v8@@@Nan@@@Z 000000018003933c     CanvasRenderingContext2d.obj
 0002:0000d344       $chain$4$?QuadraticCurveTo@Context2d@@SAXAEBV?$FunctionCallbackInfo@VValue@v8@@@Nan@@@Z 0000000180039344     CanvasRenderingContext2d.obj
 0002:0000d368       $chain$5$?QuadraticCurveTo@Context2d@@SAXAEBV?$FunctionCallbackInfo@VValue@v8@@@Nan@@@Z 0000000180039368     CanvasRenderingContext2d.obj
 0002:0000d378       $unwind$?Transform@Context2d@@SAXAEBV?$FunctionCallbackInfo@VValue@v8@@@Nan@@@Z 0000000180039378     CanvasRenderingContext2d.obj
 0002:0000d3a4       $unwind$?Translate@Context2d@@SAXAEBV?$FunctionCallbackInfo@VValue@v8@@@Nan@@@Z 00000001800393a4     CanvasRenderingContext2d.obj
 0002:0000d3a4       $unwind$?Scale@Context2d@@SAXAEBV?$FunctionCallbackInfo@VValue@v8@@@Nan@@@Z 00000001800393a4     CanvasRenderingContext2d.obj
 0002:0000d3b8       $unwind$?FillText@Context2d@@SAXAEBV?$FunctionCallbackInfo@VValue@v8@@@Nan@@@Z 00000001800393b8     CanvasRenderingContext2d.obj
 0002:0000d3d0       $ip2state$?FillText@Context2d@@SAXAEBV?$FunctionCallbackInfo@VValue@v8@@@Nan@@@Z 00000001800393d0     CanvasRenderingContext2d.obj
 0002:0000d3e8       $unwind$?StrokeText@Context2d@@SAXAEBV?$FunctionCallbackInfo@VValue@v8@@@Nan@@@Z 00000001800393e8     CanvasRenderingContext2d.obj
 0002:0000d400       $ip2state$?StrokeText@Context2d@@SAXAEBV?$FunctionCallbackInfo@VValue@v8@@@Nan@@@Z 0000000180039400     CanvasRenderingContext2d.obj
 0002:0000d418       $unwind$?setTextPath@Context2d@@QEAAXPEBDNN@Z 0000000180039418     CanvasRenderingContext2d.obj
 0002:0000d434       $unwind$?LineTo@Context2d@@SAXAEBV?$FunctionCallbackInfo@VValue@v8@@@Nan@@@Z 0000000180039434     CanvasRenderingContext2d.obj
 0002:0000d434       $unwind$?MoveTo@Context2d@@SAXAEBV?$FunctionCallbackInfo@VValue@v8@@@Nan@@@Z 0000000180039434     CanvasRenderingContext2d.obj
 0002:0000d444       $unwind$?SetFont@Context2d@@SAXAEBV?$FunctionCallbackInfo@VValue@v8@@@Nan@@@Z 0000000180039444     CanvasRenderingContext2d.obj
 0002:0000d460       $stateUnwindMap$?SetFont@Context2d@@SAXAEBV?$FunctionCallbackInfo@VValue@v8@@@Nan@@@Z 0000000180039460     CanvasRenderingContext2d.obj
 0002:0000d480       $ip2state$?SetFont@Context2d@@SAXAEBV?$FunctionCallbackInfo@VValue@v8@@@Nan@@@Z 0000000180039480     CanvasRenderingContext2d.obj
 0002:0000d4c8       $unwind$?MeasureText@Context2d@@SAXAEBV?$FunctionCallbackInfo@VValue@v8@@@Nan@@@Z 00000001800394c8     CanvasRenderingContext2d.obj
 0002:0000d4f8       $stateUnwindMap$?MeasureText@Context2d@@SAXAEBV?$FunctionCallbackInfo@VValue@v8@@@Nan@@@Z 00000001800394f8     CanvasRenderingContext2d.obj
 0002:0000d500       $ip2state$?MeasureText@Context2d@@SAXAEBV?$FunctionCallbackInfo@VValue@v8@@@Nan@@@Z 0000000180039500     CanvasRenderingContext2d.obj
 0002:0000d518       $chain$0$?SetTextBaseline@Context2d@@SAXAEBV?$FunctionCallbackInfo@VValue@v8@@@Nan@@@Z 0000000180039518     CanvasRenderingContext2d.obj
 0002:0000d52c       $chain$1$?SetTextBaseline@Context2d@@SAXAEBV?$FunctionCallbackInfo@VValue@v8@@@Nan@@@Z 000000018003952c     CanvasRenderingContext2d.obj
 0002:0000d53c       $chain$0$?SetTextAlignment@Context2d@@SAXAEBV?$FunctionCallbackInfo@VValue@v8@@@Nan@@@Z 000000018003953c     CanvasRenderingContext2d.obj
 0002:0000d550       $chain$1$?SetTextAlignment@Context2d@@SAXAEBV?$FunctionCallbackInfo@VValue@v8@@@Nan@@@Z 0000000180039550     CanvasRenderingContext2d.obj
 0002:0000d560       $unwind$?SetLineDash@Context2d@@SAXAEBV?$FunctionCallbackInfo@VValue@v8@@@Nan@@@Z 0000000180039560     CanvasRenderingContext2d.obj
 0002:0000d584       $stateUnwindMap$?SetLineDash@Context2d@@SAXAEBV?$FunctionCallbackInfo@VValue@v8@@@Nan@@@Z 0000000180039584     CanvasRenderingContext2d.obj
 0002:0000d584       $stateUnwindMap$?GetLineDash@Context2d@@SAXAEBV?$FunctionCallbackInfo@VValue@v8@@@Nan@@@Z 0000000180039584     CanvasRenderingContext2d.obj
 0002:0000d590       $ip2state$?SetLineDash@Context2d@@SAXAEBV?$FunctionCallbackInfo@VValue@v8@@@Nan@@@Z 0000000180039590     CanvasRenderingContext2d.obj
 0002:0000d5a8       $unwind$?GetLineDash@Context2d@@SAXAEBV?$FunctionCallbackInfo@VValue@v8@@@Nan@@@Z 00000001800395a8     CanvasRenderingContext2d.obj
 0002:0000d5d0       $ip2state$?GetLineDash@Context2d@@SAXAEBV?$FunctionCallbackInfo@VValue@v8@@@Nan@@@Z 00000001800395d0     CanvasRenderingContext2d.obj
 0002:0000d5e8       $unwind$?SetLineDashOffset@Context2d@@SAXV?$Local@VString@v8@@@v8@@V?$Local@VValue@v8@@@3@AEBV?$PropertyCallbackInfo@X@Nan@@@Z 00000001800395e8     CanvasRenderingContext2d.obj
 0002:0000d5f4       $chain$4$?SetLineDashOffset@Context2d@@SAXV?$Local@VString@v8@@@v8@@V?$Local@VValue@v8@@@3@AEBV?$PropertyCallbackInfo@X@Nan@@@Z 00000001800395f4     CanvasRenderingContext2d.obj
 0002:0000d618       $chain$5$?SetLineDashOffset@Context2d@@SAXV?$Local@VString@v8@@@v8@@V?$Local@VValue@v8@@@3@AEBV?$PropertyCallbackInfo@X@Nan@@@Z 0000000180039618     CanvasRenderingContext2d.obj
 0002:0000d628       $chain$6$?SetLineDashOffset@Context2d@@SAXV?$Local@VString@v8@@@v8@@V?$Local@VValue@v8@@@3@AEBV?$PropertyCallbackInfo@X@Nan@@@Z 0000000180039628     CanvasRenderingContext2d.obj
 0002:0000d64c       $unwind$?Rect@Context2d@@SAXAEBV?$FunctionCallbackInfo@VValue@v8@@@Nan@@@Z 000000018003964c     CanvasRenderingContext2d.obj
 0002:0000d64c       $unwind$?StrokeRect@Context2d@@SAXAEBV?$FunctionCallbackInfo@VValue@v8@@@Nan@@@Z 000000018003964c     CanvasRenderingContext2d.obj
 0002:0000d64c       $unwind$?ClearRect@Context2d@@SAXAEBV?$FunctionCallbackInfo@VValue@v8@@@Nan@@@Z 000000018003964c     CanvasRenderingContext2d.obj
 0002:0000d64c       $unwind$?FillRect@Context2d@@SAXAEBV?$FunctionCallbackInfo@VValue@v8@@@Nan@@@Z 000000018003964c     CanvasRenderingContext2d.obj
 0002:0000d654       $chain$3$?FillRect@Context2d@@SAXAEBV?$FunctionCallbackInfo@VValue@v8@@@Nan@@@Z 0000000180039654     CanvasRenderingContext2d.obj
 0002:0000d674       $chain$4$?FillRect@Context2d@@SAXAEBV?$FunctionCallbackInfo@VValue@v8@@@Nan@@@Z 0000000180039674     CanvasRenderingContext2d.obj
 0002:0000d688       $chain$5$?FillRect@Context2d@@SAXAEBV?$FunctionCallbackInfo@VValue@v8@@@Nan@@@Z 0000000180039688     CanvasRenderingContext2d.obj
 0002:0000d698       $chain$6$?FillRect@Context2d@@SAXAEBV?$FunctionCallbackInfo@VValue@v8@@@Nan@@@Z 0000000180039698     CanvasRenderingContext2d.obj
 0002:0000d6a8       $chain$3$?StrokeRect@Context2d@@SAXAEBV?$FunctionCallbackInfo@VValue@v8@@@Nan@@@Z 00000001800396a8     CanvasRenderingContext2d.obj
 0002:0000d6c8       $chain$4$?StrokeRect@Context2d@@SAXAEBV?$FunctionCallbackInfo@VValue@v8@@@Nan@@@Z 00000001800396c8     CanvasRenderingContext2d.obj
 0002:0000d6dc       $chain$5$?StrokeRect@Context2d@@SAXAEBV?$FunctionCallbackInfo@VValue@v8@@@Nan@@@Z 00000001800396dc     CanvasRenderingContext2d.obj
 0002:0000d6ec       $chain$6$?StrokeRect@Context2d@@SAXAEBV?$FunctionCallbackInfo@VValue@v8@@@Nan@@@Z 00000001800396ec     CanvasRenderingContext2d.obj
 0002:0000d6fc       $chain$3$?ClearRect@Context2d@@SAXAEBV?$FunctionCallbackInfo@VValue@v8@@@Nan@@@Z 00000001800396fc     CanvasRenderingContext2d.obj
 0002:0000d71c       $chain$4$?ClearRect@Context2d@@SAXAEBV?$FunctionCallbackInfo@VValue@v8@@@Nan@@@Z 000000018003971c     CanvasRenderingContext2d.obj
 0002:0000d730       $chain$5$?ClearRect@Context2d@@SAXAEBV?$FunctionCallbackInfo@VValue@v8@@@Nan@@@Z 0000000180039730     CanvasRenderingContext2d.obj
 0002:0000d740       $chain$6$?ClearRect@Context2d@@SAXAEBV?$FunctionCallbackInfo@VValue@v8@@@Nan@@@Z 0000000180039740     CanvasRenderingContext2d.obj
 0002:0000d750       $chain$3$?Rect@Context2d@@SAXAEBV?$FunctionCallbackInfo@VValue@v8@@@Nan@@@Z 0000000180039750     CanvasRenderingContext2d.obj
 0002:0000d770       $chain$4$?Rect@Context2d@@SAXAEBV?$FunctionCallbackInfo@VValue@v8@@@Nan@@@Z 0000000180039770     CanvasRenderingContext2d.obj
 0002:0000d780       $unwind$?Arc@Context2d@@SAXAEBV?$FunctionCallbackInfo@VValue@v8@@@Nan@@@Z 0000000180039780     CanvasRenderingContext2d.obj
 0002:0000d788       $chain$7$?Arc@Context2d@@SAXAEBV?$FunctionCallbackInfo@VValue@v8@@@Nan@@@Z 0000000180039788     CanvasRenderingContext2d.obj
 0002:0000d7b8       $chain$8$?Arc@Context2d@@SAXAEBV?$FunctionCallbackInfo@VValue@v8@@@Nan@@@Z 00000001800397b8     CanvasRenderingContext2d.obj
 0002:0000d7c8       $unwind$?ArcTo@Context2d@@SAXAEBV?$FunctionCallbackInfo@VValue@v8@@@Nan@@@Z 00000001800397c8     CanvasRenderingContext2d.obj
 0002:0000d7d4       $chain$8$?ArcTo@Context2d@@SAXAEBV?$FunctionCallbackInfo@VValue@v8@@@Nan@@@Z 00000001800397d4     CanvasRenderingContext2d.obj
 0002:0000d808       $chain$9$?ArcTo@Context2d@@SAXAEBV?$FunctionCallbackInfo@VValue@v8@@@Nan@@@Z 0000000180039808     CanvasRenderingContext2d.obj
 0002:0000d81c       $chain$11$?ArcTo@Context2d@@SAXAEBV?$FunctionCallbackInfo@VValue@v8@@@Nan@@@Z 000000018003981c     CanvasRenderingContext2d.obj
 0002:0000d834       $chain$12$?ArcTo@Context2d@@SAXAEBV?$FunctionCallbackInfo@VValue@v8@@@Nan@@@Z 0000000180039834     CanvasRenderingContext2d.obj
 0002:0000d844       $chain$13$?ArcTo@Context2d@@SAXAEBV?$FunctionCallbackInfo@VValue@v8@@@Nan@@@Z 0000000180039844     CanvasRenderingContext2d.obj
 0002:0000d854       $unwind$??0?$TypedArrayContents@E@Nan@@QEAA@V?$Local@VValue@v8@@@v8@@@Z 0000000180039854     CanvasRenderingContext2d.obj
 0002:0000d870       $ip2state$??0?$TypedArrayContents@E@Nan@@QEAA@V?$Local@VValue@v8@@@v8@@@Z 0000000180039870     CanvasRenderingContext2d.obj
 0002:0000d888       $unwind$snprintf           0000000180039888     color.obj
 0002:0000d888       $unwind$swprintf           0000000180039888     libucrt:assert.obj
 0002:0000d898       $unwind$?rgba_from_hsla@@YAHMMMM@Z 0000000180039898     color.obj
 0002:0000d8cc       $unwind$?rgba_from_rgba_string@@YAHPEBDPEAF@Z 00000001800398cc     color.obj
 0002:0000d8cc       $unwind$?rgba_from_rgb_string@@YAHPEBDPEAF@Z 00000001800398cc     color.obj
 0002:0000d8d8       $chain$0$?rgba_from_rgb_string@@YAHPEBDPEAF@Z 00000001800398d8     color.obj
 0002:0000d8ec       $chain$2$?rgba_from_rgb_string@@YAHPEBDPEAF@Z 00000001800398ec     color.obj
 0002:0000d900       $chain$3$?rgba_from_rgb_string@@YAHPEBDPEAF@Z 0000000180039900     color.obj
 0002:0000d910       $chain$0$?rgba_from_rgba_string@@YAHPEBDPEAF@Z 0000000180039910     color.obj
 0002:0000d924       $chain$2$?rgba_from_rgba_string@@YAHPEBDPEAF@Z 0000000180039924     color.obj
 0002:0000d938       $chain$3$?rgba_from_rgba_string@@YAHPEBDPEAF@Z 0000000180039938     color.obj
 0002:0000d948       $unwind$?rgba_from_hsla_string@@YAHPEBDPEAF@Z 0000000180039948     color.obj
 0002:0000d948       $unwind$?type_case_a@?$output_processor@DV?$string_output_adapter@D@__crt_stdio_output@@V?$standard_base@DV?$string_output_adapter@D@__crt_stdio_output@@@2@@__crt_stdio_output@@AEAA_NXZ 0000000180039948     libucrt:output.obj
 0002:0000d954       $chain$2$?rgba_from_hsla_string@@YAHPEBDPEAF@Z 0000000180039954     color.obj
 0002:0000d970       $chain$4$?rgba_from_hsla_string@@YAHPEBDPEAF@Z 0000000180039970     color.obj
 0002:0000d98c       $chain$5$?rgba_from_hsla_string@@YAHPEBDPEAF@Z 000000018003998c     color.obj
 0002:0000d9a0       $chain$6$?rgba_from_hsla_string@@YAHPEBDPEAF@Z 00000001800399a0     color.obj
 0002:0000d9b0       $unwind$?rgba_from_hsl_string@@YAHPEBDPEAF@Z 00000001800399b0     color.obj
 0002:0000d9bc       $chain$1$?rgba_from_hsl_string@@YAHPEBDPEAF@Z 00000001800399bc     color.obj
 0002:0000d9d4       $chain$3$?rgba_from_hsl_string@@YAHPEBDPEAF@Z 00000001800399d4     color.obj
 0002:0000d9ec       $chain$4$?rgba_from_hsl_string@@YAHPEBDPEAF@Z 00000001800399ec     color.obj
 0002:0000d9fc       $unwind$__acrt_initialize_fma3 00000001800399fc     libucrt:fma3_available.obj
 0002:0000d9fc       $unwind$?rgba_from_name_string@@YAHPEBDPEAF@Z 00000001800399fc     color.obj
 0002:0000da04       $unwind$??$parse_css_number@M@@YA_NPEAPEBDPEAM@Z 0000000180039a04     color.obj
 0002:0000da10       $chain$1$??$parse_css_number@M@@YA_NPEAPEBDPEAM@Z 0000000180039a10     color.obj
 0002:0000da28       $chain$3$??$parse_css_number@M@@YA_NPEAPEBDPEAM@Z 0000000180039a28     color.obj
 0002:0000da40       $unwind$??__F?constructor@Image@@2V?$Persistent@VFunctionTemplate@v8@@V?$NonCopyablePersistentTraits@VFunctionTemplate@v8@@@2@@Nan@@A@@YAXXZ 0000000180039a40     Image.obj
 0002:0000da50       $ip2state$??__F?constructor@Image@@2V?$Persistent@VFunctionTemplate@v8@@V?$NonCopyablePersistentTraits@VFunctionTemplate@v8@@@2@@Nan@@A@@YAXXZ 0000000180039a50     Image.obj
 0002:0000da58       $unwind$?Initialize@Image@@SAXV?$Local@VObject@v8@@@v8@@@Z 0000000180039a58     Image.obj
 0002:0000da74       $stateUnwindMap$?Initialize@Image@@SAXV?$Local@VObject@v8@@@v8@@@Z 0000000180039a74     Image.obj
 0002:0000daa0       $ip2state$?Initialize@Image@@SAXV?$Local@VObject@v8@@@v8@@@Z 0000000180039aa0     Image.obj
 0002:0000dae8       $unwind$?clearData@Image@@QEAAXXZ 0000000180039ae8     Image.obj
 0002:0000daf4       $chain$0$?clearData@Image@@QEAAXXZ 0000000180039af4     Image.obj
 0002:0000db08       $chain$1$?clearData@Image@@QEAAXXZ 0000000180039b08     Image.obj
 0002:0000db18       $unwind$?SetSource@Image@@SAXV?$Local@VString@v8@@@v8@@V?$Local@VValue@v8@@@3@AEBV?$PropertyCallbackInfo@X@Nan@@@Z 0000000180039b18     Image.obj
 0002:0000db30       $ip2state$?SetSource@Image@@SAXV?$Local@VString@v8@@@v8@@V?$Local@VValue@v8@@@3@AEBV?$PropertyCallbackInfo@X@Nan@@@Z 0000000180039b30     Image.obj
 0002:0000db48       $unwind$?SetOnload@Image@@SAXV?$Local@VString@v8@@@v8@@V?$Local@VValue@v8@@@3@AEBV?$PropertyCallbackInfo@X@Nan@@@Z 0000000180039b48     Image.obj
 0002:0000db60       $stateUnwindMap$?SetOnerror@Image@@SAXV?$Local@VString@v8@@@v8@@V?$Local@VValue@v8@@@3@AEBV?$PropertyCallbackInfo@X@Nan@@@Z 0000000180039b60     Image.obj
 0002:0000db60       $stateUnwindMap$?SetOnload@Image@@SAXV?$Local@VString@v8@@@v8@@V?$Local@VValue@v8@@@3@AEBV?$PropertyCallbackInfo@X@Nan@@@Z 0000000180039b60     Image.obj
 0002:0000db68       $ip2state$?SetOnload@Image@@SAXV?$Local@VString@v8@@@v8@@V?$Local@VValue@v8@@@3@AEBV?$PropertyCallbackInfo@X@Nan@@@Z 0000000180039b68     Image.obj
 0002:0000db80       $unwind$?SetOnerror@Image@@SAXV?$Local@VString@v8@@@v8@@V?$Local@VValue@v8@@@3@AEBV?$PropertyCallbackInfo@X@Nan@@@Z 0000000180039b80     Image.obj
 0002:0000db98       $ip2state$?SetOnerror@Image@@SAXV?$Local@VString@v8@@@v8@@V?$Local@VValue@v8@@@3@AEBV?$PropertyCallbackInfo@X@Nan@@@Z 0000000180039b98     Image.obj
 0002:0000dbb0       $unwind$??1Image@@EEAA@XZ  0000000180039bb0     Image.obj
 0002:0000dbc8       $stateUnwindMap$??1Image@@EEAA@XZ 0000000180039bc8     Image.obj
 0002:0000dbe0       $ip2state$??1Image@@EEAA@XZ 0000000180039be0     Image.obj
 0002:0000dc08       $unwind$?loaded@Image@@QEAAXXZ 0000000180039c08     Image.obj
 0002:0000dc1c       $stateUnwindMap$?loaded@Image@@QEAAXXZ 0000000180039c1c     Image.obj
 0002:0000dc28       $ip2state$?loaded@Image@@QEAAXXZ 0000000180039c28     Image.obj
 0002:0000dc40       $unwind$?loadSurface@Image@@QEAA?AW4_cairo_status@@XZ 0000000180039c40     Image.obj
 0002:0000dc54       $unwind$??__F?constructor@ImageData@@2V?$Persistent@VFunctionTemplate@v8@@V?$NonCopyablePersistentTraits@VFunctionTemplate@v8@@@2@@Nan@@A@@YAXXZ 0000000180039c54     ImageData.obj
 0002:0000dc68       $ip2state$??__F?constructor@ImageData@@2V?$Persistent@VFunctionTemplate@v8@@V?$NonCopyablePersistentTraits@VFunctionTemplate@v8@@@2@@Nan@@A@@YAXXZ 0000000180039c68     ImageData.obj
 0002:0000dc70       $unwind$?Initialize@ImageData@@SAXV?$Local@VObject@v8@@@v8@@@Z 0000000180039c70     ImageData.obj
 0002:0000dc90       $ip2state$?Initialize@ImageData@@SAXV?$Local@VObject@v8@@@v8@@@Z 0000000180039c90     ImageData.obj
 0002:0000dcc8       $unwind$?New@ImageData@@SAXAEBV?$FunctionCallbackInfo@VValue@v8@@@Nan@@@Z 0000000180039cc8     ImageData.obj
 0002:0000dcdc       $unwind$_raise_excf        0000000180039cdc     libucrt:fpexcept.obj
 0002:0000dcdc       $unwind$?__scrt_throw_std_bad_array_new_length@@YAXXZ 0000000180039cdc     LIBCMT:throw_bad_alloc.obj
 0002:0000dcdc       $unwind$?__scrt_throw_std_bad_alloc@@YAXXZ 0000000180039cdc     LIBCMT:throw_bad_alloc.obj
 0002:0000dcdc       $unwind$?_Xlength_error@std@@YAXPEBD@Z 0000000180039cdc     libcpmt:xthrow.obj
 0002:0000dcdc       $unwind$_raise_exc         0000000180039cdc     libucrt:fpexcept.obj
 0002:0000dcdc       $unwind$?_Xbad_alloc@std@@YAXXZ 0000000180039cdc     libcpmt:xthrow.obj
 0002:0000dcdc       $unwind$__dcrt_lowio_initialize_console_output 0000000180039cdc     libucrt:initcon.obj
 0002:0000dce4       $unwind$wcstol             0000000180039ce4     libucrt:strtox.obj
 0002:0000dce4       $unwind$strtol             0000000180039ce4     libucrt:strtox.obj
 0002:0000dce4       $unwind$??$common_xtox_s@K_W@@YAHKQEA_W_KI_N@Z 0000000180039ce4     libucrt:xtoa.obj
 0002:0000dce4       $unwind$??0length_error@std@@QEAA@PEBD@Z 0000000180039ce4     libcpmt:xthrow.obj
 0002:0000dcf0       $xdatasym                  0000000180039cf0     LIBCMT:_amdsecgs_.obj
 0002:0000dcf4       $unwind$__scrt_is_nonwritable_in_current_image 0000000180039cf4     LIBCMT:utility.obj
 0002:0000dd14       $unwind$__scrt_is_nonwritable_in_current_image$filt$0 0000000180039d14     LIBCMT:utility.obj
 0002:0000dd1c       $unwind$__scrt_initialize_onexit_tables 0000000180039d1c     LIBCMT:utility.obj
 0002:0000dd28       $unwind$?dllmain_crt_process_attach@@YAHQEAUHINSTANCE__@@QEAX@Z 0000000180039d28     LIBCMT:dll_dllmain.obj
 0002:0000dd54       $unwind$?dllmain_crt_process_detach@@YAH_N@Z 0000000180039d54     LIBCMT:dll_dllmain.obj
 0002:0000dd7c       $unwind$?dllmain_dispatch@@YAHQEAUHINSTANCE__@@KQEAX@Z 0000000180039d7c     LIBCMT:dll_dllmain.obj
 0002:0000dda4       $unwind$fread_s$fin$0      0000000180039da4     libucrt:fread.obj
 0002:0000dda4       $unwind$?filt$0@?0??dllmain_dispatch@@YAHQEAUHINSTANCE__@@KQEAX@Z@4HA 0000000180039da4     LIBCMT:dll_dllmain.obj
 0002:0000ddac       $unwind$__report_securityfailure 0000000180039dac     LIBCMT:gs_report.obj
 0002:0000ddb4       $unwind$__report_gsfailure 0000000180039db4     LIBCMT:gs_report.obj
 0002:0000ddb4       $unwind$_putwch_nolock     0000000180039db4     libucrt:putwch.obj
 0002:0000ddbc       $unwind$capture_current_context 0000000180039dbc     LIBCMT:gs_report.obj
 0002:0000ddc8       $unwind$capture_previous_context 0000000180039dc8     LIBCMT:gs_report.obj
 0002:0000ddd4       $unwind$__isa_available_init 0000000180039dd4     LIBCMT:_cpu_disp_.obj
 0002:0000dde4       $unwind$__scrt_fastfail    0000000180039de4     LIBCMT:utility_desktop.obj
 0002:0000ddf4       $unwind$__security_init_cookie 0000000180039df4     LIBCMT:gs_support.obj
 0002:0000de00       $xdatasym                  0000000180039e00     LIBCMT:_guard_dispatch_.obj
 0002:0000de04       $unwind$__CxxCallCatchBlock 0000000180039e04     libvcruntime:frame.obj
 0002:0000de40       $unwind$__CxxCallCatchBlock$fin$1 0000000180039e40     libvcruntime:frame.obj
 0002:0000de4c       $unwind$__FrameUnwindToState 0000000180039e4c     libvcruntime:frame.obj
 0002:0000de88       $unwind$?FindHandler@@YAXPEAUEHExceptionRecord@@PEA_KPEAU_CONTEXT@@PEAU_xDISPATCHER_CONTEXT@@PEBU_s_FuncInfo@@EH1@Z 0000000180039e88     libvcruntime:frame.obj
 0002:0000dea8       $unwind$?CatchIt@@YAXPEAUEHExceptionRecord@@PEA_KPEAU_CONTEXT@@PEAU_xDISPATCHER_CONTEXT@@PEBU_s_FuncInfo@@PEBU_s_HandlerType@@PEBU_s_CatchableType@@PEBU_s_TryBlockMapEntry@@H1EE@Z 0000000180039ea8     libvcruntime:frame.obj
 0002:0000dec0       $unwind$__BuildCatchObject 0000000180039ec0     libvcruntime:frame.obj
 0002:0000deec       $unwind$?FindHandlerForForeignException@@YAXPEAUEHExceptionRecord@@PEA_KPEAU_CONTEXT@@PEAU_xDISPATCHER_CONTEXT@@PEBU_s_FuncInfo@@HH1@Z 0000000180039eec     libvcruntime:frame.obj
 0002:0000df04       $unwind$__DestructExceptionObject 0000000180039f04     libvcruntime:frame.obj
 0002:0000df28       $unwind$__BuildCatchObjectHelper 0000000180039f28     libvcruntime:frame.obj
 0002:0000df68       $unwind$strstr             0000000180039f68     libvcruntime:strstr.obj
 0002:0000df78       $unwind$_CxxThrowException 0000000180039f78     libvcruntime:throw.obj
 0002:0000df8c       $unwind$__InternalCxxFrameHandler 0000000180039f8c     libvcruntime:frame.obj
 0002:0000df8c       $unwind$__C_specific_handler 0000000180039f8c     libvcruntime:_chandler_.obj
 0002:0000dfa8       $xdatasym                  0000000180039fa8     libvcruntime:memset.obj
 0002:0000dfb0       $xdatasym                  0000000180039fb0     libvcruntime:_longjmp_.obj
 0002:0000dfb8       $xdatasym                  0000000180039fb8     libvcruntime:memcpy.obj
 0002:0000dfc0       $xdatasym                  0000000180039fc0     libvcruntime:handlers.obj
 0002:0000dfc8       $unwind$?_GetEstablisherFrame@@YAPEA_KPEA_KPEAU_xDISPATCHER_CONTEXT@@PEBU_s_FuncInfo@@0@Z 0000000180039fc8     libvcruntime:trnsctrl.obj
 0002:0000dfe0       $unwind$?__FrameUnwindToEmptyState@@YAXPEA_KPEAU_xDISPATCHER_CONTEXT@@PEBU_s_FuncInfo@@@Z 0000000180039fe0     libvcruntime:trnsctrl.obj
 0002:0000dff4       $unwind$_CallSETranslator  0000000180039ff4     libvcruntime:trnsctrl.obj
 0002:0000e018       $unwind$?fin$0@?0???$common_sopen_dispatch@D@@YAHQEBDHHHQEAHH@Z@4HA 000000018003a018     libucrt:open.obj
 0002:0000e018       $unwind$_CallSETranslator$filt$0 000000018003a018     libvcruntime:trnsctrl.obj
 0002:0000e020       $unwind$?write_string@?$string_output_adapter@D@__crt_stdio_output@@QEBAXQEBDHQEAH1@Z 000000018003a020     libucrt:output.obj
 0002:0000e020       $unwind$??$parse_command_line@D@@YAXPEADPEAPEAD0PEA_K2@Z 000000018003a020     libucrt:argv_parsing.obj
 0002:0000e020       $unwind$??R<lambda_4e60a939b0d047cfe11ddc22648dfba9>@@QEBAHXZ 000000018003a020     libucrt:onexit.obj
 0002:0000e020       $unwind$?_GetRangeOfTrysToCheck@@YAPEBU_s_TryBlockMapEntry@@PEA_KPEBU_s_FuncInfo@@HHPEAI2PEAU_xDISPATCHER_CONTEXT@@@Z 000000018003a020     libvcruntime:trnsctrl.obj
 0002:0000e03c       $unwind$_UnwindNestedFrames 000000018003a03c     libvcruntime:trnsctrl.obj
 0002:0000e050       $unwind$__CxxFrameHandler3 000000018003a050     libvcruntime:trnsctrl.obj
 0002:0000e060       $unwind$?__SehTransFilter@@YAHPEAU_EXCEPTION_POINTERS@@PEAUEHExceptionRecord@@PEA_KPEAU_CONTEXT@@PEAU_xDISPATCHER_CONTEXT@@PEBU_s_FuncInfo@@PEAH@Z 000000018003a060     libvcruntime:trnsctrl.obj
 0002:0000e060       $unwind$_strnicmp_l        000000018003a060     libucrt:strnicmp.obj
 0002:0000e078       $xdatasym                  000000018003a078     libvcruntime:_jmpuwind_.obj
 0002:0000e08c       $unwind$fwprintf           000000018003a08c     libucrt:assert.obj
 0002:0000e098       $unwind$??$common_assert_to_stderr@_W@@YAXQEB_W0I@Z 000000018003a098     libucrt:assert.obj
 0002:0000e0b4       $unwind$??$common_assert_to_message_box@_W@@YAXQEB_W0IQEAX@Z 000000018003a0b4     libucrt:assert.obj
 0002:0000e0d0       $unwind$??$common_assert_to_message_box_build_string@_W@@YAXQEA_W_KQEB_W2IQEAX@Z 000000018003a0d0     libucrt:assert.obj
 0002:0000e0f0       $unwind$__acrt_call_reportfault 000000018003a0f0     libucrt:invalid_parameter.obj
 0002:0000e110       $unwind$_invalid_parameter 000000018003a110     libucrt:invalid_parameter.obj
 0002:0000e128       $unwind$__stdio_common_vfwprintf 000000018003a128     libucrt:output.obj
 0002:0000e130       $unwind$__stdio_common_vswprintf 000000018003a130     libucrt:output.obj
 0002:0000e130       $unwind$__stdio_common_vsprintf 000000018003a130     libucrt:output.obj
 0002:0000e154       $unwind$?write_string@?$stream_output_adapter@_W@__crt_stdio_output@@QEBAXQEB_WHQEAH1@Z 000000018003a154     libucrt:output.obj
 0002:0000e16c       $unwind$?process@?$output_processor@_WV?$stream_output_adapter@_W@__crt_stdio_output@@V?$standard_base@_WV?$stream_output_adapter@_W@__crt_stdio_output@@@2@@__crt_stdio_output@@QEAAHXZ 000000018003a16c     libucrt:output.obj
 0002:0000e184       $unwind$?state_case_type@?$output_processor@_WV?$string_output_adapter@_W@__crt_stdio_output@@V?$standard_base@_WV?$string_output_adapter@_W@__crt_stdio_output@@@2@@__crt_stdio_output@@AEAA_NXZ 000000018003a184     libucrt:output.obj
 0002:0000e184       $unwind$?state_case_type@?$output_processor@_WV?$stream_output_adapter@_W@__crt_stdio_output@@V?$standard_base@_WV?$stream_output_adapter@_W@__crt_stdio_output@@@2@@__crt_stdio_output@@AEAA_NXZ 000000018003a184     libucrt:output.obj
 0002:0000e1a8       $unwind$?write_stored_string_tchar@?$output_processor@_WV?$stream_output_adapter@_W@__crt_stdio_output@@V?$standard_base@_WV?$stream_output_adapter@_W@__crt_stdio_output@@@2@@__crt_stdio_output@@AEAA_N_W@Z 000000018003a1a8     libucrt:output.obj
 0002:0000e1bc       $unwind$??R<lambda_dd75445284c072d0bd3768540cc698fa>@@QEBAHXZ 000000018003a1bc     libucrt:output.obj
 0002:0000e1d8       $unwind$?process@?$output_processor@DV?$string_output_adapter@D@__crt_stdio_output@@V?$standard_base@DV?$string_output_adapter@D@__crt_stdio_output@@@2@@__crt_stdio_output@@QEAAHXZ 000000018003a1d8     libucrt:output.obj
 0002:0000e1e8       $unwind$?parse_int_from_format_string@?$output_processor@DV?$string_output_adapter@D@__crt_stdio_output@@V?$standard_base@DV?$string_output_adapter@D@__crt_stdio_output@@@2@@__crt_stdio_output@@AEAA_NQEAH@Z 000000018003a1e8     libucrt:output.obj
 0002:0000e1fc       $unwind$?write_stored_string_tchar@?$output_processor@DV?$string_output_adapter@D@__crt_stdio_output@@V?$standard_base@DV?$string_output_adapter@D@__crt_stdio_output@@@2@@__crt_stdio_output@@AEAA_ND@Z 000000018003a1fc     libucrt:output.obj
 0002:0000e214       $unwind$?IsInExceptionSpec@@YAEPEAUEHExceptionRecord@@PEBU_s_ESTypeList@@@Z 000000018003a214     libvcruntime:frame.obj
 0002:0000e214       $unwind$?write_string@?$string_output_adapter@_W@__crt_stdio_output@@QEBAXQEB_WHQEAH1@Z 000000018003a214     libucrt:output.obj
 0002:0000e214       $unwind$?try_get_function@@YAPEAXW4function_id@?A0x679b24ab@@QEBDQEBW4module_id@2@2@Z 000000018003a214     libvcruntime:winapi_downlevel.obj
 0002:0000e214       $unwind$?try_get_function@@YAPEAXW4function_id@?A0x63058377@@QEBDQEBW4module_id@2@2@Z 000000018003a214     libucrt:winapi_thunks.obj
 0002:0000e230       $unwind$?parse_int_from_format_string@?$output_processor@_WV?$stream_output_adapter@_W@__crt_stdio_output@@V?$standard_base@_WV?$stream_output_adapter@_W@__crt_stdio_output@@@2@@__crt_stdio_output@@AEAA_NQEAH@Z 000000018003a230     libucrt:output.obj
 0002:0000e230       $unwind$?parse_int_from_format_string@?$output_processor@_WV?$string_output_adapter@_W@__crt_stdio_output@@V?$standard_base@_WV?$string_output_adapter@_W@__crt_stdio_output@@@2@@__crt_stdio_output@@AEAA_NQEAH@Z 000000018003a230     libucrt:output.obj
 0002:0000e244       $unwind$?type_case_a@?$output_processor@_WV?$stream_output_adapter@_W@__crt_stdio_output@@V?$standard_base@_WV?$stream_output_adapter@_W@__crt_stdio_output@@@2@@__crt_stdio_output@@AEAA_NXZ 000000018003a244     libucrt:output.obj
 0002:0000e244       $unwind$?type_case_a@?$output_processor@_WV?$string_output_adapter@_W@__crt_stdio_output@@V?$standard_base@_WV?$string_output_adapter@_W@__crt_stdio_output@@@2@@__crt_stdio_output@@AEAA_NXZ 000000018003a244     libucrt:output.obj
 0002:0000e254       $unwind$?write_stored_string_tchar@?$output_processor@_WV?$string_output_adapter@_W@__crt_stdio_output@@V?$standard_base@_WV?$string_output_adapter@_W@__crt_stdio_output@@@2@@__crt_stdio_output@@AEAA_N_W@Z 000000018003a254     libucrt:output.obj
 0002:0000e268       $unwind$??$write_multiple_characters@V?$stream_output_adapter@_W@__crt_stdio_output@@D@__crt_stdio_output@@YAXAEBV?$stream_output_adapter@_W@0@DHQEAH@Z 000000018003a268     libucrt:output.obj
 0002:0000e280       $unwind$??$type_case_integer_parse_into_buffer@_K@?$output_processor@_WV?$string_output_adapter@_W@__crt_stdio_output@@V?$standard_base@_WV?$string_output_adapter@_W@__crt_stdio_output@@@2@@__crt_stdio_output@@AEAAX_KI_N@Z 000000018003a280     libucrt:output.obj
 0002:0000e280       $unwind$??$type_case_integer_parse_into_buffer@I@?$output_processor@DV?$string_output_adapter@D@__crt_stdio_output@@V?$standard_base@DV?$string_output_adapter@D@__crt_stdio_output@@@2@@__crt_stdio_output@@AEAAXII_N@Z 000000018003a280     libucrt:output.obj
 0002:0000e280       $unwind$??$type_case_integer_parse_into_buffer@I@?$output_processor@_WV?$string_output_adapter@_W@__crt_stdio_output@@V?$standard_base@_WV?$string_output_adapter@_W@__crt_stdio_output@@@2@@__crt_stdio_output@@AEAAXII_N@Z 000000018003a280     libucrt:output.obj
 0002:0000e280       $unwind$??$write_multiple_characters@V?$string_output_adapter@D@__crt_stdio_output@@D@__crt_stdio_output@@YAXAEBV?$string_output_adapter@D@0@DHQEAH@Z 000000018003a280     libucrt:output.obj
 0002:0000e280       $unwind$??$type_case_integer_parse_into_buffer@_K@?$output_processor@DV?$string_output_adapter@D@__crt_stdio_output@@V?$standard_base@DV?$string_output_adapter@D@__crt_stdio_output@@@2@@__crt_stdio_output@@AEAAX_KI_N@Z 000000018003a280     libucrt:output.obj
 0002:0000e280       $unwind$??$type_case_integer_parse_into_buffer@I@?$output_processor@_WV?$stream_output_adapter@_W@__crt_stdio_output@@V?$standard_base@_WV?$stream_output_adapter@_W@__crt_stdio_output@@@2@@__crt_stdio_output@@AEAAXII_N@Z 000000018003a280     libucrt:output.obj
 0002:0000e280       $unwind$??$type_case_integer_parse_into_buffer@_K@?$output_processor@_WV?$stream_output_adapter@_W@__crt_stdio_output@@V?$standard_base@_WV?$stream_output_adapter@_W@__crt_stdio_output@@@2@@__crt_stdio_output@@AEAAX_KI_N@Z 000000018003a280     libucrt:output.obj
 0002:0000e288       $unwind$??$write_multiple_characters@V?$string_output_adapter@_W@__crt_stdio_output@@D@__crt_stdio_output@@YAXAEBV?$string_output_adapter@_W@0@DHQEAH@Z 000000018003a288     libucrt:output.obj
 0002:0000e294       $unwind$??$?RV<lambda_7b91131dde12e1c3dfc74ff76b3f2eac>@@AEAV<lambda_dd75445284c072d0bd3768540cc698fa>@@V<lambda_16bc4ecb55b4718497c16bceaea2ceaf>@@@?$__crt_seh_guarded_call@H@@QEAAH$$QEAV<lambda_7b91131dde12e1c3dfc74ff76b3f2eac>@@AEAV<lambda_dd75445284c072d0bd3768540cc698fa>@@$$QEAV<lambda_16bc4ecb55b4718497c16bceaea2ceaf>@@@Z 000000018003a294     libucrt:output.obj
 0002:0000e2b8       $unwind$??$common_fsopen@D@@YAPEAU_iobuf@@QEBD0H@Z 000000018003a2b8     libucrt:fopen.obj
 0002:0000e2e0       $unwind$fclose             000000018003a2e0     libucrt:fclose.obj
 0002:0000e304       $unwind$?common_fseek_binary_mode_read_only_fast_track_nolock@@YA_NV__crt_stdio_stream@@_JH@Z 000000018003a304     libucrt:fseek.obj
 0002:0000e310       $unwind$?common_fseek@@YAHV__crt_stdio_stream@@_JH@Z 000000018003a310     libucrt:fseek.obj
 0002:0000e334       $unwind$fread_s            000000018003a334     libucrt:fread.obj
 0002:0000e364       $unwind$_fread_nolock_s    000000018003a364     libucrt:fread.obj
 0002:0000e37c       $unwind$_query_new_handler 000000018003a37c     libucrt:new_handler.obj
 0002:0000e39c       $unwind$?common_exit@@YAXHW4_crt_exit_cleanup_mode@@W4_crt_exit_return_mode@@@Z 000000018003a39c     libucrt:exit.obj
 0002:0000e3dc       $unwind$_configure_narrow_argv 000000018003a3dc     libucrt:argv_parsing.obj
 0002:0000e3f0       $unwind$_register_onexit_function 000000018003a3f0     libucrt:onexit.obj
 0002:0000e3f8       $unwind$_execute_onexit_table 000000018003a3f8     libucrt:onexit.obj
 0002:0000e400       $unwind$??$?RV<lambda_b8c45f8f788dd370798f47cfe8ac3a86>@@AEAV<lambda_4e60a939b0d047cfe11ddc22648dfba9>@@V<lambda_332c3edc96d0294ec56c57d38c1cdfd5>@@@?$__crt_seh_guarded_call@H@@QEAAH$$QEAV<lambda_b8c45f8f788dd370798f47cfe8ac3a86>@@AEAV<lambda_4e60a939b0d047cfe11ddc22648dfba9>@@$$QEAV<lambda_332c3edc96d0294ec56c57d38c1cdfd5>@@@Z 000000018003a400     libucrt:onexit.obj
 0002:0000e424       $unwind$??$?RV<lambda_e24bbb7b643b32fcea6fa61b31d4c984>@@AEAV<lambda_275893d493268fdec8709772e3fcec0e>@@V<lambda_9d71df4d7cf3f480f8d633942495c3b0>@@@?$__crt_seh_guarded_call@H@@QEAAH$$QEAV<lambda_e24bbb7b643b32fcea6fa61b31d4c984>@@AEAV<lambda_275893d493268fdec8709772e3fcec0e>@@$$QEAV<lambda_9d71df4d7cf3f480f8d633942495c3b0>@@@Z 000000018003a424     libucrt:onexit.obj
 0002:0000e454       $unwind$terminate          000000018003a454     libucrt:terminate.obj
 0002:0000e474       $unwind$_strdup            000000018003a474     libucrt:strdup.obj
 0002:0000e484       $unwind$??$parse_integer@KV?$c_string_character_source@D@__crt_strtox@@@__crt_strtox@@YAKQEAU__crt_locale_pointers@@V?$c_string_character_source@D@0@H_N@Z 000000018003a484     libucrt:atox.obj
 0002:0000e4a0       $unwind$??$parse_integer@KV?$c_string_character_source@_W@__crt_strtox@@@__crt_strtox@@YAKQEAU__crt_locale_pointers@@V?$c_string_character_source@_W@0@H_N@Z 000000018003a4a0     libucrt:atox.obj
 0002:0000e4bc       $unwind$__acrt_show_wide_message_box 000000018003a4bc     libucrt:crtmbox.obj
 0002:0000e4bc       $unwind$__acrt_LCMapStringEx 000000018003a4bc     libucrt:winapi_thunks.obj
 0002:0000e4bc       $unwind$_mbtowc_l          000000018003a4bc     libucrt:mbtowc.obj
 0002:0000e4d4       $unwind$fflush             000000018003a4d4     libucrt:fflush.obj
 0002:0000e4f8       $unwind$common_flush_all   000000018003a4f8     libucrt:fflush.obj
 0002:0000e534       $unwind$setvbuf            000000018003a534     libucrt:setvbuf.obj
 0002:0000e53c       $unwind$??$?RV<lambda_7a5ef57ff966f610505f1d28a3d40618>@@AEAV<lambda_b721fa326cdb32351d23dfa67958c160>@@V<lambda_5e0fb27672408a07956fe59e48ccb2aa>@@@?$__crt_seh_guarded_call@H@@QEAAH$$QEAV<lambda_7a5ef57ff966f610505f1d28a3d40618>@@AEAV<lambda_b721fa326cdb32351d23dfa67958c160>@@$$QEAV<lambda_5e0fb27672408a07956fe59e48ccb2aa>@@@Z 000000018003a53c     libucrt:setvbuf.obj
 0002:0000e560       $unwind$__acrt_get_sigabrt_handler 000000018003a560     libucrt:signal.obj
 0002:0000e568       $unwind$raise              000000018003a568     libucrt:signal.obj
 0002:0000e594       $unwind$??$?RV<lambda_c36588078e9f5dfd39652860aa6b3aaf>@@AEAV<lambda_ec61778202f4f5fc7e7711acc23c3bca>@@V<lambda_dc9d2797ccde5d239b4a0efae8ebd7db>@@@?$__crt_seh_guarded_call@P6AXH@Z@@QEAAP6AXH@Z$$QEAV<lambda_c36588078e9f5dfd39652860aa6b3aaf>@@AEAV<lambda_ec61778202f4f5fc7e7711acc23c3bca>@@$$QEAV<lambda_dc9d2797ccde5d239b4a0efae8ebd7db>@@@Z 000000018003a594     libucrt:signal.obj
 0002:0000e5b8       $unwind$_call_matherr      000000018003a5b8     libucrt:libm_error.obj
 0002:0000e5c0       $unwind$_handle_errorf     000000018003a5c0     libucrt:libm_error.obj
 0002:0000e5c0       $unwind$_handle_error      000000018003a5c0     libucrt:libm_error.obj
 0002:0000e5e0       $unwind$?construct_ptd_array@@YAXQEAU__acrt_ptd@@@Z 000000018003a5e0     libucrt:per_thread_data.obj
 0002:0000e5e8       $unwind$?destroy_ptd_array@@YAXQEAU__acrt_ptd@@@Z 000000018003a5e8     libucrt:per_thread_data.obj
 0002:0000e5f0       $unwind$??$?RV<lambda_72d1df2b273a38828b1ce30cbf4cdab5>@@AEAV<lambda_876a65b173b8412d3a47c70a915b0cf4>@@V<lambda_41932305e351933ebe8f8be3ed8bb5dc>@@@?$__crt_seh_guarded_call@X@@QEAAX$$QEAV<lambda_72d1df2b273a38828b1ce30cbf4cdab5>@@AEAV<lambda_876a65b173b8412d3a47c70a915b0cf4>@@$$QEAV<lambda_41932305e351933ebe8f8be3ed8bb5dc>@@@Z 000000018003a5f0     libucrt:per_thread_data.obj
 0002:0000e614       $unwind$??$?RV<lambda_5e887d1dcbef67a5eb4283622ba103bf>@@AEAV<lambda_4466841279450cc726390878d4a41900>@@V<lambda_341c25c0346d94847f1f3c463c57e077>@@@?$__crt_seh_guarded_call@X@@QEAAX$$QEAV<lambda_5e887d1dcbef67a5eb4283622ba103bf>@@AEAV<lambda_4466841279450cc726390878d4a41900>@@$$QEAV<lambda_341c25c0346d94847f1f3c463c57e077>@@@Z 000000018003a614     libucrt:per_thread_data.obj
 0002:0000e638       $unwind$??$?RV<lambda_46352004c1216016012b18bd6f87e700>@@AEAV<lambda_3bd07e1a1191394380780325891bf33f>@@V<lambda_334532d3f185bcaa59b5be82d7d22bff>@@@?$__crt_seh_guarded_call@X@@QEAAX$$QEAV<lambda_46352004c1216016012b18bd6f87e700>@@AEAV<lambda_3bd07e1a1191394380780325891bf33f>@@$$QEAV<lambda_334532d3f185bcaa59b5be82d7d22bff>@@@Z 000000018003a638     libucrt:per_thread_data.obj
 0002:0000e65c       $unwind$??$?RV<lambda_fb3a7dec4e47f37f22dae91bb15c9095>@@AEAV<lambda_698284760c8add0bfb0756c19673e34b>@@V<lambda_dfb8eca1e75fef3034a8fb18dd509707>@@@?$__crt_seh_guarded_call@X@@QEAAX$$QEAV<lambda_fb3a7dec4e47f37f22dae91bb15c9095>@@AEAV<lambda_698284760c8add0bfb0756c19673e34b>@@$$QEAV<lambda_dfb8eca1e75fef3034a8fb18dd509707>@@@Z 000000018003a65c     libucrt:per_thread_data.obj
 0002:0000e680       $unwind$__acrt_initialize_winapi_thunks 000000018003a680     libucrt:winapi_thunks.obj
 0002:0000e688       $unwind$__acrt_is_interactive 000000018003a688     libucrt:winapi_thunks.obj
 0002:0000e69c       $unwind$_fcloseall         000000018003a69c     libucrt:closeall.obj
 0002:0000e6c0       $unwind$__acrt_initialize_lowio 000000018003a6c0     libucrt:ioinit.obj
 0002:0000e6e0       $unwind$?initialize_inherited_file_handles_nolock@@YAXXZ 000000018003a6e0     libucrt:ioinit.obj
 0002:0000e6fc       $unwind$?initialize_stdio_handles_nolock@@YAXXZ 000000018003a6fc     libucrt:ioinit.obj
 0002:0000e6fc       $unwind$_free_osfhnd       000000018003a6fc     libucrt:osfinfo.obj
 0002:0000e6fc       $unwind$__std_exception_copy 000000018003a6fc     libvcruntime:std_exception.obj
 0002:0000e710       $unwind$_tolower_l         000000018003a710     libucrt:tolower_toupper.obj
 0002:0000e720       $unwind$_wctomb_s_l        000000018003a720     libucrt:wctomb.obj
 0002:0000e730       $unwind$strnlen            000000018003a730     libucrt:strnlen.obj
 0002:0000e730       $unwind$wcsnlen            000000018003a730     libucrt:strnlen.obj
 0002:0000e738       $unwind$__acrt_fp_format   000000018003a738     libucrt:cvt.obj
 0002:0000e754       $unwind$?fp_format_nan_or_infinity@@YAHW4__acrt_fp_class@@_NPEAD_K1@Z 000000018003a754     libucrt:cvt.obj
 0002:0000e768       $unwind$?fp_format_e_internal@@YAHQEAD_KH_NIQEAU_strflt@@2QEAU__crt_locale_pointers@@@Z 000000018003a768     libucrt:cvt.obj
 0002:0000e780       $unwind$?fp_format_e@@YAHQEBNQEAD_K12H_NIQEAU__crt_locale_pointers@@@Z 000000018003a780     libucrt:cvt.obj
 0002:0000e780       $unwind$_sopen_nolock      000000018003a780     libucrt:open.obj
 0002:0000e794       $unwind$?fp_format_a@@YAHQEBNPEAD_KQEAD2H_NIQEAU__crt_locale_pointers@@@Z 000000018003a794     libucrt:cvt.obj
 0002:0000e7b0       $unwind$?fp_format_g@@YAHQEBNQEAD_K12H_NIQEAU__crt_locale_pointers@@@Z 000000018003a7b0     libucrt:cvt.obj
 0002:0000e7c4       $unwind$_fputwc_nolock     000000018003a7c4     libucrt:fputwc.obj
 0002:0000e7e0       $unwind$__vcrt_uninitialize_winapi_thunks 000000018003a7e0     libvcruntime:winapi_downlevel.obj
 0002:0000e7e0       $unwind$__acrt_stdio_end_temporary_buffering_nolock 000000018003a7e0     libucrt:_sftbuf.obj
 0002:0000e7e8       $unwind$__acrt_uninitialize_locale 000000018003a7e8     libucrt:wsetlocale.obj
 0002:0000e808       $unwind$?__acrt_stdio_allocate_stream@@YA?AV__crt_stdio_stream@@XZ 000000018003a808     libucrt:stream.obj
 0002:0000e828       $unwind$_openfile          000000018003a828     libucrt:openfile.obj
 0002:0000e83c       $unwind$_close             000000018003a83c     libucrt:close.obj
 0002:0000e83c       $unwind$_commit            000000018003a83c     libucrt:commit.obj
 0002:0000e844       $unwind$??$?RV<lambda_bfedae4ebbf01fab1bb6dcc6a9e276e0>@@AEAV<lambda_2fe9b910cf3cbf4a0ab98a02ba45b3ec>@@V<lambda_237c231691f317818eb88cc1d5d642d6>@@@?$__crt_seh_guarded_call@H@@QEAAH$$QEAV<lambda_bfedae4ebbf01fab1bb6dcc6a9e276e0>@@AEAV<lambda_2fe9b910cf3cbf4a0ab98a02ba45b3ec>@@$$QEAV<lambda_237c231691f317818eb88cc1d5d642d6>@@@Z 000000018003a844     libucrt:close.obj
 0002:0000e868       $unwind$?common_ftell_translated_utf8_nolock@@YA_JV__crt_stdio_stream@@_J@Z 000000018003a868     libucrt:ftell.obj
 0002:0000e88c       $unwind$?common_ftell_read_mode_nolock@@YA_JV__crt_stdio_stream@@_J1@Z 000000018003a88c     libucrt:ftell.obj
 0002:0000e8a8       $unwind$??$common_ftell_nolock@_J@@YA_JV__crt_stdio_stream@@@Z 000000018003a8a8     libucrt:ftell.obj
 0002:0000e8b4       $unwind$??$common_lseek@_J@@YA_JH_JH@Z 000000018003a8b4     libucrt:lseek.obj
 0002:0000e8e4       $unwind$_read              000000018003a8e4     libucrt:read.obj
 0002:0000e910       $unwind$_read_nolock       000000018003a910     libucrt:read.obj
 0002:0000e928       $unwind$?translate_ansi_or_utf8_nolock@@YAHHQEAD_KQEA_W1@Z 000000018003a928     libucrt:read.obj
 0002:0000e940       $unwind$??$translate_text_mode_nolock@_W@@YAHHQEA_W_K@Z 000000018003a940     libucrt:read.obj
 0002:0000e958       $unwind$??$common_expand_argv_wildcards@D@@YAHQEAPEADQEAPEAPEAD@Z 000000018003a958     libucrt:argv_wildcards.obj
 0002:0000e970       $unwind$??$copy_and_add_argument_to_buffer@D@@YAHQEBD0_KAEAV?$argument_list@D@?A0xca0879c4@@@Z 000000018003a970     libucrt:argv_wildcards.obj
 0002:0000e98c       $unwind$??$expand_argument_wildcards@D@@YAHQEAD0AEAV?$argument_list@D@?A0xca0879c4@@@Z 000000018003a98c     libucrt:argv_wildcards.obj
 0002:0000e9ac       $unwind$__acrt_update_thread_multibyte_data 000000018003a9ac     libucrt:mbctype.obj
 0002:0000e9d0       $unwind$_setmbcp_nolock    000000018003a9d0     libucrt:mbctype.obj
 0002:0000e9f0       $unwind$?setSBUpLow@@YAXPEAU__crt_multibyte_data@@@Z 000000018003a9f0     libucrt:mbctype.obj
 0002:0000ea0c       $unwind$?setmbcp_internal@@YAHH_N@Z 000000018003aa0c     libucrt:mbctype.obj
 0002:0000ea1c       $unwind$??$?RV<lambda_99476a1ad63dd22509b5d3e65b0ffc95>@@AEAV<lambda_ad1ced32f4ac17aa236e5ef05d6b3b7c>@@V<lambda_f7424dd8d45958661754dc4f2697e9c3>@@@?$__crt_seh_guarded_call@X@@QEAAX$$QEAV<lambda_99476a1ad63dd22509b5d3e65b0ffc95>@@AEAV<lambda_ad1ced32f4ac17aa236e5ef05d6b3b7c>@@$$QEAV<lambda_f7424dd8d45958661754dc4f2697e9c3>@@@Z 000000018003aa1c     libucrt:mbctype.obj
 0002:0000ea40       $unwind$?x_ismbbtype_l@@YAHPEAU__crt_locale_pointers@@IHH@Z 000000018003aa40     libucrt:ismbbyte.obj
 0002:0000ea50       $unwind$?fp_format_f_internal@@YAHQEAD_KHQEAU_strflt@@_NQEAU__crt_locale_pointers@@@Z 000000018003aa50     libucrt:cvt.obj
 0002:0000ea50       $unwind$__dcrt_get_narrow_environment_from_os 000000018003aa50     libucrt:get_environment_from_os.obj
 0002:0000ea68       $unwind$iswctype           000000018003aa68     libucrt:iswctype.obj
 0002:0000ea68       $unwind$__acrt_is_packaged_app 000000018003aa68     libucrt:winapi_thunks.obj
 0002:0000ea74       $unwind$_isctype_l         000000018003aa74     libucrt:isctype.obj
 0002:0000ea90       $unwind$??$?RV<lambda_b521505b218e5242e90febf6bfebc422>@@AEAV<lambda_6978c1fb23f02e42e1d9e99668cc68aa>@@V<lambda_314360699dd331753a4119843814e9a7>@@@?$__crt_seh_guarded_call@H@@QEAAH$$QEAV<lambda_b521505b218e5242e90febf6bfebc422>@@AEAV<lambda_6978c1fb23f02e42e1d9e99668cc68aa>@@$$QEAV<lambda_314360699dd331753a4119843814e9a7>@@@Z 000000018003aa90     libucrt:commit.obj
 0002:0000eab4       $unwind$_write             000000018003aab4     libucrt:write.obj
 0002:0000eae4       $unwind$_write_nolock      000000018003aae4     libucrt:write.obj
 0002:0000eafc       $unwind$?write_double_translated_ansi_nolock@@YA?AUwrite_result@?A0x9c548279@@HQEBDI@Z 000000018003aafc     libucrt:write.obj
 0002:0000eb1c       $unwind$?write_text_utf16le_nolock@@YA?AUwrite_result@?A0x9c548279@@HQEBDI@Z 000000018003ab1c     libucrt:write.obj
 0002:0000eb1c       $unwind$?write_text_ansi_nolock@@YA?AUwrite_result@?A0x9c548279@@HQEBDI@Z 000000018003ab1c     libucrt:write.obj
 0002:0000eb3c       $unwind$?write_text_utf8_nolock@@YA?AUwrite_result@?A0x9c548279@@HQEBDI@Z 000000018003ab3c     libucrt:write.obj
 0002:0000eb60       $unwind$??$common_refill_and_read_nolock@D@@YAHV__crt_stdio_stream@@@Z 000000018003ab60     libucrt:_filbuf.obj
 0002:0000eb60       $unwind$_raise_exc_ex      000000018003ab60     libucrt:fpexcept.obj
 0002:0000eb60       $unwind$?common_fseek_nolock@@YAHV__crt_stdio_stream@@_JH@Z 000000018003ab60     libucrt:fseek.obj
 0002:0000eb74       $unwind$_ctrlfp            000000018003ab74     libucrt:fpctrl.obj
 0002:0000eb9c       $unwind$__acrt_update_thread_locale_data 000000018003ab9c     libucrt:locale_refcounting.obj
 0002:0000ebc0       $unwind$?GetTableIndexFromLocaleName@@YAHPEB_W@Z 000000018003abc0     libucrt:lcidtoname_downlevel.obj
 0002:0000ebd8       $unwind$_alloc_osfhnd      000000018003abd8     libucrt:osfinfo.obj
 0002:0000ec08       $unwind$__acrt_lowio_destroy_handle_array 000000018003ac08     libucrt:osfinfo.obj
 0002:0000ec18       $unwind$__acrt_lowio_ensure_fh_exists 000000018003ac18     libucrt:osfinfo.obj
 0002:0000ec44       $unwind$_alloc_osfhnd$fin$0 000000018003ac44     libucrt:osfinfo.obj
 0002:0000ec44       $unwind$?fin$0@?0???$?RV<lambda_c36588078e9f5dfd39652860aa6b3aaf>@@AEAV<lambda_ec61778202f4f5fc7e7711acc23c3bca>@@V<lambda_dc9d2797ccde5d239b4a0efae8ebd7db>@@@?$__crt_seh_guarded_call@P6AXH@Z@@QEAAP6AXH@Z$$QEAV<lambda_c36588078e9f5dfd39652860aa6b3aaf>@@AEAV<lambda_ec61778202f4f5fc7e7711acc23c3bca>@@$$QEAV<lambda_dc9d2797ccde5d239b4a0efae8ebd7db>@@@Z@4HA 000000018003ac44     libucrt:signal.obj
 0002:0000ec44       $unwind$__CxxCallCatchBlock$filt$0 000000018003ac44     libvcruntime:frame.obj
 0002:0000ec44       $unwind$?fin$0@?0??dllmain_crt_process_attach@@YAHQEAUHINSTANCE__@@QEAX@Z@4HA 000000018003ac44     LIBCMT:dll_dllmain.obj
 0002:0000ec44       $unwind$?fin$0@?0???$?RV<lambda_b521505b218e5242e90febf6bfebc422>@@AEAV<lambda_6978c1fb23f02e42e1d9e99668cc68aa>@@V<lambda_314360699dd331753a4119843814e9a7>@@@?$__crt_seh_guarded_call@H@@QEAAH$$QEAV<lambda_b521505b218e5242e90febf6bfebc422>@@AEAV<lambda_6978c1fb23f02e42e1d9e99668cc68aa>@@$$QEAV<lambda_314360699dd331753a4119843814e9a7>@@@Z@4HA 000000018003ac44     libucrt:commit.obj
 0002:0000ec44       $unwind$?fin$0@?0???$?RV<lambda_72d1df2b273a38828b1ce30cbf4cdab5>@@AEAV<lambda_876a65b173b8412d3a47c70a915b0cf4>@@V<lambda_41932305e351933ebe8f8be3ed8bb5dc>@@@?$__crt_seh_guarded_call@X@@QEAAX$$QEAV<lambda_72d1df2b273a38828b1ce30cbf4cdab5>@@AEAV<lambda_876a65b173b8412d3a47c70a915b0cf4>@@$$QEAV<lambda_41932305e351933ebe8f8be3ed8bb5dc>@@@Z@4HA 000000018003ac44     libucrt:per_thread_data.obj
 0002:0000ec44       $unwind$__FrameUnwindToState$filt$0 000000018003ac44     libvcruntime:frame.obj
 0002:0000ec44       $unwind$__FrameUnwindToState$fin$1 000000018003ac44     libvcruntime:frame.obj
 0002:0000ec44       $unwind$?fin$0@?0??dllmain_crt_process_detach@@YAH_N@Z@4HA 000000018003ac44     LIBCMT:dll_dllmain.obj
 0002:0000ec44       $unwind$fflush$fin$0       000000018003ac44     libucrt:fflush.obj
 0002:0000ec44       $unwind$__acrt_update_thread_locale_data$fin$0 000000018003ac44     libucrt:locale_refcounting.obj
 0002:0000ec44       $unwind$__acrt_update_thread_multibyte_data$fin$0 000000018003ac44     libucrt:mbctype.obj
 0002:0000ec44       $unwind$?fin$0@?0???$?RV<lambda_bfedae4ebbf01fab1bb6dcc6a9e276e0>@@AEAV<lambda_2fe9b910cf3cbf4a0ab98a02ba45b3ec>@@V<lambda_237c231691f317818eb88cc1d5d642d6>@@@?$__crt_seh_guarded_call@H@@QEAAH$$QEAV<lambda_bfedae4ebbf01fab1bb6dcc6a9e276e0>@@AEAV<lambda_2fe9b910cf3cbf4a0ab98a02ba45b3ec>@@$$QEAV<lambda_237c231691f317818eb88cc1d5d642d6>@@@Z@4HA 000000018003ac44     libucrt:close.obj
 0002:0000ec44       $unwind$?fin$0@?0??common_fseek@@YAHV__crt_stdio_stream@@_JH@Z@4HA 000000018003ac44     libucrt:fseek.obj
 0002:0000ec44       $unwind$_query_new_handler$fin$0 000000018003ac44     libucrt:new_handler.obj
 0002:0000ec44       $unwind$?fin$0@?0???$common_lseek@_J@@YA_JH_JH@Z@4HA 000000018003ac44     libucrt:lseek.obj
 0002:0000ec44       $unwind$_IsNonwritableInCurrentImage$filt$0 000000018003ac44     LIBCMT:pesect.obj
 0002:0000ec44       $unwind$?fin$0@?0???$?RV<lambda_7a5ef57ff966f610505f1d28a3d40618>@@AEAV<lambda_b721fa326cdb32351d23dfa67958c160>@@V<lambda_5e0fb27672408a07956fe59e48ccb2aa>@@@?$__crt_seh_guarded_call@H@@QEAAH$$QEAV<lambda_7a5ef57ff966f610505f1d28a3d40618>@@AEAV<lambda_b721fa326cdb32351d23dfa67958c160>@@$$QEAV<lambda_5e0fb27672408a07956fe59e48ccb2aa>@@@Z@4HA 000000018003ac44     libucrt:setvbuf.obj
 0002:0000ec44       $unwind$?fin$0@?0???$common_fsopen@D@@YAPEAU_iobuf@@QEBD0H@Z@4HA 000000018003ac44     libucrt:fopen.obj
 0002:0000ec44       $unwind$common_flush_all$fin$0 000000018003ac44     libucrt:fflush.obj
 0002:0000ec44       $unwind$__acrt_uninitialize_locale$fin$0 000000018003ac44     libucrt:wsetlocale.obj
 0002:0000ec44       $unwind$common_control87$filt$0 000000018003ac44     libucrt:ieee.obj
 0002:0000ec44       $unwind$?fin$0@?0???$?RV<lambda_99476a1ad63dd22509b5d3e65b0ffc95>@@AEAV<lambda_ad1ced32f4ac17aa236e5ef05d6b3b7c>@@V<lambda_f7424dd8d45958661754dc4f2697e9c3>@@@?$__crt_seh_guarded_call@X@@QEAAX$$QEAV<lambda_99476a1ad63dd22509b5d3e65b0ffc95>@@AEAV<lambda_ad1ced32f4ac17aa236e5ef05d6b3b7c>@@$$QEAV<lambda_f7424dd8d45958661754dc4f2697e9c3>@@@Z@4HA 000000018003ac44     libucrt:mbctype.obj
 0002:0000ec44       $unwind$?fin$0@?0???$?RV<lambda_5e887d1dcbef67a5eb4283622ba103bf>@@AEAV<lambda_4466841279450cc726390878d4a41900>@@V<lambda_341c25c0346d94847f1f3c463c57e077>@@@?$__crt_seh_guarded_call@X@@QEAAX$$QEAV<lambda_5e887d1dcbef67a5eb4283622ba103bf>@@AEAV<lambda_4466841279450cc726390878d4a41900>@@$$QEAV<lambda_341c25c0346d94847f1f3c463c57e077>@@@Z@4HA 000000018003ac44     libucrt:per_thread_data.obj
 0002:0000ec44       $unwind$common_flush_all$fin$1 000000018003ac44     libucrt:fflush.obj
 0002:0000ec44       $unwind$__acrt_lowio_ensure_fh_exists$fin$0 000000018003ac44     libucrt:osfinfo.obj
 0002:0000ec44       $unwind$?filt$0@?0??common_exit@@YAXHW4_crt_exit_cleanup_mode@@W4_crt_exit_return_mode@@@Z@4HA 000000018003ac44     libucrt:exit.obj
 0002:0000ec44       $unwind$?fin$1@?0??common_exit@@YAXHW4_crt_exit_cleanup_mode@@W4_crt_exit_return_mode@@@Z@4HA 000000018003ac44     libucrt:exit.obj
 0002:0000ec44       $unwind$?fin$0@?0???$?RV<lambda_e24bbb7b643b32fcea6fa61b31d4c984>@@AEAV<lambda_275893d493268fdec8709772e3fcec0e>@@V<lambda_9d71df4d7cf3f480f8d633942495c3b0>@@@?$__crt_seh_guarded_call@H@@QEAAH$$QEAV<lambda_e24bbb7b643b32fcea6fa61b31d4c984>@@AEAV<lambda_275893d493268fdec8709772e3fcec0e>@@$$QEAV<lambda_9d71df4d7cf3f480f8d633942495c3b0>@@@Z@4HA 000000018003ac44     libucrt:onexit.obj
 0002:0000ec44       $unwind$_ctrlfp$filt$0     000000018003ac44     libucrt:fpctrl.obj
 0002:0000ec44       $unwind$?fin$0@?0???$?RV<lambda_b8c45f8f788dd370798f47cfe8ac3a86>@@AEAV<lambda_4e60a939b0d047cfe11ddc22648dfba9>@@V<lambda_332c3edc96d0294ec56c57d38c1cdfd5>@@@?$__crt_seh_guarded_call@H@@QEAAH$$QEAV<lambda_b8c45f8f788dd370798f47cfe8ac3a86>@@AEAV<lambda_4e60a939b0d047cfe11ddc22648dfba9>@@$$QEAV<lambda_332c3edc96d0294ec56c57d38c1cdfd5>@@@Z@4HA 000000018003ac44     libucrt:onexit.obj
 0002:0000ec44       $unwind$fclose$fin$0       000000018003ac44     libucrt:fclose.obj
 0002:0000ec44       $unwind$__DestructExceptionObject$filt$0 000000018003ac44     libvcruntime:frame.obj
 0002:0000ec44       $unwind$_fcloseall$fin$0   000000018003ac44     libucrt:closeall.obj
 0002:0000ec44       $unwind$?fin$0@?0??__acrt_stdio_allocate_stream@@YA?AV__crt_stdio_stream@@XZ@4HA 000000018003ac44     libucrt:stream.obj
 0002:0000ec44       $unwind$?fin$0@?0???$?RV<lambda_fb3a7dec4e47f37f22dae91bb15c9095>@@AEAV<lambda_698284760c8add0bfb0756c19673e34b>@@V<lambda_dfb8eca1e75fef3034a8fb18dd509707>@@@?$__crt_seh_guarded_call@X@@QEAAX$$QEAV<lambda_fb3a7dec4e47f37f22dae91bb15c9095>@@AEAV<lambda_698284760c8add0bfb0756c19673e34b>@@$$QEAV<lambda_dfb8eca1e75fef3034a8fb18dd509707>@@@Z@4HA 000000018003ac44     libucrt:per_thread_data.obj
 0002:0000ec44       $unwind$?fin$0@?0???$?RV<lambda_46352004c1216016012b18bd6f87e700>@@AEAV<lambda_3bd07e1a1191394380780325891bf33f>@@V<lambda_334532d3f185bcaa59b5be82d7d22bff>@@@?$__crt_seh_guarded_call@X@@QEAAX$$QEAV<lambda_46352004c1216016012b18bd6f87e700>@@AEAV<lambda_3bd07e1a1191394380780325891bf33f>@@$$QEAV<lambda_334532d3f185bcaa59b5be82d7d22bff>@@@Z@4HA 000000018003ac44     libucrt:per_thread_data.obj
 0002:0000ec44       $unwind$__acrt_initialize_lowio$fin$0 000000018003ac44     libucrt:ioinit.obj
 0002:0000ec44       $unwind$raise$fin$0        000000018003ac44     libucrt:signal.obj
 0002:0000ec44       $unwind$?fin$0@?0???$?RV<lambda_7b91131dde12e1c3dfc74ff76b3f2eac>@@AEAV<lambda_dd75445284c072d0bd3768540cc698fa>@@V<lambda_16bc4ecb55b4718497c16bceaea2ceaf>@@@?$__crt_seh_guarded_call@H@@QEAAH$$QEAV<lambda_7b91131dde12e1c3dfc74ff76b3f2eac>@@AEAV<lambda_dd75445284c072d0bd3768540cc698fa>@@$$QEAV<lambda_16bc4ecb55b4718497c16bceaea2ceaf>@@@Z@4HA 000000018003ac44     libucrt:output.obj
 0002:0000ec44       $unwind$_read$fin$0        000000018003ac44     libucrt:read.obj
 0002:0000ec44       $unwind$_write$fin$0       000000018003ac44     libucrt:write.obj
 0002:0000ec4c       $unwind$__acrt_LCMapStringA 000000018003ac4c     libucrt:lcmapstringa.obj
 0002:0000ec5c       $unwind$?__acrt_LCMapStringA_stat@@YAHPEAU__crt_locale_pointers@@PEB_WKPEBDHPEADHHH@Z 000000018003ac5c     libucrt:lcmapstringa.obj
 0002:0000ec84       $unwind$__acrt_fltout      000000018003ac84     libucrt:cfout.obj
 0002:0000eca4       $unwind$?divide@__crt_strtox@@YA_KAEAUbig_integer@1@AEBU21@@Z 000000018003aca4     libucrt:cfout.obj
 0002:0000ecc4       $chain$5$?divide@__crt_strtox@@YA_KAEAUbig_integer@1@AEBU21@@Z 000000018003acc4     libucrt:cfout.obj
 0002:0000ecd8       $chain$6$?divide@__crt_strtox@@YA_KAEAUbig_integer@1@AEBU21@@Z 000000018003acd8     libucrt:cfout.obj
 0002:0000ece8       $unwind$??$write_buffer_nolock@D@@YA_NDV__crt_stdio_stream@@@Z 000000018003ace8     libucrt:_flsbuf.obj
 0002:0000ecf8       $unwind$??$write_buffer_nolock@_W@@YA_N_WV__crt_stdio_stream@@@Z 000000018003acf8     libucrt:_flsbuf.obj
 0002:0000ed08       $unwind$__acrt_locale_free_monetary 000000018003ad08     libucrt:initmon.obj
 0002:0000ed10       $unwind$__acrt_locale_free_time 000000018003ad10     libucrt:inittime.obj
 0002:0000ed20       $unwind$__acrt_GetStringTypeA 000000018003ad20     libucrt:getstringtypea.obj
 0002:0000ed48       $xdatasym                  000000018003ad48     libucrt:strncmp.obj
 0002:0000ed4c       $unwind$_sopen_s           000000018003ad4c     libucrt:open.obj
 0002:0000ed4c       $unwind$_log10_special     000000018003ad4c     libucrt:log_special.obj
 0002:0000ed4c       $unwind$_invalid_parameter_noinfo_noreturn 000000018003ad4c     libucrt:invalid_parameter.obj
 0002:0000ed4c       $unwind$fread              000000018003ad4c     libucrt:fread.obj
 0002:0000ed4c       $unwind$_itow_s            000000018003ad4c     libucrt:xtoa.obj
 0002:0000ed4c       $unwind$_invalid_parameter_noinfo 000000018003ad4c     libucrt:invalid_parameter.obj
 0002:0000ed4c       $unwind$wctomb_s           000000018003ad4c     libucrt:wctomb.obj
 0002:0000ed54       $unwind$_wsopen_nolock     000000018003ad54     libucrt:open.obj
 0002:0000ed70       $unwind$??$common_sopen_dispatch@D@@YAHQEBDHHHQEAHH@Z 000000018003ad70     libucrt:open.obj
 0002:0000ed94       $unwind$?decode_options@@YA?AUfile_options@?A0x656cf9f4@@HHH@Z 000000018003ad94     libucrt:open.obj
 0002:0000eda8       $unwind$?state_case_type@?$output_processor@DV?$string_output_adapter@D@__crt_stdio_output@@V?$standard_base@DV?$string_output_adapter@D@__crt_stdio_output@@@2@@__crt_stdio_output@@AEAA_NXZ 000000018003ada8     libucrt:output.obj
 0002:0000eda8       $unwind$?configure_text_mode@@YAHHUfile_options@?A0x656cf9f4@@HAEAW4__crt_lowio_text_mode@@@Z 000000018003ada8     libucrt:open.obj
 0002:0000edc0       $unwind$qsort              000000018003adc0     libucrt:qsort.obj
 0002:0000edd8       $chain$4$qsort             000000018003add8     libucrt:qsort.obj
 0002:0000edfc       $chain$5$qsort             000000018003adfc     libucrt:qsort.obj
 0002:0000ee0c       $unwind$?shortsort@@YAXPEAD0_KP6AHPEBX2@Z@Z 000000018003ae0c     libucrt:qsort.obj
 0002:0000ee1c       $chain$2$?shortsort@@YAXPEAD0_KP6AHPEBX2@Z@Z 000000018003ae1c     libucrt:qsort.obj
 0002:0000ee38       $chain$3$?shortsort@@YAXPEAD0_KP6AHPEBX2@Z@Z 000000018003ae38     libucrt:qsort.obj
 0002:0000ee48       $unwind$strpbrk            000000018003ae48     libucrt:strpbrk.obj
 0002:0000ee58       $unwind$_mbsdec_l          000000018003ae58     libucrt:mbsdec.obj
 0002:0000ee68       $xdatasym                  000000018003ae68     libucrt:fpsr.obj
 0002:0000ee70       $xdatasym                  000000018003ae70     libucrt:log10.obj
 0002:0000ee7c       $unwind$_setmode_nolock    000000018003ae7c     libucrt:setmode.obj
 0002:0000ee8c       $unwind$??$create_environment@D@@YAQEAPEADQEAD@Z 000000018003ae8c     libucrt:environment_initialization.obj
 0002:0000ee8c       $unwind$__acrt_copy_path_to_wide_string 000000018003ae8c     libucrt:string_utilities.obj
 0002:0000eea4       $unwind$_chsize_nolock     000000018003aea4     libucrt:chsize.obj
 0002:0000eebc       $unwind$common_control87   000000018003aebc     libucrt:ieee.obj
 0002:0000eeec       $unwind$_log_special_common 000000018003aeec     libucrt:log_special.obj
 0002:0000eef8       $unwind$_IsNonwritableInCurrentImage 000000018003aef8     LIBCMT:pesect.obj
 0002:0000ef1c       $unwind$__GSHandlerCheckCommon 000000018003af1c     LIBCMT:_gshandler_.obj
 0002:0000ef28       $xdatasym                  000000018003af28     LIBCMT:_chkstk_.obj
 0002:0000ef30       $unwind$strrchr            000000018003af30     libvcruntime:strrchr.obj
 0002:0000ef38       $xdatasym                  000000018003af38     libvcruntime:memcmp.obj
 0002:0000ef3c       $unwind$__acrt_MessageBoxW 000000018003af3c     libucrt:winapi_thunks.obj
 0002:0000ef3c       $unwind$__TypeMatch        000000018003af3c     libvcruntime:frame.obj
 0002:0000ef3c       $unwind$__GSHandlerCheck_EH 000000018003af3c     LIBCMT:gshandlereh.obj
 0002:0000ef3c       $unwind$?process@?$output_processor@_WV?$string_output_adapter@_W@__crt_stdio_output@@V?$standard_base@_WV?$string_output_adapter@_W@__crt_stdio_output@@@2@@__crt_stdio_output@@QEAAHXZ 000000018003af3c     libucrt:output.obj
 0002:0000ef3c       $unwind$__acrt_initialize_stdio 000000018003af3c     libucrt:_file.obj
 0002:0000ef3c       $unwind$__acrt_lowio_set_os_handle 000000018003af3c     libucrt:osfinfo.obj
 0002:0000ef3c       $unwind$_initterm          000000018003af3c     libucrt:initterm.obj
 0002:0000ef58       $xdatasym                  000000018003af58     libvcruntime:_setjmp_.obj
 0002:0000ef60       $unwind$acos               000000018003af60     libucrt:acos.obj
 0002:0000ef6c       $unwind$acosf              000000018003af6c     libucrt:acosf.obj
 0002:0000ef78       $unwind$sqrtf              000000018003af78     libucrt:sqrtf.obj
 0002:0000ef78       $unwind$fmodf              000000018003af78     libucrt:fmodf.obj
 0002:0000ef80       $xdatasym                  000000018003af80     libucrt:strcmp.obj
 0002:0000ef88       $xdatasym                  000000018003af88     libucrt:tan.obj
 0002:0000efa4       $unwind$_sincos_special    000000018003afa4     libucrt:sincos_special.obj
 0002:0000efb0       $xdatasym                  000000018003afb0     libucrt:remainder_piby2_forfma3.obj
 0002:0000efc0       $xdatasym                  000000018003afc0     libucrt:remainder_piby2_forasm.obj
 0002:0000f1b0       .edata                     000000018003b1b0     canvas.exp
 0002:0000f1d8       rgpv                       000000018003b1d8     canvas.exp
 0002:0000f1dc       rgszName                   000000018003b1dc     canvas.exp
 0002:0000f1e0       rgwOrd                     000000018003b1e0     canvas.exp
 0002:0000f1e2       szName                     000000018003b1e2     canvas.exp
 0002:0000f1ee       $N00001                    000000018003b1ee     canvas.exp
 0002:0000fb62       .idata$6                   000000018003bb62     kernel32:KERNEL32.dll
 0002:000110b8       .idata$6                   000000018003d0b8     nw:nw.dll
 0002:000112ce       .idata$6                   000000018003d2ce     node:node.dll
 0002:00011b62       .idata$6                   000000018003db62     cairo:libcairo-2.dll
 0002:00011cea       .idata$6                   000000018003dcea     libpng:libpng14-14.dll
 0003:00000030       ?__vcrt_flsindex@@3KA      000000018003f030     libvcruntime:per_thread_data.obj
 0003:0000014c       errno_no_memory            000000018003f14c     libucrt:errno.obj
 0003:00000150       doserrno_no_memory         000000018003f150     libucrt:errno.obj
 0003:00000154       __acrt_flsindex            000000018003f154     libucrt:per_thread_data.obj
 0003:00000640       __rgctypeflag              000000018003f640     libucrt:mbctype.obj
 0003:00000650       __rgcode_page_info         000000018003f650     libucrt:mbctype.obj
 0003:00000958       ?dazSupported@?1??_ctrlfp@@9@9 000000018003f958     libucrt:fpctrl.obj
 0003:00000a08       ?dazSupported@?1??common_control87@@9@9 000000018003fa08     libucrt:ieee.obj
 0003:00000a20       _module                    000000018003fa20     init.obj
 0003:00000b90       ?module_local_atexit_table@@3U_onexit_table_t@@A 000000018003fb90     LIBCMT:utility.obj
 0003:00000ba8       ?module_local_at_quick_exit_table@@3U_onexit_table_t@@A 000000018003fba8     LIBCMT:utility.obj
 0003:00000bc0       ?is_initialized_as_dll@@3_NA 000000018003fbc0     LIBCMT:utility.obj
 0003:00000bc4       ?__proc_attached@@3HA      000000018003fbc4     LIBCMT:dll_dllmain.obj
 0003:00000bd0       GS_ExceptionRecord         000000018003fbd0     LIBCMT:gs_report.obj
 0003:00000c70       GS_ContextRecord           000000018003fc70     LIBCMT:gs_report.obj
 0003:00001170       ?__vcrt_startup_thread_ptd@@3U__vcrt_ptd@@A 0000000180040170     libvcruntime:per_thread_data.obj
 0003:000011e8       __vcrt_lock_table          00000001800401e8     libvcruntime:locks.obj
 0003:00001210       __vcrt_locks_initialized   0000000180040210     libvcruntime:locks.obj
 0003:00001220       ?module_handles@@3PAPEAUHINSTANCE__@@A 0000000180040220     libvcruntime:winapi_downlevel.obj
 0003:00001240       ?encoded_function_pointers@@3PAPEAXA 0000000180040240     libvcruntime:winapi_downlevel.obj
 0003:000012d8       ?heap@@3V_HeapManager@@A   00000001800402d8     libvcruntime:undname.obj
 0003:00001300       __acrt_invalid_parameter_handler 0000000180040300     libucrt:invalid_parameter.obj
 0003:00001320       __acrt_new_handler         0000000180040320     libucrt:new_handler.obj
 0003:00001328       c_termination_complete     0000000180040328     libucrt:exit.obj
 0003:00001330       thread_local_exit_callback_func 0000000180040330     libucrt:exit.obj
 0003:00001338       ?c_exit_complete@?5??common_exit@@YAXHW4_crt_exit_cleanup_mode@@W4_crt_exit_return_mode@@@Z@4_NA 0000000180040338     libucrt:exit.obj
 0003:00001340       ?program_name@?5???$common_configure_argv@D@@YAHW4_crt_argv_mode@@@Z@4PADA 0000000180040340     libucrt:argv_parsing.obj
 0003:00001498       __acrt_app_type            0000000180040498     libucrt:report_runtime_error.obj
 0003:0000149c       __acrt_error_mode          000000018004049c     libucrt:set_error_mode.obj
 0003:000014a0       ctrlc_action               00000001800404a0     libucrt:signal.obj
 0003:000014a8       ctrlbreak_action           00000001800404a8     libucrt:signal.obj
 0003:000014b0       abort_action               00000001800404b0     libucrt:signal.obj
 0003:000014b8       term_action                00000001800404b8     libucrt:signal.obj
 0003:000014c0       module_handles             00000001800404c0     libucrt:winapi_thunks.obj
 0003:00001560       encoded_function_pointers  0000000180040560     libucrt:winapi_thunks.obj
 0003:00001660       ?state_cache@?1??__acrt_is_packaged_app@@9@4JA 0000000180040660     libucrt:winapi_thunks.obj
 0003:00001a78       enable_percent_n           0000000180040a78     libucrt:printf_count_output.obj
 0003:00001aa0       __acrt_lock_table          0000000180040aa0     libucrt:locks.obj
 0003:00001ca8       __acrt_locks_initialized   0000000180040ca8     libucrt:locks.obj
 0003:00001cc4       fSystemSet                 0000000180040cc4     libucrt:mbctype.obj
 0003:00001cd0       ?initialized@?1??__acrt_initialize_multibyte@@9@4_NA 0000000180040cd0     libucrt:mbctype.obj
 0003:00001d08       user_matherr               0000000180040d08     libucrt:matherr.obj
 0003:00001d10       __acrt_global_new_mode     0000000180040d10     libucrt:new_mode.obj
 0003:00001d38       ?nw_dll@@3PEAUHINSTANCE__@@EA 0000000180040d38     win_delay_load_hook.obj
 0003:00001d40       ?node_dll@@3PEAUHINSTANCE__@@EA 0000000180040d40     win_delay_load_hook.obj
 0004:00000000       $pdata$?FunctionCallbackWrapper@imp@Nan@@YAXAEBV?$FunctionCallbackInfo@VValue@v8@@@v8@@@Z 0000000180041000     Canvas.obj
 0004:0000000c       $pdata$?GetterCallbackWrapper@imp@Nan@@YAXV?$Local@VName@v8@@@v8@@AEBV?$PropertyCallbackInfo@VValue@v8@@@4@@Z 000000018004100c     Canvas.obj
 0004:00000018       $pdata$?SetterCallbackWrapper@imp@Nan@@YAXV?$Local@VName@v8@@@v8@@V?$Local@VValue@v8@@@4@AEBV?$PropertyCallbackInfo@X@4@@Z 0000000180041018     Canvas.obj
 0004:00000024       $pdata$?NewInstance@Nan@@YA?AV?$MaybeLocal@VObject@v8@@@v8@@V?$Local@VObjectTemplate@v8@@@3@@Z 0000000180041024     Canvas.obj
 0004:00000030       $pdata$?Set@Nan@@YA?AV?$Maybe@_N@v8@@V?$Local@VObject@v8@@@3@V?$Local@VValue@v8@@@3@1@Z 0000000180041030     Canvas.obj
 0004:0000003c       $pdata$?Call@Nan@@YA?AV?$MaybeLocal@VValue@v8@@@v8@@V?$Local@VFunction@v8@@@3@V?$Local@VObject@v8@@@3@HQEAV?$Local@VValue@v8@@@3@@Z 000000018004103c     Canvas.obj
 0004:00000048       $pdata$?convert@?$ToFactory@VUint32@v8@@@imp@Nan@@SA?AV?$MaybeLocal@VUint32@v8@@@v8@@V?$Local@VValue@v8@@@5@@Z 0000000180041048     Canvas.obj
 0004:00000054       $pdata$?New@?$Factory@VFunctionTemplate@v8@@@imp@Nan@@SA?AV?$Local@VFunctionTemplate@v8@@@v8@@P6AXAEBV?$FunctionCallbackInfo@VValue@v8@@@3@@ZV?$Local@VValue@v8@@@5@V?$Local@VSignature@v8@@@5@@Z 0000000180041054     Canvas.obj
 0004:00000060       $pdata$?ThrowRangeError@Nan@@YAXPEBD@Z 0000000180041060     Canvas.obj
 0004:0000006c       $pdata$?ThrowTypeError@Nan@@YAXPEBD@Z 000000018004106c     Canvas.obj
 0004:00000078       $pdata$?Call@Callback@Nan@@QEBA?AV?$Local@VValue@v8@@@v8@@HQEAV34@@Z 0000000180041078     Canvas.obj
 0004:00000084       $pdata$?Call_@Callback@Nan@@AEBA?AV?$Local@VValue@v8@@@v8@@PEAVIsolate@4@V?$Local@VObject@v8@@@4@HQEAV34@@Z 0000000180041084     Canvas.obj
 0004:00000090       $pdata$??_GCallback@Nan@@QEAAPEAXI@Z 0000000180041090     Canvas.obj
 0004:0000009c       $pdata$?SetPrototypeMethod@Nan@@YAXV?$Local@VFunctionTemplate@v8@@@v8@@PEBDP6AXAEBV?$FunctionCallbackInfo@VValue@v8@@@1@@Z@Z 000000018004109c     Canvas.obj
 0004:000000a8       $pdata$?SetAccessor@Nan@@YAXV?$Local@VObjectTemplate@v8@@@v8@@V?$Local@VString@v8@@@3@P6AX1AEBV?$PropertyCallbackInfo@VValue@v8@@@1@@ZP6AX1V?$Local@VValue@v8@@@3@AEBV?$PropertyCallbackInfo@X@1@@Z4W4AccessControl@3@W4PropertyAttribute@3@V?$Local@VAccessorSignature@v8@@@3@@Z 00000001800410a8     Canvas.obj
 0004:000000b4       $pdata$??1ObjectWrap@Nan@@UEAA@XZ 00000001800410b4     Canvas.obj
 0004:000000c0       $pdata$?Wrap@ObjectWrap@Nan@@IEAAXV?$Local@VObject@v8@@@v8@@@Z 00000001800410c0     Canvas.obj
 0004:000000cc       $pdata$?Ref@ObjectWrap@Nan@@MEAAXXZ 00000001800410cc     Canvas.obj
 0004:000000d8       $pdata$?Unref@ObjectWrap@Nan@@MEAAXXZ 00000001800410d8     Canvas.obj
 0004:000000e4       $pdata$?WeakCallback@ObjectWrap@Nan@@CAXAEBV?$WeakCallbackInfo@VObjectWrap@Nan@@@v8@@@Z 00000001800410e4     Canvas.obj
 0004:000000f0       $pdata$??_GObjectWrap@Nan@@UEAAPEAXI@Z 00000001800410f0     Canvas.obj
 0004:000000f0       $pdata$??_GImageData@@UEAAPEAXI@Z 00000001800410f0     ImageData.obj
 0004:000000fc       $pdata$?closure_init@@YA?AW4_cairo_status@@PEAUclosure_t@@PEAVCanvas@@II@Z 00000001800410fc     Canvas.obj
 0004:00000108       $pdata$?closure_destroy@@YAXPEAUclosure_t@@@Z 0000000180041108     Canvas.obj
 0004:00000114       $pdata$?canvas_unpremultiply_data@@YAXPEAUpng_struct_def@@PEAUpng_row_info_struct@@PEAE@Z 0000000180041114     Canvas.obj
 0004:00000120       $pdata$0$?canvas_unpremultiply_data@@YAXPEAUpng_struct_def@@PEAUpng_row_info_struct@@PEAE@Z 0000000180041120     Canvas.obj
 0004:0000012c       $pdata$1$?canvas_unpremultiply_data@@YAXPEAUpng_struct_def@@PEAUpng_row_info_struct@@PEAE@Z 000000018004112c     Canvas.obj
 0004:00000138       $pdata$?canvas_write_png@@YA?AW4_cairo_status@@PEAU_cairo_surface@@P6AXPEAUpng_struct_def@@PEAE_K@ZPEAX@Z 0000000180041138     Canvas.obj
 0004:00000144       $pdata$?canvas_stream_write_func@@YAXPEAUpng_struct_def@@PEAE_K@Z 0000000180041144     Canvas.obj
 0004:00000150       $pdata$?Initialize@Canvas@@SAXV?$Local@VObject@v8@@@v8@@@Z 0000000180041150     Canvas.obj
 0004:0000015c       $pdata$?New@Canvas@@SAXAEBV?$FunctionCallbackInfo@VValue@v8@@@Nan@@@Z 000000018004115c     Canvas.obj
 0004:00000168       $pdata$?GetType@Canvas@@SAXV?$Local@VString@v8@@@v8@@AEBV?$PropertyCallbackInfo@VValue@v8@@@Nan@@@Z 0000000180041168     Canvas.obj
 0004:00000174       $pdata$?GetStride@Canvas@@SAXV?$Local@VString@v8@@@v8@@AEBV?$PropertyCallbackInfo@VValue@v8@@@Nan@@@Z 0000000180041174     Canvas.obj
 0004:00000180       $pdata$?GetWidth@Canvas@@SAXV?$Local@VString@v8@@@v8@@AEBV?$PropertyCallbackInfo@VValue@v8@@@Nan@@@Z 0000000180041180     Canvas.obj
 0004:00000180       $pdata$?GetWidth@ImageData@@SAXV?$Local@VString@v8@@@v8@@AEBV?$PropertyCallbackInfo@VValue@v8@@@Nan@@@Z 0000000180041180     ImageData.obj
 0004:0000018c       $pdata$?SetWidth@Canvas@@SAXV?$Local@VString@v8@@@v8@@V?$Local@VValue@v8@@@3@AEBV?$PropertyCallbackInfo@X@Nan@@@Z 000000018004118c     Canvas.obj
 0004:00000198       $pdata$0$?SetWidth@Canvas@@SAXV?$Local@VString@v8@@@v8@@V?$Local@VValue@v8@@@3@AEBV?$PropertyCallbackInfo@X@Nan@@@Z 0000000180041198     Canvas.obj
 0004:000001a4       $pdata$1$?SetWidth@Canvas@@SAXV?$Local@VString@v8@@@v8@@V?$Local@VValue@v8@@@3@AEBV?$PropertyCallbackInfo@X@Nan@@@Z 00000001800411a4     Canvas.obj
 0004:000001b0       $pdata$?GetHeight@Canvas@@SAXV?$Local@VString@v8@@@v8@@AEBV?$PropertyCallbackInfo@VValue@v8@@@Nan@@@Z 00000001800411b0     Canvas.obj
 0004:000001b0       $pdata$?GetHeight@ImageData@@SAXV?$Local@VString@v8@@@v8@@AEBV?$PropertyCallbackInfo@VValue@v8@@@Nan@@@Z 00000001800411b0     ImageData.obj
 0004:000001bc       $pdata$?SetHeight@Canvas@@SAXV?$Local@VString@v8@@@v8@@V?$Local@VValue@v8@@@3@AEBV?$PropertyCallbackInfo@X@Nan@@@Z 00000001800411bc     Canvas.obj
 0004:000001c8       $pdata$0$?SetHeight@Canvas@@SAXV?$Local@VString@v8@@@v8@@V?$Local@VValue@v8@@@3@AEBV?$PropertyCallbackInfo@X@Nan@@@Z 00000001800411c8     Canvas.obj
 0004:000001d4       $pdata$1$?SetHeight@Canvas@@SAXV?$Local@VString@v8@@@v8@@V?$Local@VValue@v8@@@3@AEBV?$PropertyCallbackInfo@X@Nan@@@Z 00000001800411d4     Canvas.obj
 0004:000001e0       $pdata$?toBuffer@@YA?AW4_cairo_status@@PEAXPEBEI@Z 00000001800411e0     Canvas.obj
 0004:000001ec       $pdata$?ToBufferAsync@Canvas@@SAXPEAUuv_work_s@@@Z 00000001800411ec     Canvas.obj
 0004:000001f8       $pdata$?ToBufferAsyncAfter@Canvas@@SAXPEAUuv_work_s@@@Z 00000001800411f8     Canvas.obj
 0004:00000204       $pdata$?ToBuffer@Canvas@@SAXAEBV?$FunctionCallbackInfo@VValue@v8@@@Nan@@@Z 0000000180041204     Canvas.obj
 0004:00000210       $pdata$?streamPNG@@YA?AW4_cairo_status@@PEAXPEBEI@Z 0000000180041210     Canvas.obj
 0004:0000021c       $pdata$?StreamPNGSync@Canvas@@SAXAEBV?$FunctionCallbackInfo@VValue@v8@@@Nan@@@Z 000000018004121c     Canvas.obj
 0004:00000228       $pdata$?streamPDF@@YA?AW4_cairo_status@@PEAXPEBEI@Z 0000000180041228     Canvas.obj
 0004:00000234       $pdata$?StreamPDFSync@Canvas@@SAXAEBV?$FunctionCallbackInfo@VValue@v8@@@Nan@@@Z 0000000180041234     Canvas.obj
 0004:00000240       $pdata$??0Canvas@@QEAA@HHW4canvas_type_t@@@Z 0000000180041240     Canvas.obj
 0004:0000024c       $pdata$??_GCanvas@@EEAAPEAXI@Z 000000018004124c     Canvas.obj
 0004:00000258       $pdata$??1Canvas@@EEAA@XZ  0000000180041258     Canvas.obj
 0004:00000264       $pdata$?resurface@Canvas@@QEAAXV?$Local@VObject@v8@@@v8@@@Z 0000000180041264     Canvas.obj
 0004:00000270       $pdata$??$Unwrap@VPattern@@@ObjectWrap@Nan@@SAPEAVPattern@@V?$Local@VObject@v8@@@v8@@@Z 0000000180041270     CanvasRenderingContext2d.obj
 0004:00000270       $pdata$??$Unwrap@VGradient@@@ObjectWrap@Nan@@SAPEAVGradient@@V?$Local@VObject@v8@@@v8@@@Z 0000000180041270     CanvasGradient.obj
 0004:00000270       $pdata$??$Unwrap@VImage@@@ObjectWrap@Nan@@SAPEAVImage@@V?$Local@VObject@v8@@@v8@@@Z 0000000180041270     CanvasPattern.obj
 0004:00000270       $pdata$??$Unwrap@VImageData@@@ObjectWrap@Nan@@SAPEAVImageData@@V?$Local@VObject@v8@@@v8@@@Z 0000000180041270     CanvasRenderingContext2d.obj
 0004:00000270       $pdata$??$Unwrap@VContext2d@@@ObjectWrap@Nan@@SAPEAVContext2d@@V?$Local@VObject@v8@@@v8@@@Z 0000000180041270     Canvas.obj
 0004:00000270       $pdata$??$Unwrap@VCanvas@@@ObjectWrap@Nan@@SAPEAVCanvas@@V?$Local@VObject@v8@@@v8@@@Z 0000000180041270     Canvas.obj
 0004:0000027c       $pdata$?Initialize@Gradient@@SAXV?$Local@VObject@v8@@@v8@@@Z 000000018004127c     CanvasGradient.obj
 0004:00000288       $pdata$?New@Gradient@@SAXAEBV?$FunctionCallbackInfo@VValue@v8@@@Nan@@@Z 0000000180041288     CanvasGradient.obj
 0004:00000294       $pdata$?AddColorStop@Gradient@@SAXAEBV?$FunctionCallbackInfo@VValue@v8@@@Nan@@@Z 0000000180041294     CanvasGradient.obj
 0004:000002a0       $pdata$??_GPattern@@EEAAPEAXI@Z 00000001800412a0     CanvasPattern.obj
 0004:000002a0       $pdata$??_GGradient@@EEAAPEAXI@Z 00000001800412a0     CanvasGradient.obj
 0004:000002ac       $pdata$?ThrowError@Nan@@YAXPEBD@Z 00000001800412ac     CanvasPattern.obj
 0004:000002b8       $pdata$?Initialize@Pattern@@SAXV?$Local@VObject@v8@@@v8@@@Z 00000001800412b8     CanvasPattern.obj
 0004:000002c4       $pdata$?New@Pattern@@SAXAEBV?$FunctionCallbackInfo@VValue@v8@@@Nan@@@Z 00000001800412c4     CanvasPattern.obj
 0004:000002d0       $pdata$1$?New@Pattern@@SAXAEBV?$FunctionCallbackInfo@VValue@v8@@@Nan@@@Z 00000001800412d0     CanvasPattern.obj
 0004:000002dc       $pdata$3$?New@Pattern@@SAXAEBV?$FunctionCallbackInfo@VValue@v8@@@Nan@@@Z 00000001800412dc     CanvasPattern.obj
 0004:000002e8       $pdata$5$?New@Pattern@@SAXAEBV?$FunctionCallbackInfo@VValue@v8@@@Nan@@@Z 00000001800412e8     CanvasPattern.obj
 0004:000002f4       $pdata$7$?New@Pattern@@SAXAEBV?$FunctionCallbackInfo@VValue@v8@@@Nan@@@Z 00000001800412f4     CanvasPattern.obj
 0004:00000300       $pdata$?NewInstance@Nan@@YA?AV?$MaybeLocal@VObject@v8@@@v8@@V?$Local@VFunction@v8@@@3@HQEAV?$Local@VValue@v8@@@3@@Z 0000000180041300     CanvasRenderingContext2d.obj
 0004:0000030c       $pdata$?GetFunction@Nan@@YA?AV?$MaybeLocal@VFunction@v8@@@v8@@V?$Local@VFunctionTemplate@v8@@@3@@Z 000000018004130c     CanvasRenderingContext2d.obj
 0004:00000318       $pdata$?convert@?$ToFactory@VInt32@v8@@@imp@Nan@@SA?AV?$MaybeLocal@VInt32@v8@@@v8@@V?$Local@VValue@v8@@@5@@Z 0000000180041318     CanvasRenderingContext2d.obj
 0004:00000324       $pdata$?Initialize@Context2d@@SAXV?$Local@VObject@v8@@@v8@@@Z 0000000180041324     CanvasRenderingContext2d.obj
 0004:00000330       $pdata$??0Context2d@@QEAA@PEAVCanvas@@@Z 0000000180041330     CanvasRenderingContext2d.obj
 0004:0000033c       $pdata$??_GContext2d@@EEAAPEAXI@Z 000000018004133c     CanvasRenderingContext2d.obj
 0004:00000348       $pdata$?saveState@Context2d@@QEAAXXZ 0000000180041348     CanvasRenderingContext2d.obj
 0004:00000354       $pdata$?savePath@Context2d@@QEAAXXZ 0000000180041354     CanvasRenderingContext2d.obj
 0004:00000360       $pdata$?restorePath@Context2d@@QEAAXXZ 0000000180041360     CanvasRenderingContext2d.obj
 0004:0000036c       $pdata$?setFillRule@Context2d@@QEAAXV?$Local@VValue@v8@@@v8@@@Z 000000018004136c     CanvasRenderingContext2d.obj
 0004:00000378       $pdata$?fill@Context2d@@QEAAX_N@Z 0000000180041378     CanvasRenderingContext2d.obj
 0004:00000384       $pdata$?stroke@Context2d@@QEAAX_N@Z 0000000180041384     CanvasRenderingContext2d.obj
 0004:00000390       $pdata$?shadow@Context2d@@QEAAXP6AXPEAU_cairo@@@Z@Z 0000000180041390     CanvasRenderingContext2d.obj
 0004:0000039c       $pdata$3$?shadow@Context2d@@QEAAXP6AXPEAU_cairo@@@Z@Z 000000018004139c     CanvasRenderingContext2d.obj
 0004:000003a8       $pdata$4$?shadow@Context2d@@QEAAXP6AXPEAU_cairo@@@Z@Z 00000001800413a8     CanvasRenderingContext2d.obj
 0004:000003b4       $pdata$?blur@Context2d@@QEAAXPEAU_cairo_surface@@H@Z 00000001800413b4     CanvasRenderingContext2d.obj
 0004:000003c0       $pdata$?New@Context2d@@SAXAEBV?$FunctionCallbackInfo@VValue@v8@@@Nan@@@Z 00000001800413c0     CanvasRenderingContext2d.obj
 0004:000003cc       $pdata$0$?New@Context2d@@SAXAEBV?$FunctionCallbackInfo@VValue@v8@@@Nan@@@Z 00000001800413cc     CanvasRenderingContext2d.obj
 0004:000003d8       $pdata$2$?New@Context2d@@SAXAEBV?$FunctionCallbackInfo@VValue@v8@@@Nan@@@Z 00000001800413d8     CanvasRenderingContext2d.obj
 0004:000003e4       $pdata$4$?New@Context2d@@SAXAEBV?$FunctionCallbackInfo@VValue@v8@@@Nan@@@Z 00000001800413e4     CanvasRenderingContext2d.obj
 0004:000003f0       $pdata$?AddPage@Context2d@@SAXAEBV?$FunctionCallbackInfo@VValue@v8@@@Nan@@@Z 00000001800413f0     CanvasRenderingContext2d.obj
 0004:000003fc       $pdata$?PutImageData@Context2d@@SAXAEBV?$FunctionCallbackInfo@VValue@v8@@@Nan@@@Z 00000001800413fc     CanvasRenderingContext2d.obj
 0004:00000408       $pdata$0$?PutImageData@Context2d@@SAXAEBV?$FunctionCallbackInfo@VValue@v8@@@Nan@@@Z 0000000180041408     CanvasRenderingContext2d.obj
 0004:00000414       $pdata$8$?PutImageData@Context2d@@SAXAEBV?$FunctionCallbackInfo@VValue@v8@@@Nan@@@Z 0000000180041414     CanvasRenderingContext2d.obj
 0004:00000420       $pdata$?GetImageData@Context2d@@SAXAEBV?$FunctionCallbackInfo@VValue@v8@@@Nan@@@Z 0000000180041420     CanvasRenderingContext2d.obj
 0004:0000042c       $pdata$1$?GetImageData@Context2d@@SAXAEBV?$FunctionCallbackInfo@VValue@v8@@@Nan@@@Z 000000018004142c     CanvasRenderingContext2d.obj
 0004:00000438       $pdata$2$?GetImageData@Context2d@@SAXAEBV?$FunctionCallbackInfo@VValue@v8@@@Nan@@@Z 0000000180041438     CanvasRenderingContext2d.obj
 0004:00000444       $pdata$?DrawImage@Context2d@@SAXAEBV?$FunctionCallbackInfo@VValue@v8@@@Nan@@@Z 0000000180041444     CanvasRenderingContext2d.obj
 0004:00000450       $pdata$4$?DrawImage@Context2d@@SAXAEBV?$FunctionCallbackInfo@VValue@v8@@@Nan@@@Z 0000000180041450     CanvasRenderingContext2d.obj
 0004:0000045c       $pdata$12$?DrawImage@Context2d@@SAXAEBV?$FunctionCallbackInfo@VValue@v8@@@Nan@@@Z 000000018004145c     CanvasRenderingContext2d.obj
 0004:00000468       $pdata$13$?DrawImage@Context2d@@SAXAEBV?$FunctionCallbackInfo@VValue@v8@@@Nan@@@Z 0000000180041468     CanvasRenderingContext2d.obj
 0004:00000474       $pdata$15$?DrawImage@Context2d@@SAXAEBV?$FunctionCallbackInfo@VValue@v8@@@Nan@@@Z 0000000180041474     CanvasRenderingContext2d.obj
 0004:00000480       $pdata$17$?DrawImage@Context2d@@SAXAEBV?$FunctionCallbackInfo@VValue@v8@@@Nan@@@Z 0000000180041480     CanvasRenderingContext2d.obj
 0004:0000048c       $pdata$19$?DrawImage@Context2d@@SAXAEBV?$FunctionCallbackInfo@VValue@v8@@@Nan@@@Z 000000018004148c     CanvasRenderingContext2d.obj
 0004:00000498       $pdata$?GetGlobalAlpha@Context2d@@SAXV?$Local@VString@v8@@@v8@@AEBV?$PropertyCallbackInfo@VValue@v8@@@Nan@@@Z 0000000180041498     CanvasRenderingContext2d.obj
 0004:000004a4       $pdata$?SetGlobalAlpha@Context2d@@SAXV?$Local@VString@v8@@@v8@@V?$Local@VValue@v8@@@3@AEBV?$PropertyCallbackInfo@X@Nan@@@Z 00000001800414a4     CanvasRenderingContext2d.obj
 0004:000004b0       $pdata$?GetGlobalCompositeOperation@Context2d@@SAXV?$Local@VString@v8@@@v8@@AEBV?$PropertyCallbackInfo@VValue@v8@@@Nan@@@Z 00000001800414b0     CanvasRenderingContext2d.obj
 0004:000004bc       $pdata$?SetPatternQuality@Context2d@@SAXV?$Local@VString@v8@@@v8@@V?$Local@VValue@v8@@@3@AEBV?$PropertyCallbackInfo@X@Nan@@@Z 00000001800414bc     CanvasRenderingContext2d.obj
 0004:000004c8       $pdata$?GetPatternQuality@Context2d@@SAXV?$Local@VString@v8@@@v8@@AEBV?$PropertyCallbackInfo@VValue@v8@@@Nan@@@Z 00000001800414c8     CanvasRenderingContext2d.obj
 0004:000004d4       $pdata$?SetGlobalCompositeOperation@Context2d@@SAXV?$Local@VString@v8@@@v8@@V?$Local@VValue@v8@@@3@AEBV?$PropertyCallbackInfo@X@Nan@@@Z 00000001800414d4     CanvasRenderingContext2d.obj
 0004:000004e0       $pdata$?GetShadowOffsetX@Context2d@@SAXV?$Local@VString@v8@@@v8@@AEBV?$PropertyCallbackInfo@VValue@v8@@@Nan@@@Z 00000001800414e0     CanvasRenderingContext2d.obj
 0004:000004ec       $pdata$?SetShadowOffsetX@Context2d@@SAXV?$Local@VString@v8@@@v8@@V?$Local@VValue@v8@@@3@AEBV?$PropertyCallbackInfo@X@Nan@@@Z 00000001800414ec     CanvasRenderingContext2d.obj
 0004:000004f8       $pdata$?GetShadowOffsetY@Context2d@@SAXV?$Local@VString@v8@@@v8@@AEBV?$PropertyCallbackInfo@VValue@v8@@@Nan@@@Z 00000001800414f8     CanvasRenderingContext2d.obj
 0004:00000504       $pdata$?SetShadowOffsetY@Context2d@@SAXV?$Local@VString@v8@@@v8@@V?$Local@VValue@v8@@@3@AEBV?$PropertyCallbackInfo@X@Nan@@@Z 0000000180041504     CanvasRenderingContext2d.obj
 0004:00000510       $pdata$?GetShadowBlur@Context2d@@SAXV?$Local@VString@v8@@@v8@@AEBV?$PropertyCallbackInfo@VValue@v8@@@Nan@@@Z 0000000180041510     CanvasRenderingContext2d.obj
 0004:0000051c       $pdata$?SetShadowBlur@Context2d@@SAXV?$Local@VString@v8@@@v8@@V?$Local@VValue@v8@@@3@AEBV?$PropertyCallbackInfo@X@Nan@@@Z 000000018004151c     CanvasRenderingContext2d.obj
 0004:00000528       $pdata$?GetAntiAlias@Context2d@@SAXV?$Local@VString@v8@@@v8@@AEBV?$PropertyCallbackInfo@VValue@v8@@@Nan@@@Z 0000000180041528     CanvasRenderingContext2d.obj
 0004:00000534       $pdata$?SetAntiAlias@Context2d@@SAXV?$Local@VString@v8@@@v8@@V?$Local@VValue@v8@@@3@AEBV?$PropertyCallbackInfo@X@Nan@@@Z 0000000180041534     CanvasRenderingContext2d.obj
 0004:00000540       $pdata$?GetTextDrawingMode@Context2d@@SAXV?$Local@VString@v8@@@v8@@AEBV?$PropertyCallbackInfo@VValue@v8@@@Nan@@@Z 0000000180041540     CanvasRenderingContext2d.obj
 0004:0000054c       $pdata$?SetTextDrawingMode@Context2d@@SAXV?$Local@VString@v8@@@v8@@V?$Local@VValue@v8@@@3@AEBV?$PropertyCallbackInfo@X@Nan@@@Z 000000018004154c     CanvasRenderingContext2d.obj
 0004:00000558       $pdata$?GetFilter@Context2d@@SAXV?$Local@VString@v8@@@v8@@AEBV?$PropertyCallbackInfo@VValue@v8@@@Nan@@@Z 0000000180041558     CanvasRenderingContext2d.obj
 0004:00000564       $pdata$?SetFilter@Context2d@@SAXV?$Local@VString@v8@@@v8@@V?$Local@VValue@v8@@@3@AEBV?$PropertyCallbackInfo@X@Nan@@@Z 0000000180041564     CanvasRenderingContext2d.obj
 0004:00000570       $pdata$?GetMiterLimit@Context2d@@SAXV?$Local@VString@v8@@@v8@@AEBV?$PropertyCallbackInfo@VValue@v8@@@Nan@@@Z 0000000180041570     CanvasRenderingContext2d.obj
 0004:0000057c       $pdata$?SetMiterLimit@Context2d@@SAXV?$Local@VString@v8@@@v8@@V?$Local@VValue@v8@@@3@AEBV?$PropertyCallbackInfo@X@Nan@@@Z 000000018004157c     CanvasRenderingContext2d.obj
 0004:00000588       $pdata$?GetLineWidth@Context2d@@SAXV?$Local@VString@v8@@@v8@@AEBV?$PropertyCallbackInfo@VValue@v8@@@Nan@@@Z 0000000180041588     CanvasRenderingContext2d.obj
 0004:00000594       $pdata$?SetLineWidth@Context2d@@SAXV?$Local@VString@v8@@@v8@@V?$Local@VValue@v8@@@3@AEBV?$PropertyCallbackInfo@X@Nan@@@Z 0000000180041594     CanvasRenderingContext2d.obj
 0004:000005a0       $pdata$?GetLineJoin@Context2d@@SAXV?$Local@VString@v8@@@v8@@AEBV?$PropertyCallbackInfo@VValue@v8@@@Nan@@@Z 00000001800415a0     CanvasRenderingContext2d.obj
 0004:000005ac       $pdata$?SetLineJoin@Context2d@@SAXV?$Local@VString@v8@@@v8@@V?$Local@VValue@v8@@@3@AEBV?$PropertyCallbackInfo@X@Nan@@@Z 00000001800415ac     CanvasRenderingContext2d.obj
 0004:000005b8       $pdata$?GetLineCap@Context2d@@SAXV?$Local@VString@v8@@@v8@@AEBV?$PropertyCallbackInfo@VValue@v8@@@Nan@@@Z 00000001800415b8     CanvasRenderingContext2d.obj
 0004:000005c4       $pdata$?SetLineCap@Context2d@@SAXV?$Local@VString@v8@@@v8@@V?$Local@VValue@v8@@@3@AEBV?$PropertyCallbackInfo@X@Nan@@@Z 00000001800415c4     CanvasRenderingContext2d.obj
 0004:000005d0       $pdata$?IsPointInPath@Context2d@@SAXAEBV?$FunctionCallbackInfo@VValue@v8@@@Nan@@@Z 00000001800415d0     CanvasRenderingContext2d.obj
 0004:000005dc       $pdata$3$?IsPointInPath@Context2d@@SAXAEBV?$FunctionCallbackInfo@VValue@v8@@@Nan@@@Z 00000001800415dc     CanvasRenderingContext2d.obj
 0004:000005e8       $pdata$4$?IsPointInPath@Context2d@@SAXAEBV?$FunctionCallbackInfo@VValue@v8@@@Nan@@@Z 00000001800415e8     CanvasRenderingContext2d.obj
 0004:000005f4       $pdata$?SetFillPattern@Context2d@@SAXAEBV?$FunctionCallbackInfo@VValue@v8@@@Nan@@@Z 00000001800415f4     CanvasRenderingContext2d.obj
 0004:00000600       $pdata$?SetStrokePattern@Context2d@@SAXAEBV?$FunctionCallbackInfo@VValue@v8@@@Nan@@@Z 0000000180041600     CanvasRenderingContext2d.obj
 0004:0000060c       $pdata$?SetShadowColor@Context2d@@SAXV?$Local@VString@v8@@@v8@@V?$Local@VValue@v8@@@3@AEBV?$PropertyCallbackInfo@X@Nan@@@Z 000000018004160c     CanvasRenderingContext2d.obj
 0004:00000618       $pdata$?GetShadowColor@Context2d@@SAXV?$Local@VString@v8@@@v8@@AEBV?$PropertyCallbackInfo@VValue@v8@@@Nan@@@Z 0000000180041618     CanvasRenderingContext2d.obj
 0004:00000624       $pdata$?SetFillColor@Context2d@@SAXAEBV?$FunctionCallbackInfo@VValue@v8@@@Nan@@@Z 0000000180041624     CanvasRenderingContext2d.obj
 0004:00000630       $pdata$?GetFillColor@Context2d@@SAXV?$Local@VString@v8@@@v8@@AEBV?$PropertyCallbackInfo@VValue@v8@@@Nan@@@Z 0000000180041630     CanvasRenderingContext2d.obj
 0004:0000063c       $pdata$?SetStrokeColor@Context2d@@SAXAEBV?$FunctionCallbackInfo@VValue@v8@@@Nan@@@Z 000000018004163c     CanvasRenderingContext2d.obj
 0004:00000648       $pdata$?GetStrokeColor@Context2d@@SAXV?$Local@VString@v8@@@v8@@AEBV?$PropertyCallbackInfo@VValue@v8@@@Nan@@@Z 0000000180041648     CanvasRenderingContext2d.obj
 0004:00000654       $pdata$?BezierCurveTo@Context2d@@SAXAEBV?$FunctionCallbackInfo@VValue@v8@@@Nan@@@Z 0000000180041654     CanvasRenderingContext2d.obj
 0004:00000660       $pdata$9$?BezierCurveTo@Context2d@@SAXAEBV?$FunctionCallbackInfo@VValue@v8@@@Nan@@@Z 0000000180041660     CanvasRenderingContext2d.obj
 0004:0000066c       $pdata$10$?BezierCurveTo@Context2d@@SAXAEBV?$FunctionCallbackInfo@VValue@v8@@@Nan@@@Z 000000018004166c     CanvasRenderingContext2d.obj
 0004:00000678       $pdata$?QuadraticCurveTo@Context2d@@SAXAEBV?$FunctionCallbackInfo@VValue@v8@@@Nan@@@Z 0000000180041678     CanvasRenderingContext2d.obj
 0004:00000684       $pdata$4$?QuadraticCurveTo@Context2d@@SAXAEBV?$FunctionCallbackInfo@VValue@v8@@@Nan@@@Z 0000000180041684     CanvasRenderingContext2d.obj
 0004:00000690       $pdata$5$?QuadraticCurveTo@Context2d@@SAXAEBV?$FunctionCallbackInfo@VValue@v8@@@Nan@@@Z 0000000180041690     CanvasRenderingContext2d.obj
 0004:0000069c       $pdata$?Save@Context2d@@SAXAEBV?$FunctionCallbackInfo@VValue@v8@@@Nan@@@Z 000000018004169c     CanvasRenderingContext2d.obj
 0004:000006a8       $pdata$?Restore@Context2d@@SAXAEBV?$FunctionCallbackInfo@VValue@v8@@@Nan@@@Z 00000001800416a8     CanvasRenderingContext2d.obj
 0004:000006b4       $pdata$?BeginPath@Context2d@@SAXAEBV?$FunctionCallbackInfo@VValue@v8@@@Nan@@@Z 00000001800416b4     CanvasRenderingContext2d.obj
 0004:000006c0       $pdata$?ClosePath@Context2d@@SAXAEBV?$FunctionCallbackInfo@VValue@v8@@@Nan@@@Z 00000001800416c0     CanvasRenderingContext2d.obj
 0004:000006cc       $pdata$?Rotate@Context2d@@SAXAEBV?$FunctionCallbackInfo@VValue@v8@@@Nan@@@Z 00000001800416cc     CanvasRenderingContext2d.obj
 0004:000006d8       $pdata$?Transform@Context2d@@SAXAEBV?$FunctionCallbackInfo@VValue@v8@@@Nan@@@Z 00000001800416d8     CanvasRenderingContext2d.obj
 0004:000006e4       $pdata$?ResetTransform@Context2d@@SAXAEBV?$FunctionCallbackInfo@VValue@v8@@@Nan@@@Z 00000001800416e4     CanvasRenderingContext2d.obj
 0004:000006f0       $pdata$?Translate@Context2d@@SAXAEBV?$FunctionCallbackInfo@VValue@v8@@@Nan@@@Z 00000001800416f0     CanvasRenderingContext2d.obj
 0004:000006fc       $pdata$?Scale@Context2d@@SAXAEBV?$FunctionCallbackInfo@VValue@v8@@@Nan@@@Z 00000001800416fc     CanvasRenderingContext2d.obj
 0004:00000708       $pdata$?Clip@Context2d@@SAXAEBV?$FunctionCallbackInfo@VValue@v8@@@Nan@@@Z 0000000180041708     CanvasRenderingContext2d.obj
 0004:00000714       $pdata$?Fill@Context2d@@SAXAEBV?$FunctionCallbackInfo@VValue@v8@@@Nan@@@Z 0000000180041714     CanvasRenderingContext2d.obj
 0004:00000720       $pdata$?Stroke@Context2d@@SAXAEBV?$FunctionCallbackInfo@VValue@v8@@@Nan@@@Z 0000000180041720     CanvasRenderingContext2d.obj
 0004:0000072c       $pdata$?FillText@Context2d@@SAXAEBV?$FunctionCallbackInfo@VValue@v8@@@Nan@@@Z 000000018004172c     CanvasRenderingContext2d.obj
 0004:00000738       $pdata$?StrokeText@Context2d@@SAXAEBV?$FunctionCallbackInfo@VValue@v8@@@Nan@@@Z 0000000180041738     CanvasRenderingContext2d.obj
 0004:00000744       $pdata$?setTextPath@Context2d@@QEAAXPEBDNN@Z 0000000180041744     CanvasRenderingContext2d.obj
 0004:00000750       $pdata$?LineTo@Context2d@@SAXAEBV?$FunctionCallbackInfo@VValue@v8@@@Nan@@@Z 0000000180041750     CanvasRenderingContext2d.obj
 0004:0000075c       $pdata$?MoveTo@Context2d@@SAXAEBV?$FunctionCallbackInfo@VValue@v8@@@Nan@@@Z 000000018004175c     CanvasRenderingContext2d.obj
 0004:00000768       $pdata$?SetFont@Context2d@@SAXAEBV?$FunctionCallbackInfo@VValue@v8@@@Nan@@@Z 0000000180041768     CanvasRenderingContext2d.obj
 0004:00000774       $pdata$?MeasureText@Context2d@@SAXAEBV?$FunctionCallbackInfo@VValue@v8@@@Nan@@@Z 0000000180041774     CanvasRenderingContext2d.obj
 0004:00000780       $pdata$?SetTextBaseline@Context2d@@SAXAEBV?$FunctionCallbackInfo@VValue@v8@@@Nan@@@Z 0000000180041780     CanvasRenderingContext2d.obj
 0004:0000078c       $pdata$0$?SetTextBaseline@Context2d@@SAXAEBV?$FunctionCallbackInfo@VValue@v8@@@Nan@@@Z 000000018004178c     CanvasRenderingContext2d.obj
 0004:00000798       $pdata$1$?SetTextBaseline@Context2d@@SAXAEBV?$FunctionCallbackInfo@VValue@v8@@@Nan@@@Z 0000000180041798     CanvasRenderingContext2d.obj
 0004:000007a4       $pdata$?SetTextAlignment@Context2d@@SAXAEBV?$FunctionCallbackInfo@VValue@v8@@@Nan@@@Z 00000001800417a4     CanvasRenderingContext2d.obj
 0004:000007b0       $pdata$0$?SetTextAlignment@Context2d@@SAXAEBV?$FunctionCallbackInfo@VValue@v8@@@Nan@@@Z 00000001800417b0     CanvasRenderingContext2d.obj
 0004:000007bc       $pdata$1$?SetTextAlignment@Context2d@@SAXAEBV?$FunctionCallbackInfo@VValue@v8@@@Nan@@@Z 00000001800417bc     CanvasRenderingContext2d.obj
 0004:000007c8       $pdata$?SetLineDash@Context2d@@SAXAEBV?$FunctionCallbackInfo@VValue@v8@@@Nan@@@Z 00000001800417c8     CanvasRenderingContext2d.obj
 0004:000007d4       $pdata$?GetLineDash@Context2d@@SAXAEBV?$FunctionCallbackInfo@VValue@v8@@@Nan@@@Z 00000001800417d4     CanvasRenderingContext2d.obj
 0004:000007e0       $pdata$?SetLineDashOffset@Context2d@@SAXV?$Local@VString@v8@@@v8@@V?$Local@VValue@v8@@@3@AEBV?$PropertyCallbackInfo@X@Nan@@@Z 00000001800417e0     CanvasRenderingContext2d.obj
 0004:000007ec       $pdata$4$?SetLineDashOffset@Context2d@@SAXV?$Local@VString@v8@@@v8@@V?$Local@VValue@v8@@@3@AEBV?$PropertyCallbackInfo@X@Nan@@@Z 00000001800417ec     CanvasRenderingContext2d.obj
 0004:000007f8       $pdata$5$?SetLineDashOffset@Context2d@@SAXV?$Local@VString@v8@@@v8@@V?$Local@VValue@v8@@@3@AEBV?$PropertyCallbackInfo@X@Nan@@@Z 00000001800417f8     CanvasRenderingContext2d.obj
 0004:00000804       $pdata$6$?SetLineDashOffset@Context2d@@SAXV?$Local@VString@v8@@@v8@@V?$Local@VValue@v8@@@3@AEBV?$PropertyCallbackInfo@X@Nan@@@Z 0000000180041804     CanvasRenderingContext2d.obj
 0004:00000810       $pdata$?GetLineDashOffset@Context2d@@SAXV?$Local@VString@v8@@@v8@@AEBV?$PropertyCallbackInfo@VValue@v8@@@Nan@@@Z 0000000180041810     CanvasRenderingContext2d.obj
 0004:0000081c       $pdata$?FillRect@Context2d@@SAXAEBV?$FunctionCallbackInfo@VValue@v8@@@Nan@@@Z 000000018004181c     CanvasRenderingContext2d.obj
 0004:00000828       $pdata$3$?FillRect@Context2d@@SAXAEBV?$FunctionCallbackInfo@VValue@v8@@@Nan@@@Z 0000000180041828     CanvasRenderingContext2d.obj
 0004:00000834       $pdata$4$?FillRect@Context2d@@SAXAEBV?$FunctionCallbackInfo@VValue@v8@@@Nan@@@Z 0000000180041834     CanvasRenderingContext2d.obj
 0004:00000840       $pdata$5$?FillRect@Context2d@@SAXAEBV?$FunctionCallbackInfo@VValue@v8@@@Nan@@@Z 0000000180041840     CanvasRenderingContext2d.obj
 0004:0000084c       $pdata$6$?FillRect@Context2d@@SAXAEBV?$FunctionCallbackInfo@VValue@v8@@@Nan@@@Z 000000018004184c     CanvasRenderingContext2d.obj
 0004:00000858       $pdata$?StrokeRect@Context2d@@SAXAEBV?$FunctionCallbackInfo@VValue@v8@@@Nan@@@Z 0000000180041858     CanvasRenderingContext2d.obj
 0004:00000864       $pdata$3$?StrokeRect@Context2d@@SAXAEBV?$FunctionCallbackInfo@VValue@v8@@@Nan@@@Z 0000000180041864     CanvasRenderingContext2d.obj
 0004:00000870       $pdata$4$?StrokeRect@Context2d@@SAXAEBV?$FunctionCallbackInfo@VValue@v8@@@Nan@@@Z 0000000180041870     CanvasRenderingContext2d.obj
 0004:0000087c       $pdata$5$?StrokeRect@Context2d@@SAXAEBV?$FunctionCallbackInfo@VValue@v8@@@Nan@@@Z 000000018004187c     CanvasRenderingContext2d.obj
 0004:00000888       $pdata$6$?StrokeRect@Context2d@@SAXAEBV?$FunctionCallbackInfo@VValue@v8@@@Nan@@@Z 0000000180041888     CanvasRenderingContext2d.obj
 0004:00000894       $pdata$?ClearRect@Context2d@@SAXAEBV?$FunctionCallbackInfo@VValue@v8@@@Nan@@@Z 0000000180041894     CanvasRenderingContext2d.obj
 0004:000008a0       $pdata$3$?ClearRect@Context2d@@SAXAEBV?$FunctionCallbackInfo@VValue@v8@@@Nan@@@Z 00000001800418a0     CanvasRenderingContext2d.obj
 0004:000008ac       $pdata$4$?ClearRect@Context2d@@SAXAEBV?$FunctionCallbackInfo@VValue@v8@@@Nan@@@Z 00000001800418ac     CanvasRenderingContext2d.obj
 0004:000008b8       $pdata$5$?ClearRect@Context2d@@SAXAEBV?$FunctionCallbackInfo@VValue@v8@@@Nan@@@Z 00000001800418b8     CanvasRenderingContext2d.obj
 0004:000008c4       $pdata$6$?ClearRect@Context2d@@SAXAEBV?$FunctionCallbackInfo@VValue@v8@@@Nan@@@Z 00000001800418c4     CanvasRenderingContext2d.obj
 0004:000008d0       $pdata$?Rect@Context2d@@SAXAEBV?$FunctionCallbackInfo@VValue@v8@@@Nan@@@Z 00000001800418d0     CanvasRenderingContext2d.obj
 0004:000008dc       $pdata$3$?Rect@Context2d@@SAXAEBV?$FunctionCallbackInfo@VValue@v8@@@Nan@@@Z 00000001800418dc     CanvasRenderingContext2d.obj
 0004:000008e8       $pdata$4$?Rect@Context2d@@SAXAEBV?$FunctionCallbackInfo@VValue@v8@@@Nan@@@Z 00000001800418e8     CanvasRenderingContext2d.obj
 0004:000008f4       $pdata$?Arc@Context2d@@SAXAEBV?$FunctionCallbackInfo@VValue@v8@@@Nan@@@Z 00000001800418f4     CanvasRenderingContext2d.obj
 0004:00000900       $pdata$7$?Arc@Context2d@@SAXAEBV?$FunctionCallbackInfo@VValue@v8@@@Nan@@@Z 0000000180041900     CanvasRenderingContext2d.obj
 0004:0000090c       $pdata$8$?Arc@Context2d@@SAXAEBV?$FunctionCallbackInfo@VValue@v8@@@Nan@@@Z 000000018004190c     CanvasRenderingContext2d.obj
 0004:00000918       $pdata$?ArcTo@Context2d@@SAXAEBV?$FunctionCallbackInfo@VValue@v8@@@Nan@@@Z 0000000180041918     CanvasRenderingContext2d.obj
 0004:00000924       $pdata$8$?ArcTo@Context2d@@SAXAEBV?$FunctionCallbackInfo@VValue@v8@@@Nan@@@Z 0000000180041924     CanvasRenderingContext2d.obj
 0004:00000930       $pdata$9$?ArcTo@Context2d@@SAXAEBV?$FunctionCallbackInfo@VValue@v8@@@Nan@@@Z 0000000180041930     CanvasRenderingContext2d.obj
 0004:0000093c       $pdata$11$?ArcTo@Context2d@@SAXAEBV?$FunctionCallbackInfo@VValue@v8@@@Nan@@@Z 000000018004193c     CanvasRenderingContext2d.obj
 0004:00000948       $pdata$12$?ArcTo@Context2d@@SAXAEBV?$FunctionCallbackInfo@VValue@v8@@@Nan@@@Z 0000000180041948     CanvasRenderingContext2d.obj
 0004:00000954       $pdata$13$?ArcTo@Context2d@@SAXAEBV?$FunctionCallbackInfo@VValue@v8@@@Nan@@@Z 0000000180041954     CanvasRenderingContext2d.obj
 0004:00000960       $pdata$??0?$TypedArrayContents@E@Nan@@QEAA@V?$Local@VValue@v8@@@v8@@@Z 0000000180041960     CanvasRenderingContext2d.obj
 0004:0000096c       $pdata$?_Tidy@?$vector@NV?$allocator@N@std@@@std@@IEAAXXZ 000000018004196c     CanvasRenderingContext2d.obj
 0004:00000978       $pdata$snprintf            0000000180041978     color.obj
 0004:00000984       $pdata$?rgba_from_hsla@@YAHMMMM@Z 0000000180041984     color.obj
 0004:00000990       $pdata$?rgba_from_rgb_string@@YAHPEBDPEAF@Z 0000000180041990     color.obj
 0004:0000099c       $pdata$0$?rgba_from_rgb_string@@YAHPEBDPEAF@Z 000000018004199c     color.obj
 0004:000009a8       $pdata$2$?rgba_from_rgb_string@@YAHPEBDPEAF@Z 00000001800419a8     color.obj
 0004:000009b4       $pdata$3$?rgba_from_rgb_string@@YAHPEBDPEAF@Z 00000001800419b4     color.obj
 0004:000009c0       $pdata$?rgba_from_rgba_string@@YAHPEBDPEAF@Z 00000001800419c0     color.obj
 0004:000009cc       $pdata$0$?rgba_from_rgba_string@@YAHPEBDPEAF@Z 00000001800419cc     color.obj
 0004:000009d8       $pdata$2$?rgba_from_rgba_string@@YAHPEBDPEAF@Z 00000001800419d8     color.obj
 0004:000009e4       $pdata$3$?rgba_from_rgba_string@@YAHPEBDPEAF@Z 00000001800419e4     color.obj
 0004:000009f0       $pdata$?rgba_from_hsla_string@@YAHPEBDPEAF@Z 00000001800419f0     color.obj
 0004:000009fc       $pdata$2$?rgba_from_hsla_string@@YAHPEBDPEAF@Z 00000001800419fc     color.obj
 0004:00000a08       $pdata$4$?rgba_from_hsla_string@@YAHPEBDPEAF@Z 0000000180041a08     color.obj
 0004:00000a14       $pdata$5$?rgba_from_hsla_string@@YAHPEBDPEAF@Z 0000000180041a14     color.obj
 0004:00000a20       $pdata$6$?rgba_from_hsla_string@@YAHPEBDPEAF@Z 0000000180041a20     color.obj
 0004:00000a2c       $pdata$?rgba_from_hsl_string@@YAHPEBDPEAF@Z 0000000180041a2c     color.obj
 0004:00000a38       $pdata$1$?rgba_from_hsl_string@@YAHPEBDPEAF@Z 0000000180041a38     color.obj
 0004:00000a44       $pdata$3$?rgba_from_hsl_string@@YAHPEBDPEAF@Z 0000000180041a44     color.obj
 0004:00000a50       $pdata$4$?rgba_from_hsl_string@@YAHPEBDPEAF@Z 0000000180041a50     color.obj
 0004:00000a5c       $pdata$?rgba_from_hex_string@@YAHPEBDPEAF@Z 0000000180041a5c     color.obj
 0004:00000a68       $pdata$?rgba_from_name_string@@YAHPEBDPEAF@Z 0000000180041a68     color.obj
 0004:00000a74       $pdata$?rgba_from_string@@YAHPEBDPEAF@Z 0000000180041a74     color.obj
 0004:00000a80       $pdata$??$parse_css_number@M@@YA_NPEAPEBDPEAM@Z 0000000180041a80     color.obj
 0004:00000a8c       $pdata$1$??$parse_css_number@M@@YA_NPEAPEBDPEAM@Z 0000000180041a8c     color.obj
 0004:00000a98       $pdata$3$??$parse_css_number@M@@YA_NPEAPEBDPEAM@Z 0000000180041a98     color.obj
 0004:00000aa4       $pdata$?Initialize@Image@@SAXV?$Local@VObject@v8@@@v8@@@Z 0000000180041aa4     Image.obj
 0004:00000ab0       $pdata$?New@Image@@SAXAEBV?$FunctionCallbackInfo@VValue@v8@@@Nan@@@Z 0000000180041ab0     Image.obj
 0004:00000abc       $pdata$?GetComplete@Image@@SAXV?$Local@VString@v8@@@v8@@AEBV?$PropertyCallbackInfo@VValue@v8@@@Nan@@@Z 0000000180041abc     Image.obj
 0004:00000ac8       $pdata$?GetDataMode@Image@@SAXV?$Local@VString@v8@@@v8@@AEBV?$PropertyCallbackInfo@VValue@v8@@@Nan@@@Z 0000000180041ac8     Image.obj
 0004:00000ad4       $pdata$?SetDataMode@Image@@SAXV?$Local@VString@v8@@@v8@@V?$Local@VValue@v8@@@3@AEBV?$PropertyCallbackInfo@X@Nan@@@Z 0000000180041ad4     Image.obj
 0004:00000ae0       $pdata$?GetWidth@Image@@SAXV?$Local@VString@v8@@@v8@@AEBV?$PropertyCallbackInfo@VValue@v8@@@Nan@@@Z 0000000180041ae0     Image.obj
 0004:00000aec       $pdata$?GetHeight@Image@@SAXV?$Local@VString@v8@@@v8@@AEBV?$PropertyCallbackInfo@VValue@v8@@@Nan@@@Z 0000000180041aec     Image.obj
 0004:00000af8       $pdata$?GetSource@Image@@SAXV?$Local@VString@v8@@@v8@@AEBV?$PropertyCallbackInfo@VValue@v8@@@Nan@@@Z 0000000180041af8     Image.obj
 0004:00000b04       $pdata$?clearData@Image@@QEAAXXZ 0000000180041b04     Image.obj
 0004:00000b10       $pdata$0$?clearData@Image@@QEAAXXZ 0000000180041b10     Image.obj
 0004:00000b1c       $pdata$1$?clearData@Image@@QEAAXXZ 0000000180041b1c     Image.obj
 0004:00000b28       $pdata$?SetSource@Image@@SAXV?$Local@VString@v8@@@v8@@V?$Local@VValue@v8@@@3@AEBV?$PropertyCallbackInfo@X@Nan@@@Z 0000000180041b28     Image.obj
 0004:00000b34       $pdata$?loadFromBuffer@Image@@QEAA?AW4_cairo_status@@PEAEI@Z 0000000180041b34     Image.obj
 0004:00000b40       $pdata$?readPNG@Image@@SA?AW4_cairo_status@@PEAXPEAEI@Z 0000000180041b40     Image.obj
 0004:00000b4c       $pdata$?GetOnload@Image@@SAXV?$Local@VString@v8@@@v8@@AEBV?$PropertyCallbackInfo@VValue@v8@@@Nan@@@Z 0000000180041b4c     Image.obj
 0004:00000b58       $pdata$?SetOnload@Image@@SAXV?$Local@VString@v8@@@v8@@V?$Local@VValue@v8@@@3@AEBV?$PropertyCallbackInfo@X@Nan@@@Z 0000000180041b58     Image.obj
 0004:00000b64       $pdata$?GetOnerror@Image@@SAXV?$Local@VString@v8@@@v8@@AEBV?$PropertyCallbackInfo@VValue@v8@@@Nan@@@Z 0000000180041b64     Image.obj
 0004:00000b70       $pdata$?SetOnerror@Image@@SAXV?$Local@VString@v8@@@v8@@V?$Local@VValue@v8@@@3@AEBV?$PropertyCallbackInfo@X@Nan@@@Z 0000000180041b70     Image.obj
 0004:00000b7c       $pdata$??_GImage@@EEAAPEAXI@Z 0000000180041b7c     Image.obj
 0004:00000b88       $pdata$??1Image@@EEAA@XZ   0000000180041b88     Image.obj
 0004:00000b94       $pdata$?loaded@Image@@QEAAXXZ 0000000180041b94     Image.obj
 0004:00000ba0       $pdata$?loadSurface@Image@@QEAA?AW4_cairo_status@@XZ 0000000180041ba0     Image.obj
 0004:00000bac       $pdata$?Initialize@ImageData@@SAXV?$Local@VObject@v8@@@v8@@@Z 0000000180041bac     ImageData.obj
 0004:00000bb8       $pdata$?New@ImageData@@SAXAEBV?$FunctionCallbackInfo@VValue@v8@@@Nan@@@Z 0000000180041bb8     ImageData.obj
 0004:00000bc4       $pdata$?init@@YAXV?$Local@VObject@v8@@@v8@@@Z 0000000180041bc4     init.obj
 0004:00000bd0       $pdata$??0bad_alloc@std@@QEAA@AEBV01@@Z 0000000180041bd0     libcpmt:xthrow.obj
 0004:00000bdc       $pdata$??0exception@std@@QEAA@AEBV01@@Z 0000000180041bdc     libcpmt:xthrow.obj
 0004:00000be8       $pdata$??0length_error@std@@QEAA@AEBV01@@Z 0000000180041be8     libcpmt:xthrow.obj
 0004:00000bf4       $pdata$??0length_error@std@@QEAA@PEBD@Z 0000000180041bf4     libcpmt:xthrow.obj
 0004:00000c00       $pdata$??0logic_error@std@@QEAA@AEBV01@@Z 0000000180041c00     libcpmt:xthrow.obj
 0004:00000c0c       $pdata$?_Xbad_alloc@std@@YAXXZ 0000000180041c0c     libcpmt:xthrow.obj
 0004:00000c0c       $pdata$?__scrt_throw_std_bad_alloc@@YAXXZ 0000000180041c0c     LIBCMT:throw_bad_alloc.obj
 0004:00000c18       $pdata$?_Xlength_error@std@@YAXPEBD@Z 0000000180041c18     libcpmt:xthrow.obj
 0004:00000c30       $pdata$??2@YAPEAX_K@Z      0000000180041c30     LIBCMT:new_scalar.obj
 0004:00000c3c       $pdata$__scrt_acquire_startup_lock 0000000180041c3c     LIBCMT:utility.obj
 0004:00000c48       $pdata$__scrt_dllmain_after_initialize_c 0000000180041c48     LIBCMT:utility.obj
 0004:00000c54       $pdata$__scrt_dllmain_before_initialize_c 0000000180041c54     LIBCMT:utility.obj
 0004:00000c60       $pdata$__scrt_dllmain_crt_thread_attach 0000000180041c60     LIBCMT:utility.obj
 0004:00000c6c       $pdata$__scrt_dllmain_crt_thread_detach 0000000180041c6c     LIBCMT:utility.obj
 0004:00000c78       $pdata$__scrt_dllmain_exception_filter 0000000180041c78     LIBCMT:utility.obj
 0004:00000c84       $pdata$__scrt_dllmain_uninitialize_c 0000000180041c84     LIBCMT:utility.obj
 0004:00000c90       $pdata$__scrt_dllmain_uninitialize_critical 0000000180041c90     LIBCMT:utility.obj
 0004:00000c9c       $pdata$__scrt_initialize_crt 0000000180041c9c     LIBCMT:utility.obj
 0004:00000ca8       $pdata$__scrt_initialize_onexit_tables 0000000180041ca8     LIBCMT:utility.obj
 0004:00000cb4       $pdata$__scrt_is_nonwritable_in_current_image 0000000180041cb4     LIBCMT:utility.obj
 0004:00000cc0       $pdata$__scrt_release_startup_lock 0000000180041cc0     LIBCMT:utility.obj
 0004:00000ccc       $pdata$__scrt_uninitialize_crt 0000000180041ccc     LIBCMT:utility.obj
 0004:00000cd8       $pdata$_onexit             0000000180041cd8     LIBCMT:utility.obj
 0004:00000ce4       $pdata$atexit              0000000180041ce4     LIBCMT:utility.obj
 0004:00000cf0       $pdata$?dllmain_crt_dispatch@@YAHQEAUHINSTANCE__@@KQEAX@Z 0000000180041cf0     LIBCMT:dll_dllmain.obj
 0004:00000cfc       $pdata$?dllmain_crt_process_attach@@YAHQEAUHINSTANCE__@@QEAX@Z 0000000180041cfc     LIBCMT:dll_dllmain.obj
 0004:00000d08       $pdata$?dllmain_crt_process_detach@@YAH_N@Z 0000000180041d08     LIBCMT:dll_dllmain.obj
 0004:00000d14       $pdata$?dllmain_dispatch@@YAHQEAUHINSTANCE__@@KQEAX@Z 0000000180041d14     LIBCMT:dll_dllmain.obj
 0004:00000d20       $pdata$?dllmain_raw@@YAHQEAUHINSTANCE__@@KQEAX@Z 0000000180041d20     LIBCMT:dll_dllmain.obj
 0004:00000d2c       $pdata$_DllMainCRTStartup  0000000180041d2c     LIBCMT:dll_dllmain.obj
 0004:00000d38       $pdata$??_Gtype_info@@UEAAPEAXI@Z 0000000180041d38     LIBCMT:std_type_info_static.obj
 0004:00000d44       $pdata$__raise_securityfailure 0000000180041d44     LIBCMT:gs_report.obj
 0004:00000d50       $pdata$__report_gsfailure  0000000180041d50     LIBCMT:gs_report.obj
 0004:00000d5c       $pdata$__report_rangecheckfailure 0000000180041d5c     LIBCMT:gs_report.obj
 0004:00000d68       $pdata$__report_securityfailure 0000000180041d68     LIBCMT:gs_report.obj
 0004:00000d74       $pdata$capture_current_context 0000000180041d74     LIBCMT:gs_report.obj
 0004:00000d80       $pdata$capture_previous_context 0000000180041d80     LIBCMT:gs_report.obj
 0004:00000d8c       $pdata$??0bad_array_new_length@std@@QEAA@AEBV01@@Z 0000000180041d8c     LIBCMT:throw_bad_alloc.obj
 0004:00000d98       $pdata$?__scrt_throw_std_bad_array_new_length@@YAXXZ 0000000180041d98     LIBCMT:throw_bad_alloc.obj
 0004:00000da4       $pdata$__isa_available_init 0000000180041da4     LIBCMT:_cpu_disp_.obj
 0004:00000db0       $pdata$__scrt_fastfail     0000000180041db0     LIBCMT:utility_desktop.obj
 0004:00000dbc       $pdata$__security_init_cookie 0000000180041dbc     LIBCMT:gs_support.obj
 0004:00000dc8       $pdata$__scrt_initialize_default_local_stdio_options 0000000180041dc8     LIBCMT:default_local_stdio_options.obj
 0004:00000dd4       $pdata$_RTC_Initialize     0000000180041dd4     LIBCMT:_initsect_.obj
 0004:00000de0       $pdata$_RTC_Terminate      0000000180041de0     LIBCMT:_initsect_.obj
 0004:00000dec       $pdata$longjmp             0000000180041dec     libvcruntime:longjmpc.obj
 0004:00000df8       $pdata$__DestructExceptionObject 0000000180041df8     libvcruntime:frame.obj
 0004:00000e04       $pdata$??0bad_exception@std@@QEAA@AEBV01@@Z 0000000180041e04     libvcruntime:frame.obj
 0004:00000e10       $pdata$??_Gbad_alloc@std@@UEAAPEAXI@Z 0000000180041e10     libcpmt:xthrow.obj
 0004:00000e10       $pdata$??_Gexception@std@@UEAAPEAXI@Z 0000000180041e10     libcpmt:xthrow.obj
 0004:00000e10       $pdata$??_Glogic_error@std@@UEAAPEAXI@Z 0000000180041e10     libcpmt:xthrow.obj
 0004:00000e10       $pdata$??_Gbad_exception@std@@UEAAPEAXI@Z 0000000180041e10     libvcruntime:frame.obj
 0004:00000e10       $pdata$??_Glength_error@std@@UEAAPEAXI@Z 0000000180041e10     libcpmt:xthrow.obj
 0004:00000e10       $pdata$??_Gbad_array_new_length@std@@UEAAPEAXI@Z 0000000180041e10     LIBCMT:throw_bad_alloc.obj
 0004:00000e1c       $pdata$?CatchIt@@YAXPEAUEHExceptionRecord@@PEA_KPEAU_CONTEXT@@PEAU_xDISPATCHER_CONTEXT@@PEBU_s_FuncInfo@@PEBU_s_HandlerType@@PEBU_s_CatchableType@@PEBU_s_TryBlockMapEntry@@H1EE@Z 0000000180041e1c     libvcruntime:frame.obj
 0004:00000e28       $pdata$?ExFilterRethrow@@YAHPEAU_EXCEPTION_POINTERS@@PEAUEHExceptionRecord@@PEAH@Z 0000000180041e28     libvcruntime:frame.obj
 0004:00000e34       $pdata$?FindHandler@@YAXPEAUEHExceptionRecord@@PEA_KPEAU_CONTEXT@@PEAU_xDISPATCHER_CONTEXT@@PEBU_s_FuncInfo@@EH1@Z 0000000180041e34     libvcruntime:frame.obj
 0004:00000e40       $pdata$?FindHandlerForForeignException@@YAXPEAUEHExceptionRecord@@PEA_KPEAU_CONTEXT@@PEAU_xDISPATCHER_CONTEXT@@PEBU_s_FuncInfo@@HH1@Z 0000000180041e40     libvcruntime:frame.obj
 0004:00000e4c       $pdata$?IsInExceptionSpec@@YAEPEAUEHExceptionRecord@@PEBU_s_ESTypeList@@@Z 0000000180041e4c     libvcruntime:frame.obj
 0004:00000e58       $pdata$__BuildCatchObject  0000000180041e58     libvcruntime:frame.obj
 0004:00000e64       $pdata$__BuildCatchObjectHelper 0000000180041e64     libvcruntime:frame.obj
 0004:00000e70       $pdata$__CxxCallCatchBlock 0000000180041e70     libvcruntime:frame.obj
 0004:00000e7c       $pdata$__FrameUnwindFilter 0000000180041e7c     libvcruntime:frame.obj
 0004:00000e88       $pdata$__FrameUnwindToState 0000000180041e88     libvcruntime:frame.obj
 0004:00000e94       $pdata$__InternalCxxFrameHandler 0000000180041e94     libvcruntime:frame.obj
 0004:00000ea0       $pdata$__TypeMatch         0000000180041ea0     libvcruntime:frame.obj
 0004:00000eac       $pdata$__std_terminate     0000000180041eac     libvcruntime:frame.obj
 0004:00000eb8       $pdata$strstr              0000000180041eb8     libvcruntime:strstr.obj
 0004:00000ec4       $pdata$__std_exception_copy 0000000180041ec4     libvcruntime:std_exception.obj
 0004:00000ed0       $pdata$__std_exception_destroy 0000000180041ed0     libvcruntime:std_exception.obj
 0004:00000edc       $pdata$_CxxThrowException  0000000180041edc     libvcruntime:throw.obj
 0004:00000ee8       $pdata$__vcrt_initialize   0000000180041ee8     libvcruntime:initialization.obj
 0004:00000ef4       $pdata$__vcrt_thread_attach 0000000180041ef4     libvcruntime:initialization.obj
 0004:00000f00       $pdata$__vcrt_thread_detach 0000000180041f00     libvcruntime:initialization.obj
 0004:00000f0c       $pdata$__vcrt_uninitialize 0000000180041f0c     libvcruntime:initialization.obj
 0004:00000f18       $pdata$__vcrt_uninitialize_critical 0000000180041f18     libvcruntime:initialization.obj
 0004:00000f24       $pdata$__C_specific_handler 0000000180041f24     libvcruntime:_chandler_.obj
 0004:00000f3c       $pdata$__std_type_info_destroy_list 0000000180041f3c     libvcruntime:std_type_info.obj
 0004:00000f54       $pdata$__vcrt_freefls      0000000180041f54     libvcruntime:per_thread_data.obj
 0004:00000f60       $pdata$__vcrt_freeptd      0000000180041f60     libvcruntime:per_thread_data.obj
 0004:00000f6c       $pdata$__vcrt_getptd       0000000180041f6c     libvcruntime:per_thread_data.obj
 0004:00000f78       $pdata$__vcrt_getptd_noexit 0000000180041f78     libvcruntime:per_thread_data.obj
 0004:00000f84       $pdata$__vcrt_initialize_ptd 0000000180041f84     libvcruntime:per_thread_data.obj
 0004:00000f90       $pdata$__vcrt_uninitialize_ptd 0000000180041f90     libvcruntime:per_thread_data.obj
 0004:00000f9c       $pdata$?__GetCurrentState@@YAHPEA_KPEAU_xDISPATCHER_CONTEXT@@PEBU_s_FuncInfo@@@Z 0000000180041f9c     libvcruntime:ehstate.obj
 0004:00000fa8       $pdata$?__GetUnwindTryBlock@@YAHPEA_KPEAU_xDISPATCHER_CONTEXT@@PEBU_s_FuncInfo@@@Z 0000000180041fa8     libvcruntime:ehstate.obj
 0004:00000fb4       $pdata$?__SetUnwindTryBlock@@YAXPEA_KPEAU_xDISPATCHER_CONTEXT@@PEBU_s_FuncInfo@@H@Z 0000000180041fb4     libvcruntime:ehstate.obj
 0004:00000fc0       $pdata$?__StateFromIp@@YAHPEBU_s_FuncInfo@@PEAU_xDISPATCHER_CONTEXT@@_J@Z 0000000180041fc0     libvcruntime:ehstate.obj
 0004:00000fd8       $pdata$?_ExecutionInCatch@@YAHPEAU_xDISPATCHER_CONTEXT@@PEBU_s_FuncInfo@@@Z 0000000180041fd8     libvcruntime:trnsctrl.obj
 0004:00000fe4       $pdata$?_GetEstablisherFrame@@YAPEA_KPEA_KPEAU_xDISPATCHER_CONTEXT@@PEBU_s_FuncInfo@@0@Z 0000000180041fe4     libvcruntime:trnsctrl.obj
 0004:00000ff0       $pdata$?_GetRangeOfTrysToCheck@@YAPEBU_s_TryBlockMapEntry@@PEA_KPEBU_s_FuncInfo@@HHPEAI2PEAU_xDISPATCHER_CONTEXT@@@Z 0000000180041ff0     libvcruntime:trnsctrl.obj
 0004:00000ffc       $pdata$?__FrameUnwindToEmptyState@@YAXPEA_KPEAU_xDISPATCHER_CONTEXT@@PEBU_s_FuncInfo@@@Z 0000000180041ffc     libvcruntime:trnsctrl.obj
 0004:00001008       $pdata$?__SehTransFilter@@YAHPEAU_EXCEPTION_POINTERS@@PEAUEHExceptionRecord@@PEA_KPEAU_CONTEXT@@PEAU_xDISPATCHER_CONTEXT@@PEBU_s_FuncInfo@@PEAH@Z 0000000180042008     libvcruntime:trnsctrl.obj
 0004:00001014       $pdata$_CallSETranslator   0000000180042014     libvcruntime:trnsctrl.obj
 0004:00001020       $pdata$_CreateFrameInfo    0000000180042020     libvcruntime:trnsctrl.obj
 0004:0000102c       $pdata$_FindAndUnlinkFrame 000000018004202c     libvcruntime:trnsctrl.obj
 0004:00001038       $pdata$_GetImageBase       0000000180042038     libvcruntime:trnsctrl.obj
 0004:00001044       $pdata$_GetThrowImageBase  0000000180042044     libvcruntime:trnsctrl.obj
 0004:00001050       $pdata$_IsExceptionObjectToBeDestroyed 0000000180042050     libvcruntime:trnsctrl.obj
 0004:0000105c       $pdata$_SetImageBase       000000018004205c     libvcruntime:trnsctrl.obj
 0004:00001068       $pdata$_SetThrowImageBase  0000000180042068     libvcruntime:trnsctrl.obj
 0004:00001074       $pdata$_UnwindNestedFrames 0000000180042074     libvcruntime:trnsctrl.obj
 0004:00001080       $pdata$__CxxFrameHandler3  0000000180042080     libvcruntime:trnsctrl.obj
 0004:000010bc       $pdata$__vcrt_initialize_locks 00000001800420bc     libvcruntime:locks.obj
 0004:000010c8       $pdata$__vcrt_uninitialize_locks 00000001800420c8     libvcruntime:locks.obj
 0004:000010d4       $pdata$?try_get_function@@YAPEAXW4function_id@?A0x679b24ab@@QEBDQEBW4module_id@2@2@Z 00000001800420d4     libvcruntime:winapi_downlevel.obj
 0004:000010e0       $pdata$__vcrt_FlsAlloc     00000001800420e0     libvcruntime:winapi_downlevel.obj
 0004:000010ec       $pdata$__vcrt_FlsFree      00000001800420ec     libvcruntime:winapi_downlevel.obj
 0004:000010f8       $pdata$__vcrt_FlsGetValue  00000001800420f8     libvcruntime:winapi_downlevel.obj
 0004:00001104       $pdata$__vcrt_FlsSetValue  0000000180042104     libvcruntime:winapi_downlevel.obj
 0004:00001110       $pdata$__vcrt_InitializeCriticalSectionEx 0000000180042110     libvcruntime:winapi_downlevel.obj
 0004:0000111c       $pdata$__vcrt_uninitialize_winapi_thunks 000000018004211c     libvcruntime:winapi_downlevel.obj
 0004:00001128       $pdata$??$common_assert_to_message_box@_W@@YAXQEB_W0IQEAX@Z 0000000180042128     libucrt:assert.obj
 0004:00001134       $pdata$??$common_assert_to_message_box_build_string@_W@@YAXQEA_W_KQEB_W2IQEAX@Z 0000000180042134     libucrt:assert.obj
 0004:00001140       $pdata$??$common_assert_to_stderr@_W@@YAXQEB_W0I@Z 0000000180042140     libucrt:assert.obj
 0004:0000114c       $pdata$_wassert            000000018004214c     libucrt:assert.obj
 0004:00001158       $pdata$fwprintf            0000000180042158     libucrt:assert.obj
 0004:00001164       $pdata$swprintf            0000000180042164     libucrt:assert.obj
 0004:00001170       $pdata$__acrt_call_reportfault 0000000180042170     libucrt:invalid_parameter.obj
 0004:0000117c       $pdata$_invalid_parameter  000000018004217c     libucrt:invalid_parameter.obj
 0004:00001188       $pdata$_invalid_parameter_noinfo 0000000180042188     libucrt:invalid_parameter.obj
 0004:00001194       $pdata$_invalid_parameter_noinfo_noreturn 0000000180042194     libucrt:invalid_parameter.obj
 0004:000011a0       $pdata$_invoke_watson      00000001800421a0     libucrt:invalid_parameter.obj
 0004:000011ac       $pdata$__acrt_initialize_stdio 00000001800421ac     libucrt:_file.obj
 0004:000011b8       $pdata$__acrt_uninitialize_stdio 00000001800421b8     libucrt:_file.obj
 0004:000011c4       $pdata$??$?RV<lambda_7b91131dde12e1c3dfc74ff76b3f2eac>@@AEAV<lambda_dd75445284c072d0bd3768540cc698fa>@@V<lambda_16bc4ecb55b4718497c16bceaea2ceaf>@@@?$__crt_seh_guarded_call@H@@QEAAH$$QEAV<lambda_7b91131dde12e1c3dfc74ff76b3f2eac>@@AEAV<lambda_dd75445284c072d0bd3768540cc698fa>@@$$QEAV<lambda_16bc4ecb55b4718497c16bceaea2ceaf>@@@Z 00000001800421c4     libucrt:output.obj
 0004:000011d0       $pdata$??$ensure_buffer_is_big_enough@D@formatting_buffer@__crt_stdio_output@@QEAA_N_K@Z 00000001800421d0     libucrt:output.obj
 0004:000011dc       $pdata$??$type_case_integer_parse_into_buffer@I@?$output_processor@_WV?$string_output_adapter@_W@__crt_stdio_output@@V?$standard_base@_WV?$string_output_adapter@_W@__crt_stdio_output@@@2@@__crt_stdio_output@@AEAAXII_N@Z 00000001800421dc     libucrt:output.obj
 0004:000011dc       $pdata$??$type_case_integer_parse_into_buffer@I@?$output_processor@_WV?$stream_output_adapter@_W@__crt_stdio_output@@V?$standard_base@_WV?$stream_output_adapter@_W@__crt_stdio_output@@@2@@__crt_stdio_output@@AEAAXII_N@Z 00000001800421dc     libucrt:output.obj
 0004:000011dc       $pdata$??$type_case_integer_parse_into_buffer@I@?$output_processor@DV?$string_output_adapter@D@__crt_stdio_output@@V?$standard_base@DV?$string_output_adapter@D@__crt_stdio_output@@@2@@__crt_stdio_output@@AEAAXII_N@Z 00000001800421dc     libucrt:output.obj
 0004:000011e8       $pdata$??$type_case_integer_parse_into_buffer@_K@?$output_processor@DV?$string_output_adapter@D@__crt_stdio_output@@V?$standard_base@DV?$string_output_adapter@D@__crt_stdio_output@@@2@@__crt_stdio_output@@AEAAX_KI_N@Z 00000001800421e8     libucrt:output.obj
 0004:000011e8       $pdata$??$type_case_integer_parse_into_buffer@_K@?$output_processor@_WV?$string_output_adapter@_W@__crt_stdio_output@@V?$standard_base@_WV?$string_output_adapter@_W@__crt_stdio_output@@@2@@__crt_stdio_output@@AEAAX_KI_N@Z 00000001800421e8     libucrt:output.obj
 0004:000011e8       $pdata$??$type_case_integer_parse_into_buffer@_K@?$output_processor@_WV?$stream_output_adapter@_W@__crt_stdio_output@@V?$standard_base@_WV?$stream_output_adapter@_W@__crt_stdio_output@@@2@@__crt_stdio_output@@AEAAX_KI_N@Z 00000001800421e8     libucrt:output.obj
 0004:000011f4       $pdata$??$write_multiple_characters@V?$stream_output_adapter@_W@__crt_stdio_output@@D@__crt_stdio_output@@YAXAEBV?$stream_output_adapter@_W@0@DHQEAH@Z 00000001800421f4     libucrt:output.obj
 0004:00001200       $pdata$??$write_multiple_characters@V?$string_output_adapter@D@__crt_stdio_output@@D@__crt_stdio_output@@YAXAEBV?$string_output_adapter@D@0@DHQEAH@Z 0000000180042200     libucrt:output.obj
 0004:0000120c       $pdata$??$write_multiple_characters@V?$string_output_adapter@_W@__crt_stdio_output@@D@__crt_stdio_output@@YAXAEBV?$string_output_adapter@_W@0@DHQEAH@Z 000000018004220c     libucrt:output.obj
 0004:00001218       $pdata$??0?$output_processor@DV?$string_output_adapter@D@__crt_stdio_output@@V?$standard_base@DV?$string_output_adapter@D@__crt_stdio_output@@@2@@__crt_stdio_output@@QEAA@AEBV?$string_output_adapter@D@1@_KQEBDQEAU__crt_locale_pointers@@QEAD@Z 0000000180042218     libucrt:output.obj
 0004:00001224       $pdata$??0?$output_processor@_WV?$stream_output_adapter@_W@__crt_stdio_output@@V?$standard_base@_WV?$stream_output_adapter@_W@__crt_stdio_output@@@2@@__crt_stdio_output@@QEAA@AEBV?$stream_output_adapter@_W@1@_KQEB_WQEAU__crt_locale_pointers@@QEAD@Z 0000000180042224     libucrt:output.obj
 0004:00001224       $pdata$??0?$output_processor@_WV?$string_output_adapter@_W@__crt_stdio_output@@V?$standard_base@_WV?$string_output_adapter@_W@__crt_stdio_output@@@2@@__crt_stdio_output@@QEAA@AEBV?$string_output_adapter@_W@1@_KQEB_WQEAU__crt_locale_pointers@@QEAD@Z 0000000180042224     libucrt:output.obj
 0004:00001230       $pdata$??0_LocaleUpdate@@QEAA@QEAU__crt_locale_pointers@@@Z 0000000180042230     libucrt:output.obj
 0004:0000123c       $pdata$??R<lambda_dd75445284c072d0bd3768540cc698fa>@@QEBAHXZ 000000018004223c     libucrt:output.obj
 0004:00001248       $pdata$?force_decimal_point@__crt_stdio_output@@YAXPEADQEAU__crt_locale_pointers@@@Z 0000000180042248     libucrt:output.obj
 0004:00001254       $pdata$?parse_int_from_format_string@?$output_processor@DV?$string_output_adapter@D@__crt_stdio_output@@V?$standard_base@DV?$string_output_adapter@D@__crt_stdio_output@@@2@@__crt_stdio_output@@AEAA_NQEAH@Z 0000000180042254     libucrt:output.obj
 0004:00001260       $pdata$?parse_int_from_format_string@?$output_processor@_WV?$stream_output_adapter@_W@__crt_stdio_output@@V?$standard_base@_WV?$stream_output_adapter@_W@__crt_stdio_output@@@2@@__crt_stdio_output@@AEAA_NQEAH@Z 0000000180042260     libucrt:output.obj
 0004:00001260       $pdata$?parse_int_from_format_string@?$output_processor@_WV?$string_output_adapter@_W@__crt_stdio_output@@V?$standard_base@_WV?$string_output_adapter@_W@__crt_stdio_output@@@2@@__crt_stdio_output@@AEAA_NQEAH@Z 0000000180042260     libucrt:output.obj
 0004:0000126c       $pdata$?process@?$output_processor@DV?$string_output_adapter@D@__crt_stdio_output@@V?$standard_base@DV?$string_output_adapter@D@__crt_stdio_output@@@2@@__crt_stdio_output@@QEAAHXZ 000000018004226c     libucrt:output.obj
 0004:00001278       $pdata$?process@?$output_processor@_WV?$stream_output_adapter@_W@__crt_stdio_output@@V?$standard_base@_WV?$stream_output_adapter@_W@__crt_stdio_output@@@2@@__crt_stdio_output@@QEAAHXZ 0000000180042278     libucrt:output.obj
 0004:00001284       $pdata$?process@?$output_processor@_WV?$string_output_adapter@_W@__crt_stdio_output@@V?$standard_base@_WV?$string_output_adapter@_W@__crt_stdio_output@@@2@@__crt_stdio_output@@QEAAHXZ 0000000180042284     libucrt:output.obj
 0004:00001290       $pdata$?state_case_normal@?$output_processor@DV?$string_output_adapter@D@__crt_stdio_output@@V?$standard_base@DV?$string_output_adapter@D@__crt_stdio_output@@@2@@__crt_stdio_output@@AEAA_NXZ 0000000180042290     libucrt:output.obj
 0004:0000129c       $pdata$?state_case_normal_tchar@?$output_processor@DV?$string_output_adapter@D@__crt_stdio_output@@V?$standard_base@DV?$string_output_adapter@D@__crt_stdio_output@@@2@@__crt_stdio_output@@AEAA_ND@Z 000000018004229c     libucrt:output.obj
 0004:000012a8       $pdata$?state_case_size@?$output_processor@DV?$string_output_adapter@D@__crt_stdio_output@@V?$standard_base@DV?$string_output_adapter@D@__crt_stdio_output@@@2@@__crt_stdio_output@@AEAA_NXZ 00000001800422a8     libucrt:output.obj
 0004:000012b4       $pdata$?state_case_size@?$output_processor@_WV?$stream_output_adapter@_W@__crt_stdio_output@@V?$standard_base@_WV?$stream_output_adapter@_W@__crt_stdio_output@@@2@@__crt_stdio_output@@AEAA_NXZ 00000001800422b4     libucrt:output.obj
 0004:000012c0       $pdata$?state_case_size@?$output_processor@_WV?$string_output_adapter@_W@__crt_stdio_output@@V?$standard_base@_WV?$string_output_adapter@_W@__crt_stdio_output@@@2@@__crt_stdio_output@@AEAA_NXZ 00000001800422c0     libucrt:output.obj
 0004:000012cc       $pdata$?state_case_type@?$output_processor@DV?$string_output_adapter@D@__crt_stdio_output@@V?$standard_base@DV?$string_output_adapter@D@__crt_stdio_output@@@2@@__crt_stdio_output@@AEAA_NXZ 00000001800422cc     libucrt:output.obj
 0004:000012d8       $pdata$?state_case_type@?$output_processor@_WV?$stream_output_adapter@_W@__crt_stdio_output@@V?$standard_base@_WV?$stream_output_adapter@_W@__crt_stdio_output@@@2@@__crt_stdio_output@@AEAA_NXZ 00000001800422d8     libucrt:output.obj
 0004:000012e4       $pdata$?state_case_type@?$output_processor@_WV?$string_output_adapter@_W@__crt_stdio_output@@V?$standard_base@_WV?$string_output_adapter@_W@__crt_stdio_output@@@2@@__crt_stdio_output@@AEAA_NXZ 00000001800422e4     libucrt:output.obj
 0004:000012f0       $pdata$?type_case_Z@?$output_processor@DV?$string_output_adapter@D@__crt_stdio_output@@V?$standard_base@DV?$string_output_adapter@D@__crt_stdio_output@@@2@@__crt_stdio_output@@AEAA_NXZ 00000001800422f0     libucrt:output.obj
 0004:000012fc       $pdata$?type_case_Z@?$output_processor@_WV?$string_output_adapter@_W@__crt_stdio_output@@V?$standard_base@_WV?$string_output_adapter@_W@__crt_stdio_output@@@2@@__crt_stdio_output@@AEAA_NXZ 00000001800422fc     libucrt:output.obj
 0004:000012fc       $pdata$?type_case_Z@?$output_processor@_WV?$stream_output_adapter@_W@__crt_stdio_output@@V?$standard_base@_WV?$stream_output_adapter@_W@__crt_stdio_output@@@2@@__crt_stdio_output@@AEAA_NXZ 00000001800422fc     libucrt:output.obj
 0004:00001308       $pdata$?type_case_a@?$output_processor@DV?$string_output_adapter@D@__crt_stdio_output@@V?$standard_base@DV?$string_output_adapter@D@__crt_stdio_output@@@2@@__crt_stdio_output@@AEAA_NXZ 0000000180042308     libucrt:output.obj
 0004:00001314       $pdata$?type_case_a@?$output_processor@_WV?$string_output_adapter@_W@__crt_stdio_output@@V?$standard_base@_WV?$string_output_adapter@_W@__crt_stdio_output@@@2@@__crt_stdio_output@@AEAA_NXZ 0000000180042314     libucrt:output.obj
 0004:00001314       $pdata$?type_case_a@?$output_processor@_WV?$stream_output_adapter@_W@__crt_stdio_output@@V?$standard_base@_WV?$stream_output_adapter@_W@__crt_stdio_output@@@2@@__crt_stdio_output@@AEAA_NXZ 0000000180042314     libucrt:output.obj
 0004:00001320       $pdata$?type_case_c_tchar@?$output_processor@DV?$string_output_adapter@D@__crt_stdio_output@@V?$standard_base@DV?$string_output_adapter@D@__crt_stdio_output@@@2@@__crt_stdio_output@@AEAA_ND@Z 0000000180042320     libucrt:output.obj
 0004:0000132c       $pdata$?type_case_c_tchar@?$output_processor@_WV?$string_output_adapter@_W@__crt_stdio_output@@V?$standard_base@_WV?$string_output_adapter@_W@__crt_stdio_output@@@2@@__crt_stdio_output@@AEAA_N_W@Z 000000018004232c     libucrt:output.obj
 0004:0000132c       $pdata$?type_case_c_tchar@?$output_processor@_WV?$stream_output_adapter@_W@__crt_stdio_output@@V?$standard_base@_WV?$stream_output_adapter@_W@__crt_stdio_output@@@2@@__crt_stdio_output@@AEAA_N_W@Z 000000018004232c     libucrt:output.obj
 0004:00001338       $pdata$?type_case_integer@?$output_processor@_WV?$string_output_adapter@_W@__crt_stdio_output@@V?$standard_base@_WV?$string_output_adapter@_W@__crt_stdio_output@@@2@@__crt_stdio_output@@AEAA_NI_N@Z 0000000180042338     libucrt:output.obj
 0004:00001338       $pdata$?type_case_integer@?$output_processor@DV?$string_output_adapter@D@__crt_stdio_output@@V?$standard_base@DV?$string_output_adapter@D@__crt_stdio_output@@@2@@__crt_stdio_output@@AEAA_NI_N@Z 0000000180042338     libucrt:output.obj
 0004:00001338       $pdata$?type_case_integer@?$output_processor@_WV?$stream_output_adapter@_W@__crt_stdio_output@@V?$standard_base@_WV?$stream_output_adapter@_W@__crt_stdio_output@@@2@@__crt_stdio_output@@AEAA_NI_N@Z 0000000180042338     libucrt:output.obj
 0004:00001344       $pdata$?type_case_n@?$output_processor@_WV?$stream_output_adapter@_W@__crt_stdio_output@@V?$standard_base@_WV?$stream_output_adapter@_W@__crt_stdio_output@@@2@@__crt_stdio_output@@AEAA_NXZ 0000000180042344     libucrt:output.obj
 0004:00001344       $pdata$?type_case_n@?$output_processor@DV?$string_output_adapter@D@__crt_stdio_output@@V?$standard_base@DV?$string_output_adapter@D@__crt_stdio_output@@@2@@__crt_stdio_output@@AEAA_NXZ 0000000180042344     libucrt:output.obj
 0004:00001344       $pdata$?type_case_n@?$output_processor@_WV?$string_output_adapter@_W@__crt_stdio_output@@V?$standard_base@_WV?$string_output_adapter@_W@__crt_stdio_output@@@2@@__crt_stdio_output@@AEAA_NXZ 0000000180042344     libucrt:output.obj
 0004:00001350       $pdata$?type_case_s@?$output_processor@DV?$string_output_adapter@D@__crt_stdio_output@@V?$standard_base@DV?$string_output_adapter@D@__crt_stdio_output@@@2@@__crt_stdio_output@@AEAA_NXZ 0000000180042350     libucrt:output.obj
 0004:0000135c       $pdata$?type_case_s@?$output_processor@_WV?$stream_output_adapter@_W@__crt_stdio_output@@V?$standard_base@_WV?$stream_output_adapter@_W@__crt_stdio_output@@@2@@__crt_stdio_output@@AEAA_NXZ 000000018004235c     libucrt:output.obj
 0004:0000135c       $pdata$?type_case_s@?$output_processor@_WV?$string_output_adapter@_W@__crt_stdio_output@@V?$standard_base@_WV?$string_output_adapter@_W@__crt_stdio_output@@@2@@__crt_stdio_output@@AEAA_NXZ 000000018004235c     libucrt:output.obj
 0004:00001368       $pdata$?write_stored_string_tchar@?$output_processor@DV?$string_output_adapter@D@__crt_stdio_output@@V?$standard_base@DV?$string_output_adapter@D@__crt_stdio_output@@@2@@__crt_stdio_output@@AEAA_ND@Z 0000000180042368     libucrt:output.obj
 0004:00001374       $pdata$?write_stored_string_tchar@?$output_processor@_WV?$stream_output_adapter@_W@__crt_stdio_output@@V?$standard_base@_WV?$stream_output_adapter@_W@__crt_stdio_output@@@2@@__crt_stdio_output@@AEAA_N_W@Z 0000000180042374     libucrt:output.obj
 0004:00001380       $pdata$?write_stored_string_tchar@?$output_processor@_WV?$string_output_adapter@_W@__crt_stdio_output@@V?$standard_base@_WV?$string_output_adapter@_W@__crt_stdio_output@@@2@@__crt_stdio_output@@AEAA_N_W@Z 0000000180042380     libucrt:output.obj
 0004:0000138c       $pdata$?write_string@?$stream_output_adapter@_W@__crt_stdio_output@@QEBAXQEB_WHQEAH1@Z 000000018004238c     libucrt:output.obj
 0004:00001398       $pdata$?write_string@?$string_output_adapter@D@__crt_stdio_output@@QEBAXQEBDHQEAH1@Z 0000000180042398     libucrt:output.obj
 0004:000013a4       $pdata$?write_string@?$string_output_adapter@_W@__crt_stdio_output@@QEBAXQEB_WHQEAH1@Z 00000001800423a4     libucrt:output.obj
 0004:000013b0       $pdata$__stdio_common_vfwprintf 00000001800423b0     libucrt:output.obj
 0004:000013bc       $pdata$__stdio_common_vsprintf 00000001800423bc     libucrt:output.obj
 0004:000013c8       $pdata$__stdio_common_vswprintf 00000001800423c8     libucrt:output.obj
 0004:000013d4       $pdata$??$common_fsopen@D@@YAPEAU_iobuf@@QEBD0H@Z 00000001800423d4     libucrt:fopen.obj
 0004:000013e0       $pdata$_fclose_nolock      00000001800423e0     libucrt:fclose.obj
 0004:000013ec       $pdata$fclose              00000001800423ec     libucrt:fclose.obj
 0004:000013f8       $pdata$?common_fseek@@YAHV__crt_stdio_stream@@_JH@Z 00000001800423f8     libucrt:fseek.obj
 0004:00001404       $pdata$?common_fseek_binary_mode_read_only_fast_track_nolock@@YA_NV__crt_stdio_stream@@_JH@Z 0000000180042404     libucrt:fseek.obj
 0004:00001410       $pdata$?common_fseek_nolock@@YAHV__crt_stdio_stream@@_JH@Z 0000000180042410     libucrt:fseek.obj
 0004:0000141c       $pdata$_fread_nolock_s     000000018004241c     libucrt:fread.obj
 0004:00001428       $pdata$fread               0000000180042428     libucrt:fread.obj
 0004:00001434       $pdata$fread_s             0000000180042434     libucrt:fread.obj
 0004:00001440       $pdata$_callnewh           0000000180042440     libucrt:new_handler.obj
 0004:0000144c       $pdata$_query_new_handler  000000018004244c     libucrt:new_handler.obj
 0004:00001458       $pdata$_seh_filter_exe     0000000180042458     libucrt:exception_filter.obj
 0004:00001464       $pdata$?common_exit@@YAXHW4_crt_exit_cleanup_mode@@W4_crt_exit_return_mode@@@Z 0000000180042464     libucrt:exit.obj
 0004:00001470       $pdata$?exit_or_terminate_process@@YAXI@Z 0000000180042470     libucrt:exit.obj
 0004:0000147c       $pdata$?try_cor_exit_process@@YAXI@Z 000000018004247c     libucrt:exit.obj
 0004:00001488       $pdata$??$parse_command_line@D@@YAXPEADPEAPEAD0PEA_K2@Z 0000000180042488     libucrt:argv_parsing.obj
 0004:00001494       $pdata$__acrt_allocate_buffer_for_argv 0000000180042494     libucrt:argv_parsing.obj
 0004:000014a0       $pdata$_configure_narrow_argv 00000001800424a0     libucrt:argv_parsing.obj
 0004:000014ac       $pdata$??$common_initialize_environment_nolock@D@@YAHXZ 00000001800424ac     libucrt:environment_initialization.obj
 0004:000014b8       $pdata$??$create_environment@D@@YAQEAPEADQEAD@Z 00000001800424b8     libucrt:environment_initialization.obj
 0004:000014c4       $pdata$??$free_environment@_W@@YAXQEAPEA_W@Z 00000001800424c4     libucrt:environment_initialization.obj
 0004:000014c4       $pdata$??$free_environment@D@@YAXQEAPEAD@Z 00000001800424c4     libucrt:environment_initialization.obj
 0004:000014d0       $pdata$??$uninitialize_environment_internal@D@@YAXAEAPEAPEAD@Z 00000001800424d0     libucrt:environment_initialization.obj
 0004:000014dc       $pdata$??$uninitialize_environment_internal@_W@@YAXAEAPEAPEA_W@Z 00000001800424dc     libucrt:environment_initialization.obj
 0004:000014e8       $pdata$__dcrt_uninitialize_environments_nolock 00000001800424e8     libucrt:environment_initialization.obj
 0004:000014f4       $pdata$??$?RV<lambda_b8c45f8f788dd370798f47cfe8ac3a86>@@AEAV<lambda_4e60a939b0d047cfe11ddc22648dfba9>@@V<lambda_332c3edc96d0294ec56c57d38c1cdfd5>@@@?$__crt_seh_guarded_call@H@@QEAAH$$QEAV<lambda_b8c45f8f788dd370798f47cfe8ac3a86>@@AEAV<lambda_4e60a939b0d047cfe11ddc22648dfba9>@@$$QEAV<lambda_332c3edc96d0294ec56c57d38c1cdfd5>@@@Z 00000001800424f4     libucrt:onexit.obj
 0004:00001500       $pdata$??$?RV<lambda_e24bbb7b643b32fcea6fa61b31d4c984>@@AEAV<lambda_275893d493268fdec8709772e3fcec0e>@@V<lambda_9d71df4d7cf3f480f8d633942495c3b0>@@@?$__crt_seh_guarded_call@H@@QEAAH$$QEAV<lambda_e24bbb7b643b32fcea6fa61b31d4c984>@@AEAV<lambda_275893d493268fdec8709772e3fcec0e>@@$$QEAV<lambda_9d71df4d7cf3f480f8d633942495c3b0>@@@Z 0000000180042500     libucrt:onexit.obj
 0004:0000150c       $pdata$??R<lambda_4e60a939b0d047cfe11ddc22648dfba9>@@QEBAHXZ 000000018004250c     libucrt:onexit.obj
 0004:00001518       $pdata$_execute_onexit_table 0000000180042518     libucrt:onexit.obj
 0004:00001524       $pdata$_register_onexit_function 0000000180042524     libucrt:onexit.obj
 0004:00001530       $pdata$initialize_c        0000000180042530     libucrt:initialization.obj
 0004:0000153c       $pdata$uninitialize_environment 000000018004253c     libucrt:initialization.obj
 0004:00001548       $pdata$initialize_pointers 0000000180042548     libucrt:initialization.obj
 0004:00001554       $pdata$uninitialize_allocated_memory 0000000180042554     libucrt:initialization.obj
 0004:00001560       $pdata$__acrt_thread_attach 0000000180042560     libucrt:initialization.obj
 0004:0000156c       $pdata$__acrt_thread_detach 000000018004256c     libucrt:initialization.obj
 0004:00001578       $pdata$__acrt_uninitialize_critical 0000000180042578     libucrt:initialization.obj
 0004:00001584       $pdata$_initterm           0000000180042584     libucrt:initterm.obj
 0004:00001590       $pdata$_initterm_e         0000000180042590     libucrt:initterm.obj
 0004:0000159c       $pdata$terminate           000000018004259c     libucrt:terminate.obj
 0004:000015a8       $pdata$_strdup             00000001800425a8     libucrt:strdup.obj
 0004:000015b4       $pdata$strcpy_s            00000001800425b4     libucrt:strcpy_s.obj
 0004:000015c0       $pdata$_free_base          00000001800425c0     libucrt:free_base.obj
 0004:000015cc       $pdata$_malloc_base        00000001800425cc     libucrt:malloc_base.obj
 0004:000015d8       $pdata$abort               00000001800425d8     libucrt:abort.obj
 0004:000015e4       $pdata$_calloc_base        00000001800425e4     libucrt:calloc_base.obj
 0004:000015f0       $pdata$??$parse_integer@KV?$c_string_character_source@D@__crt_strtox@@@__crt_strtox@@YAKQEAU__crt_locale_pointers@@V?$c_string_character_source@D@0@H_N@Z 00000001800425f0     libucrt:atox.obj
 0004:000015fc       $pdata$??$parse_integer@KV?$c_string_character_source@_W@__crt_strtox@@@__crt_strtox@@YAKQEAU__crt_locale_pointers@@V?$c_string_character_source@_W@0@H_N@Z 00000001800425fc     libucrt:atox.obj
 0004:00001608       $pdata$_realloc_base       0000000180042608     libucrt:realloc_base.obj
 0004:00001614       $pdata$__acrt_errno_map_os_error 0000000180042614     libucrt:errno.obj
 0004:00001620       $pdata$__doserrno          0000000180042620     libucrt:errno.obj
 0004:0000162c       $pdata$_errno              000000018004262c     libucrt:errno.obj
 0004:00001638       $pdata$??$common_xtox@K_W@@YAHKQEA_W_KI_N@Z 0000000180042638     libucrt:xtoa.obj
 0004:00001644       $pdata$??$common_xtox_s@K_W@@YAHKQEA_W_KI_N@Z 0000000180042644     libucrt:xtoa.obj
 0004:00001650       $pdata$_itow_s             0000000180042650     libucrt:xtoa.obj
 0004:0000165c       $pdata$_set_error_mode     000000018004265c     libucrt:set_error_mode.obj
 0004:00001668       $pdata$wcscat_s            0000000180042668     libucrt:wcscat_s.obj
 0004:00001674       $pdata$wcscpy_s            0000000180042674     libucrt:wcscpy_s.obj
 0004:00001680       $pdata$wcsncat_s           0000000180042680     libucrt:wcsncat_s.obj
 0004:0000168c       $pdata$??$message_box_wait_thread@_W@@YAKQEAX@Z 000000018004268c     libucrt:crtmbox.obj
 0004:00001698       $pdata$__acrt_show_wide_message_box 0000000180042698     libucrt:crtmbox.obj
 0004:000016a4       $pdata$__acrt_stdio_flush_nolock 00000001800426a4     libucrt:fflush.obj
 0004:000016b0       $pdata$_fflush_nolock      00000001800426b0     libucrt:fflush.obj
 0004:000016bc       $pdata$common_flush_all    00000001800426bc     libucrt:fflush.obj
 0004:000016c8       $pdata$fflush              00000001800426c8     libucrt:fflush.obj
 0004:000016d4       $pdata$??$?RV<lambda_7a5ef57ff966f610505f1d28a3d40618>@@AEAV<lambda_b721fa326cdb32351d23dfa67958c160>@@V<lambda_5e0fb27672408a07956fe59e48ccb2aa>@@@?$__crt_seh_guarded_call@H@@QEAAH$$QEAV<lambda_7a5ef57ff966f610505f1d28a3d40618>@@AEAV<lambda_b721fa326cdb32351d23dfa67958c160>@@$$QEAV<lambda_5e0fb27672408a07956fe59e48ccb2aa>@@@Z 00000001800426d4     libucrt:setvbuf.obj
 0004:000016e0       $pdata$??R<lambda_b721fa326cdb32351d23dfa67958c160>@@QEBAHXZ 00000001800426e0     libucrt:setvbuf.obj
 0004:000016ec       $pdata$setvbuf             00000001800426ec     libucrt:setvbuf.obj
 0004:000016f8       $pdata$??$?RV<lambda_c36588078e9f5dfd39652860aa6b3aaf>@@AEAV<lambda_ec61778202f4f5fc7e7711acc23c3bca>@@V<lambda_dc9d2797ccde5d239b4a0efae8ebd7db>@@@?$__crt_seh_guarded_call@P6AXH@Z@@QEAAP6AXH@Z$$QEAV<lambda_c36588078e9f5dfd39652860aa6b3aaf>@@AEAV<lambda_ec61778202f4f5fc7e7711acc23c3bca>@@$$QEAV<lambda_dc9d2797ccde5d239b4a0efae8ebd7db>@@@Z 00000001800426f8     libucrt:signal.obj
 0004:00001704       $pdata$__acrt_get_sigabrt_handler 0000000180042704     libucrt:signal.obj
 0004:00001710       $pdata$raise               0000000180042710     libucrt:signal.obj
 0004:0000171c       $pdata$_call_matherr       000000018004271c     libucrt:libm_error.obj
 0004:00001728       $pdata$_exception_enabled  0000000180042728     libucrt:libm_error.obj
 0004:00001734       $pdata$_handle_error       0000000180042734     libucrt:libm_error.obj
 0004:00001740       $pdata$_handle_errorf      0000000180042740     libucrt:libm_error.obj
 0004:0000174c       $pdata$??$?RV<lambda_46352004c1216016012b18bd6f87e700>@@AEAV<lambda_3bd07e1a1191394380780325891bf33f>@@V<lambda_334532d3f185bcaa59b5be82d7d22bff>@@@?$__crt_seh_guarded_call@X@@QEAAX$$QEAV<lambda_46352004c1216016012b18bd6f87e700>@@AEAV<lambda_3bd07e1a1191394380780325891bf33f>@@$$QEAV<lambda_334532d3f185bcaa59b5be82d7d22bff>@@@Z 000000018004274c     libucrt:per_thread_data.obj
 0004:00001758       $pdata$??$?RV<lambda_5e887d1dcbef67a5eb4283622ba103bf>@@AEAV<lambda_4466841279450cc726390878d4a41900>@@V<lambda_341c25c0346d94847f1f3c463c57e077>@@@?$__crt_seh_guarded_call@X@@QEAAX$$QEAV<lambda_5e887d1dcbef67a5eb4283622ba103bf>@@AEAV<lambda_4466841279450cc726390878d4a41900>@@$$QEAV<lambda_341c25c0346d94847f1f3c463c57e077>@@@Z 0000000180042758     libucrt:per_thread_data.obj
 0004:00001764       $pdata$??$?RV<lambda_72d1df2b273a38828b1ce30cbf4cdab5>@@AEAV<lambda_876a65b173b8412d3a47c70a915b0cf4>@@V<lambda_41932305e351933ebe8f8be3ed8bb5dc>@@@?$__crt_seh_guarded_call@X@@QEAAX$$QEAV<lambda_72d1df2b273a38828b1ce30cbf4cdab5>@@AEAV<lambda_876a65b173b8412d3a47c70a915b0cf4>@@$$QEAV<lambda_41932305e351933ebe8f8be3ed8bb5dc>@@@Z 0000000180042764     libucrt:per_thread_data.obj
 0004:00001770       $pdata$??$?RV<lambda_fb3a7dec4e47f37f22dae91bb15c9095>@@AEAV<lambda_698284760c8add0bfb0756c19673e34b>@@V<lambda_dfb8eca1e75fef3034a8fb18dd509707>@@@?$__crt_seh_guarded_call@X@@QEAAX$$QEAV<lambda_fb3a7dec4e47f37f22dae91bb15c9095>@@AEAV<lambda_698284760c8add0bfb0756c19673e34b>@@$$QEAV<lambda_dfb8eca1e75fef3034a8fb18dd509707>@@@Z 0000000180042770     libucrt:per_thread_data.obj
 0004:0000177c       $pdata$?construct_ptd_array@@YAXQEAU__acrt_ptd@@@Z 000000018004277c     libucrt:per_thread_data.obj
 0004:00001788       $pdata$?destroy_fls@@YAXPEAX@Z 0000000180042788     libucrt:per_thread_data.obj
 0004:00001794       $pdata$?destroy_ptd_array@@YAXQEAU__acrt_ptd@@@Z 0000000180042794     libucrt:per_thread_data.obj
 0004:000017a0       $pdata$?replace_current_thread_locale_nolock@@YAXQEAU__acrt_ptd@@QEAU__crt_locale_data@@@Z 00000001800427a0     libucrt:per_thread_data.obj
 0004:000017ac       $pdata$__acrt_freeptd      00000001800427ac     libucrt:per_thread_data.obj
 0004:000017b8       $pdata$__acrt_getptd       00000001800427b8     libucrt:per_thread_data.obj
 0004:000017c4       $pdata$__acrt_getptd_noexit 00000001800427c4     libucrt:per_thread_data.obj
 0004:000017d0       $pdata$__acrt_initialize_ptd 00000001800427d0     libucrt:per_thread_data.obj
 0004:000017dc       $pdata$__acrt_uninitialize_ptd 00000001800427dc     libucrt:per_thread_data.obj
 0004:000017e8       $pdata$?try_get_function@@YAPEAXW4function_id@?A0x63058377@@QEBDQEBW4module_id@2@2@Z 00000001800427e8     libucrt:winapi_thunks.obj
 0004:000017f4       $pdata$__acrt_AreFileApisANSI 00000001800427f4     libucrt:winapi_thunks.obj
 0004:00001800       $pdata$__acrt_FlsAlloc     0000000180042800     libucrt:winapi_thunks.obj
 0004:0000180c       $pdata$__acrt_FlsFree      000000018004280c     libucrt:winapi_thunks.obj
 0004:00001818       $pdata$__acrt_FlsGetValue  0000000180042818     libucrt:winapi_thunks.obj
 0004:00001824       $pdata$__acrt_FlsSetValue  0000000180042824     libucrt:winapi_thunks.obj
 0004:00001830       $pdata$__acrt_InitializeCriticalSectionEx 0000000180042830     libucrt:winapi_thunks.obj
 0004:0000183c       $pdata$__acrt_LCMapStringEx 000000018004283c     libucrt:winapi_thunks.obj
 0004:00001848       $pdata$__acrt_LocaleNameToLCID 0000000180042848     libucrt:winapi_thunks.obj
 0004:00001854       $pdata$__acrt_MessageBoxW  0000000180042854     libucrt:winapi_thunks.obj
 0004:00001860       $pdata$__acrt_can_show_message_box 0000000180042860     libucrt:winapi_thunks.obj
 0004:0000186c       $pdata$__acrt_get_parent_window 000000018004286c     libucrt:winapi_thunks.obj
 0004:00001878       $pdata$__acrt_initialize_winapi_thunks 0000000180042878     libucrt:winapi_thunks.obj
 0004:00001884       $pdata$__acrt_is_interactive 0000000180042884     libucrt:winapi_thunks.obj
 0004:00001890       $pdata$__acrt_is_packaged_app 0000000180042890     libucrt:winapi_thunks.obj
 0004:0000189c       $pdata$__acrt_uninitialize_winapi_thunks 000000018004289c     libucrt:winapi_thunks.obj
 0004:000018a8       $pdata$_fcloseall          00000001800428a8     libucrt:closeall.obj
 0004:000018b4       $pdata$__acrt_stdio_free_buffer_nolock 00000001800428b4     libucrt:_freebuf.obj
 0004:000018c0       $pdata$?initialize_inherited_file_handles_nolock@@YAXXZ 00000001800428c0     libucrt:ioinit.obj
 0004:000018cc       $pdata$?initialize_stdio_handles_nolock@@YAXXZ 00000001800428cc     libucrt:ioinit.obj
 0004:000018d8       $pdata$__acrt_initialize_lowio 00000001800428d8     libucrt:ioinit.obj
 0004:000018e4       $pdata$__acrt_uninitialize_lowio 00000001800428e4     libucrt:ioinit.obj
 0004:000018f0       $pdata$isdigit             00000001800428f0     libucrt:_ctype.obj
 0004:000018fc       $pdata$?internal_isupper_l@@YA_NHQEAU__crt_locale_pointers@@@Z 00000001800428fc     libucrt:tolower_toupper.obj
 0004:00001908       $pdata$_tolower_l          0000000180042908     libucrt:tolower_toupper.obj
 0004:00001914       $pdata$tolower             0000000180042914     libucrt:tolower_toupper.obj
 0004:00001920       $pdata$strtol              0000000180042920     libucrt:strtox.obj
 0004:0000192c       $pdata$wcstol              000000018004292c     libucrt:strtox.obj
 0004:00001938       $pdata$_mbtowc_l           0000000180042938     libucrt:mbtowc.obj
 0004:00001944       $pdata$_wctomb_s_l         0000000180042944     libucrt:wctomb.obj
 0004:00001950       $pdata$wctomb_s            0000000180042950     libucrt:wctomb.obj
 0004:0000195c       $pdata$strnlen             000000018004295c     libucrt:strnlen.obj
 0004:00001968       $pdata$wcsnlen             0000000180042968     libucrt:strnlen.obj
 0004:00001974       $pdata$__acrt_update_locale_info 0000000180042974     libucrt:locale_update.obj
 0004:00001980       $pdata$__acrt_update_multibyte_info 0000000180042980     libucrt:locale_update.obj
 0004:0000198c       $pdata$?fp_format_a@@YAHQEBNPEAD_KQEAD2H_NIQEAU__crt_locale_pointers@@@Z 000000018004298c     libucrt:cvt.obj
 0004:00001998       $pdata$?fp_format_e@@YAHQEBNQEAD_K12H_NIQEAU__crt_locale_pointers@@@Z 0000000180042998     libucrt:cvt.obj
 0004:000019a4       $pdata$?fp_format_e_internal@@YAHQEAD_KH_NIQEAU_strflt@@2QEAU__crt_locale_pointers@@@Z 00000001800429a4     libucrt:cvt.obj
 0004:000019b0       $pdata$?fp_format_f_internal@@YAHQEAD_KHQEAU_strflt@@_NQEAU__crt_locale_pointers@@@Z 00000001800429b0     libucrt:cvt.obj
 0004:000019bc       $pdata$?fp_format_g@@YAHQEBNQEAD_K12H_NIQEAU__crt_locale_pointers@@@Z 00000001800429bc     libucrt:cvt.obj
 0004:000019c8       $pdata$?fp_format_nan_or_infinity@@YAHW4__acrt_fp_class@@_NPEAD_K1@Z 00000001800429c8     libucrt:cvt.obj
 0004:000019d4       $pdata$__acrt_fp_format    00000001800429d4     libucrt:cvt.obj
 0004:000019e0       $pdata$_fputwc_nolock      00000001800429e0     libucrt:fputwc.obj
 0004:000019ec       $pdata$_fileno             00000001800429ec     libucrt:fileno.obj
 0004:000019f8       $pdata$__acrt_stdio_begin_temporary_buffering_nolock 00000001800429f8     libucrt:_sftbuf.obj
 0004:00001a04       $pdata$__acrt_stdio_end_temporary_buffering_nolock 0000000180042a04     libucrt:_sftbuf.obj
 0004:00001a10       $pdata$__acrt_uninitialize_locale 0000000180042a10     libucrt:wsetlocale.obj
 0004:00001a1c       $pdata$?__acrt_stdio_allocate_stream@@YA?AV__crt_stdio_stream@@XZ 0000000180042a1c     libucrt:stream.obj
 0004:00001a28       $pdata$?find_or_allocate_unused_stream_nolock@@YA?AV__crt_stdio_stream@@XZ 0000000180042a28     libucrt:stream.obj
 0004:00001a34       $pdata$??$__acrt_stdio_parse_mode@D@@YA?AU__acrt_stdio_stream_mode@@QEBD@Z 0000000180042a34     libucrt:openfile.obj
 0004:00001a40       $pdata$_openfile           0000000180042a40     libucrt:openfile.obj
 0004:00001a4c       $pdata$??$?RV<lambda_bfedae4ebbf01fab1bb6dcc6a9e276e0>@@AEAV<lambda_2fe9b910cf3cbf4a0ab98a02ba45b3ec>@@V<lambda_237c231691f317818eb88cc1d5d642d6>@@@?$__crt_seh_guarded_call@H@@QEAAH$$QEAV<lambda_bfedae4ebbf01fab1bb6dcc6a9e276e0>@@AEAV<lambda_2fe9b910cf3cbf4a0ab98a02ba45b3ec>@@$$QEAV<lambda_237c231691f317818eb88cc1d5d642d6>@@@Z 0000000180042a4c     libucrt:close.obj
 0004:00001a58       $pdata$_close              0000000180042a58     libucrt:close.obj
 0004:00001a64       $pdata$_close_nolock       0000000180042a64     libucrt:close.obj
 0004:00001a70       $pdata$??$common_ftell_nolock@_J@@YA_JV__crt_stdio_stream@@@Z 0000000180042a70     libucrt:ftell.obj
 0004:00001a7c       $pdata$?common_ftell_read_mode_nolock@@YA_JV__crt_stdio_stream@@_J1@Z 0000000180042a7c     libucrt:ftell.obj
 0004:00001a88       $pdata$?common_ftell_translated_utf8_nolock@@YA_JV__crt_stdio_stream@@_J@Z 0000000180042a88     libucrt:ftell.obj
 0004:00001a94       $pdata$??$common_lseek@_J@@YA_JH_JH@Z 0000000180042a94     libucrt:lseek.obj
 0004:00001aa0       $pdata$??$common_lseek_nolock@_J@@YA_JH_JH@Z 0000000180042aa0     libucrt:lseek.obj
 0004:00001aac       $pdata$??$translate_text_mode_nolock@_W@@YAHHQEA_W_K@Z 0000000180042aac     libucrt:read.obj
 0004:00001ab8       $pdata$?translate_ansi_or_utf8_nolock@@YAHHQEAD_KQEA_W1@Z 0000000180042ab8     libucrt:read.obj
 0004:00001ac4       $pdata$_read               0000000180042ac4     libucrt:read.obj
 0004:00001ad0       $pdata$_read_nolock        0000000180042ad0     libucrt:read.obj
 0004:00001adc       $pdata$??$common_refill_and_read_nolock@D@@YAHV__crt_stdio_stream@@@Z 0000000180042adc     libucrt:_filbuf.obj
 0004:00001ae8       $pdata$__acrt_initialize_locks 0000000180042ae8     libucrt:locks.obj
 0004:00001af4       $pdata$__acrt_uninitialize_locks 0000000180042af4     libucrt:locks.obj
 0004:00001b00       $pdata$??$common_expand_argv_wildcards@D@@YAHQEAPEADQEAPEAPEAD@Z 0000000180042b00     libucrt:argv_wildcards.obj
 0004:00001b0c       $pdata$??$copy_and_add_argument_to_buffer@D@@YAHQEBD0_KAEAV?$argument_list@D@?A0xca0879c4@@@Z 0000000180042b0c     libucrt:argv_wildcards.obj
 0004:00001b18       $pdata$??$expand_argument_wildcards@D@@YAHQEAD0AEAV?$argument_list@D@?A0xca0879c4@@@Z 0000000180042b18     libucrt:argv_wildcards.obj
 0004:00001b24       $pdata$?expand_if_necessary@?$argument_list@D@?A0xca0879c4@@AEAAHXZ 0000000180042b24     libucrt:argv_wildcards.obj
 0004:00001b30       $pdata$??$?RV<lambda_99476a1ad63dd22509b5d3e65b0ffc95>@@AEAV<lambda_ad1ced32f4ac17aa236e5ef05d6b3b7c>@@V<lambda_f7424dd8d45958661754dc4f2697e9c3>@@@?$__crt_seh_guarded_call@X@@QEAAX$$QEAV<lambda_99476a1ad63dd22509b5d3e65b0ffc95>@@AEAV<lambda_ad1ced32f4ac17aa236e5ef05d6b3b7c>@@$$QEAV<lambda_f7424dd8d45958661754dc4f2697e9c3>@@@Z 0000000180042b30     libucrt:mbctype.obj
 0004:00001b3c       $pdata$??R<lambda_ad1ced32f4ac17aa236e5ef05d6b3b7c>@@QEBAXXZ 0000000180042b3c     libucrt:mbctype.obj
 0004:00001b48       $pdata$?getSystemCP@@YAHH@Z 0000000180042b48     libucrt:mbctype.obj
 0004:00001b54       $pdata$?setSBCS@@YAXPEAU__crt_multibyte_data@@@Z 0000000180042b54     libucrt:mbctype.obj
 0004:00001b60       $pdata$?setSBUpLow@@YAXPEAU__crt_multibyte_data@@@Z 0000000180042b60     libucrt:mbctype.obj
 0004:00001b6c       $pdata$?setmbcp_internal@@YAHH_N@Z 0000000180042b6c     libucrt:mbctype.obj
 0004:00001b78       $pdata$__acrt_initialize_multibyte 0000000180042b78     libucrt:mbctype.obj
 0004:00001b84       $pdata$__acrt_update_thread_multibyte_data 0000000180042b84     libucrt:mbctype.obj
 0004:00001b90       $pdata$_setmbcp_nolock     0000000180042b90     libucrt:mbctype.obj
 0004:00001b9c       $pdata$?x_ismbbtype_l@@YAHPEAU__crt_locale_pointers@@IHH@Z 0000000180042b9c     libucrt:ismbbyte.obj
 0004:00001ba8       $pdata$__acrt_initialize_command_line 0000000180042ba8     libucrt:argv_data.obj
 0004:00001bb4       $pdata$__dcrt_get_narrow_environment_from_os 0000000180042bb4     libucrt:get_environment_from_os.obj
 0004:00001bc0       $pdata$_recalloc_base      0000000180042bc0     libucrt:recalloc.obj
 0004:00001bcc       $pdata$__acrt_initialize_heap 0000000180042bcc     libucrt:heap_handle.obj
 0004:00001bd8       $pdata$__acrt_execute_initializers 0000000180042bd8     libucrt:shared_initialization.obj
 0004:00001be4       $pdata$__acrt_execute_uninitializers 0000000180042be4     libucrt:shared_initialization.obj
 0004:00001bf0       $pdata$__acrt_invoke_user_matherr 0000000180042bf0     libucrt:matherr.obj
 0004:00001bfc       $pdata$__pctype_func       0000000180042bfc     libucrt:ctype.obj
 0004:00001c08       $pdata$iswctype            0000000180042c08     libucrt:iswctype.obj
 0004:00001c14       $pdata$_isctype_l          0000000180042c14     libucrt:isctype.obj
 0004:00001c20       $pdata$??$?RV<lambda_b521505b218e5242e90febf6bfebc422>@@AEAV<lambda_6978c1fb23f02e42e1d9e99668cc68aa>@@V<lambda_314360699dd331753a4119843814e9a7>@@@?$__crt_seh_guarded_call@H@@QEAAH$$QEAV<lambda_b521505b218e5242e90febf6bfebc422>@@AEAV<lambda_6978c1fb23f02e42e1d9e99668cc68aa>@@$$QEAV<lambda_314360699dd331753a4119843814e9a7>@@@Z 0000000180042c20     libucrt:commit.obj
 0004:00001c2c       $pdata$_commit             0000000180042c2c     libucrt:commit.obj
 0004:00001c38       $pdata$?write_double_translated_ansi_nolock@@YA?AUwrite_result@?A0x9c548279@@HQEBDI@Z 0000000180042c38     libucrt:write.obj
 0004:00001c44       $pdata$?write_text_ansi_nolock@@YA?AUwrite_result@?A0x9c548279@@HQEBDI@Z 0000000180042c44     libucrt:write.obj
 0004:00001c50       $pdata$?write_text_utf16le_nolock@@YA?AUwrite_result@?A0x9c548279@@HQEBDI@Z 0000000180042c50     libucrt:write.obj
 0004:00001c5c       $pdata$?write_text_utf8_nolock@@YA?AUwrite_result@?A0x9c548279@@HQEBDI@Z 0000000180042c5c     libucrt:write.obj
 0004:00001c68       $pdata$_write              0000000180042c68     libucrt:write.obj
 0004:00001c74       $pdata$_write_nolock       0000000180042c74     libucrt:write.obj
 0004:00001c80       $pdata$_raise_exc          0000000180042c80     libucrt:fpexcept.obj
 0004:00001c8c       $pdata$_raise_exc_ex       0000000180042c8c     libucrt:fpexcept.obj
 0004:00001c98       $pdata$_raise_excf         0000000180042c98     libucrt:fpexcept.obj
 0004:00001ca4       $pdata$_set_errno_from_matherr 0000000180042ca4     libucrt:fpexcept.obj
 0004:00001cb0       $pdata$_clrfp              0000000180042cb0     libucrt:fpctrl.obj
 0004:00001cbc       $pdata$_ctrlfp             0000000180042cbc     libucrt:fpctrl.obj
 0004:00001cc8       $pdata$_set_statfp         0000000180042cc8     libucrt:fpctrl.obj
 0004:00001cd4       $pdata$_statfp             0000000180042cd4     libucrt:fpctrl.obj
 0004:00001ce0       $pdata$__acrt_free_locale  0000000180042ce0     libucrt:locale_refcounting.obj
 0004:00001cec       $pdata$__acrt_locale_free_lc_time_if_unreferenced 0000000180042cec     libucrt:locale_refcounting.obj
 0004:00001cf8       $pdata$__acrt_release_locale_ref 0000000180042cf8     libucrt:locale_refcounting.obj
 0004:00001d04       $pdata$__acrt_update_thread_locale_data 0000000180042d04     libucrt:locale_refcounting.obj
 0004:00001d10       $pdata$_updatetlocinfoEx_nolock 0000000180042d10     libucrt:locale_refcounting.obj
 0004:00001d1c       $pdata$?GetTableIndexFromLocaleName@@YAHPEB_W@Z 0000000180042d1c     libucrt:lcidtoname_downlevel.obj
 0004:00001d28       $pdata$__acrt_DownlevelLocaleNameToLCID 0000000180042d28     libucrt:lcidtoname_downlevel.obj
 0004:00001d34       $pdata$__acrt_lowio_create_handle_array 0000000180042d34     libucrt:osfinfo.obj
 0004:00001d40       $pdata$__acrt_lowio_destroy_handle_array 0000000180042d40     libucrt:osfinfo.obj
 0004:00001d4c       $pdata$__acrt_lowio_ensure_fh_exists 0000000180042d4c     libucrt:osfinfo.obj
 0004:00001d58       $pdata$__acrt_lowio_set_os_handle 0000000180042d58     libucrt:osfinfo.obj
 0004:00001d64       $pdata$_alloc_osfhnd       0000000180042d64     libucrt:osfinfo.obj
 0004:00001d70       $pdata$_free_osfhnd        0000000180042d70     libucrt:osfinfo.obj
 0004:00001d7c       $pdata$_get_osfhandle      0000000180042d7c     libucrt:osfinfo.obj
 0004:00001d88       $pdata$_isleadbyte_l       0000000180042d88     libucrt:_wctype.obj
 0004:00001d94       $pdata$?__acrt_LCMapStringA_stat@@YAHPEAU__crt_locale_pointers@@PEB_WKPEBDHPEADHHH@Z 0000000180042d94     libucrt:lcmapstringa.obj
 0004:00001da0       $pdata$__acrt_LCMapStringA 0000000180042da0     libucrt:lcmapstringa.obj
 0004:00001dac       $pdata$__acrt_fp_strflt_to_string 0000000180042dac     libucrt:_fptostr.obj
 0004:00001db8       $pdata$?divide@__crt_strtox@@YA_KAEAUbig_integer@1@AEBU21@@Z 0000000180042db8     libucrt:cfout.obj
 0004:00001dc4       $pdata$5$?divide@__crt_strtox@@YA_KAEAUbig_integer@1@AEBU21@@Z 0000000180042dc4     libucrt:cfout.obj
 0004:00001dd0       $pdata$6$?divide@__crt_strtox@@YA_KAEAUbig_integer@1@AEBU21@@Z 0000000180042dd0     libucrt:cfout.obj
 0004:00001ddc       $pdata$__acrt_fltout       0000000180042ddc     libucrt:cfout.obj
 0004:00001de8       $pdata$memcpy_s            0000000180042de8     libucrt:cfout.obj
 0004:00001df4       $pdata$??$write_buffer_nolock@D@@YA_NDV__crt_stdio_stream@@@Z 0000000180042df4     libucrt:_flsbuf.obj
 0004:00001e00       $pdata$??$write_buffer_nolock@_W@@YA_N_WV__crt_stdio_stream@@@Z 0000000180042e00     libucrt:_flsbuf.obj
 0004:00001e0c       $pdata$__acrt_stdio_flush_and_write_narrow_nolock 0000000180042e0c     libucrt:_flsbuf.obj
 0004:00001e18       $pdata$__acrt_stdio_flush_and_write_wide_nolock 0000000180042e18     libucrt:_flsbuf.obj
 0004:00001e24       $pdata$_isatty             0000000180042e24     libucrt:isatty.obj
 0004:00001e30       $pdata$__acrt_locale_free_monetary 0000000180042e30     libucrt:initmon.obj
 0004:00001e3c       $pdata$__acrt_locale_free_numeric 0000000180042e3c     libucrt:initnum.obj
 0004:00001e48       $pdata$?free_crt_array_internal@@YAXQEAPEBX_K@Z 0000000180042e48     libucrt:inittime.obj
 0004:00001e54       $pdata$__acrt_locale_free_time 0000000180042e54     libucrt:inittime.obj
 0004:00001e60       $pdata$__acrt_GetStringTypeA 0000000180042e60     libucrt:getstringtypea.obj
 0004:00001e78       $pdata$_strnicmp           0000000180042e78     libucrt:strnicmp.obj
 0004:00001e84       $pdata$_strnicmp_l         0000000180042e84     libucrt:strnicmp.obj
 0004:00001e90       $pdata$??$common_sopen_dispatch@D@@YAHQEBDHHHQEAHH@Z 0000000180042e90     libucrt:open.obj
 0004:00001e9c       $pdata$?configure_text_mode@@YAHHUfile_options@?A0x656cf9f4@@HAEAW4__crt_lowio_text_mode@@@Z 0000000180042e9c     libucrt:open.obj
 0004:00001ea8       $pdata$?decode_options@@YA?AUfile_options@?A0x656cf9f4@@HHH@Z 0000000180042ea8     libucrt:open.obj
 0004:00001eb4       $pdata$?truncate_ctrl_z_if_present@@YAHH@Z 0000000180042eb4     libucrt:open.obj
 0004:00001ec0       $pdata$_sopen_nolock       0000000180042ec0     libucrt:open.obj
 0004:00001ecc       $pdata$_sopen_s            0000000180042ecc     libucrt:open.obj
 0004:00001ed8       $pdata$_wsopen_nolock      0000000180042ed8     libucrt:open.obj
 0004:00001ee4       $pdata$__acrt_stdio_allocate_buffer_nolock 0000000180042ee4     libucrt:_getbuf.obj
 0004:00001ef0       $pdata$?shortsort@@YAXPEAD0_KP6AHPEBX2@Z@Z 0000000180042ef0     libucrt:qsort.obj
 0004:00001efc       $pdata$2$?shortsort@@YAXPEAD0_KP6AHPEBX2@Z@Z 0000000180042efc     libucrt:qsort.obj
 0004:00001f08       $pdata$3$?shortsort@@YAXPEAD0_KP6AHPEBX2@Z@Z 0000000180042f08     libucrt:qsort.obj
 0004:00001f14       $pdata$qsort               0000000180042f14     libucrt:qsort.obj
 0004:00001f20       $pdata$4$qsort             0000000180042f20     libucrt:qsort.obj
 0004:00001f2c       $pdata$5$qsort             0000000180042f2c     libucrt:qsort.obj
 0004:00001f38       $pdata$strncpy_s           0000000180042f38     libucrt:strncpy_s.obj
 0004:00001f44       $pdata$strpbrk             0000000180042f44     libucrt:strpbrk.obj
 0004:00001f50       $pdata$_mbsdec_l           0000000180042f50     libucrt:mbsdec.obj
 0004:00001f5c       $pdata$?initialize_multibyte@@YAHXZ 0000000180042f5c     libucrt:multibyte_initializer.obj
 0004:00001f68       $pdata$_msize              0000000180042f68     libucrt:msize.obj
 0004:00001f74       $pdata$_putwch_nolock      0000000180042f74     libucrt:putwch.obj
 0004:00001f8c       $pdata$fegetenv            0000000180042f8c     libucrt:fegetenv.obj
 0004:00001f98       $pdata$fesetenv            0000000180042f98     libucrt:fesetenv.obj
 0004:00001fa4       $pdata$feholdexcept        0000000180042fa4     libucrt:feholdexcept.obj
 0004:00001fbc       $pdata$_get_fmode          0000000180042fbc     libucrt:setmode.obj
 0004:00001fc8       $pdata$_setmode_nolock     0000000180042fc8     libucrt:setmode.obj
 0004:00001fd4       $pdata$__acrt_copy_path_to_wide_string 0000000180042fd4     libucrt:string_utilities.obj
 0004:00001fe0       $pdata$_chsize_nolock      0000000180042fe0     libucrt:chsize.obj
 0004:00001fec       $pdata$__dcrt_lowio_initialize_console_output 0000000180042fec     libucrt:initcon.obj
 0004:00001ff8       $pdata$__dcrt_terminate_console_output 0000000180042ff8     libucrt:initcon.obj
 0004:00002004       $pdata$_getfpcontrolword   0000000180043004     libucrt:_fenvutils.obj
 0004:00002010       $pdata$_getfpstatusword    0000000180043010     libucrt:_fenvutils.obj
 0004:0000201c       $pdata$_setfpstatusword    000000018004301c     libucrt:_fenvutils.obj
 0004:00002028       $pdata$_clearfp            0000000180043028     libucrt:ieee.obj
 0004:00002034       $pdata$common_control87    0000000180043034     libucrt:ieee.obj
 0004:00002040       $pdata$__acrt_initialize_fma3 0000000180043040     libucrt:fma3_available.obj
 0004:0000204c       $pdata$_log10_special      000000018004304c     libucrt:log_special.obj
 0004:00002058       $pdata$_log_special_common 0000000180043058     libucrt:log_special.obj
 0004:00002064       $pdata$_IsNonwritableInCurrentImage 0000000180043064     LIBCMT:pesect.obj
 0004:00002070       $pdata$__GSHandlerCheck    0000000180043070     LIBCMT:_gshandler_.obj
 0004:0000207c       $pdata$__GSHandlerCheckCommon 000000018004307c     LIBCMT:_gshandler_.obj
 0004:00002094       $pdata$strrchr             0000000180043094     libvcruntime:strrchr.obj
 0004:000020ac       $pdata$__GSHandlerCheck_EH 00000001800430ac     LIBCMT:gshandlereh.obj
 0004:000020b8       $pdata$acos                00000001800430b8     libucrt:acos.obj
 0004:000020c4       $pdata$acosf               00000001800430c4     libucrt:acosf.obj
 0004:000020d0       $pdata$fmodf               00000001800430d0     libucrt:fmodf.obj
 0004:000020dc       $pdata$sqrtf               00000001800430dc     libucrt:sqrtf.obj
 0004:0000210c       $pdata$_sincos_special     000000018004310c     libucrt:sincos_special.obj
 0004:00002178       $pdata$__scrt_is_nonwritable_in_current_image$filt$0 0000000180043178     LIBCMT:utility.obj
 0004:00002184       $pdata$?fin$0@?0??dllmain_crt_process_attach@@YAHQEAUHINSTANCE__@@QEAX@Z@4HA 0000000180043184     LIBCMT:dll_dllmain.obj
 0004:00002190       $pdata$?fin$0@?0??dllmain_crt_process_detach@@YAH_N@Z@4HA 0000000180043190     LIBCMT:dll_dllmain.obj
 0004:0000219c       $pdata$?filt$0@?0??dllmain_dispatch@@YAHQEAUHINSTANCE__@@KQEAX@Z@4HA 000000018004319c     LIBCMT:dll_dllmain.obj
 0004:000021a8       $pdata$__CxxCallCatchBlock$filt$0 00000001800431a8     libvcruntime:frame.obj
 0004:000021b4       $pdata$__CxxCallCatchBlock$fin$1 00000001800431b4     libvcruntime:frame.obj
 0004:000021c0       $pdata$__DestructExceptionObject$filt$0 00000001800431c0     libvcruntime:frame.obj
 0004:000021cc       $pdata$__FrameUnwindToState$filt$0 00000001800431cc     libvcruntime:frame.obj
 0004:000021d8       $pdata$__FrameUnwindToState$fin$1 00000001800431d8     libvcruntime:frame.obj
 0004:000021e4       $pdata$_CallSETranslator$filt$0 00000001800431e4     libvcruntime:trnsctrl.obj
 0004:000021f0       $pdata$?fin$0@?0???$common_fsopen@D@@YAPEAU_iobuf@@QEBD0H@Z@4HA 00000001800431f0     libucrt:fopen.obj
 0004:000021fc       $pdata$fflush$fin$0        00000001800431fc     libucrt:fflush.obj
 0004:000021fc       $pdata$fclose$fin$0        00000001800431fc     libucrt:fclose.obj
 0004:00002208       $pdata$?fin$0@?0??common_fseek@@YAHV__crt_stdio_stream@@_JH@Z@4HA 0000000180043208     libucrt:fseek.obj
 0004:00002214       $pdata$fread_s$fin$0       0000000180043214     libucrt:fread.obj
 0004:00002220       $pdata$_query_new_handler$fin$0 0000000180043220     libucrt:new_handler.obj
 0004:0000222c       $pdata$?filt$0@?0??common_exit@@YAXHW4_crt_exit_cleanup_mode@@W4_crt_exit_return_mode@@@Z@4HA 000000018004322c     libucrt:exit.obj
 0004:00002238       $pdata$?fin$1@?0??common_exit@@YAXHW4_crt_exit_cleanup_mode@@W4_crt_exit_return_mode@@@Z@4HA 0000000180043238     libucrt:exit.obj
 0004:00002244       $pdata$?fin$0@?0???$?RV<lambda_b8c45f8f788dd370798f47cfe8ac3a86>@@AEAV<lambda_4e60a939b0d047cfe11ddc22648dfba9>@@V<lambda_332c3edc96d0294ec56c57d38c1cdfd5>@@@?$__crt_seh_guarded_call@H@@QEAAH$$QEAV<lambda_b8c45f8f788dd370798f47cfe8ac3a86>@@AEAV<lambda_4e60a939b0d047cfe11ddc22648dfba9>@@$$QEAV<lambda_332c3edc96d0294ec56c57d38c1cdfd5>@@@Z@4HA 0000000180043244     libucrt:onexit.obj
 0004:00002244       $pdata$?fin$0@?0???$?RV<lambda_99476a1ad63dd22509b5d3e65b0ffc95>@@AEAV<lambda_ad1ced32f4ac17aa236e5ef05d6b3b7c>@@V<lambda_f7424dd8d45958661754dc4f2697e9c3>@@@?$__crt_seh_guarded_call@X@@QEAAX$$QEAV<lambda_99476a1ad63dd22509b5d3e65b0ffc95>@@AEAV<lambda_ad1ced32f4ac17aa236e5ef05d6b3b7c>@@$$QEAV<lambda_f7424dd8d45958661754dc4f2697e9c3>@@@Z@4HA 0000000180043244     libucrt:mbctype.obj
 0004:00002244       $pdata$?fin$0@?0???$?RV<lambda_5e887d1dcbef67a5eb4283622ba103bf>@@AEAV<lambda_4466841279450cc726390878d4a41900>@@V<lambda_341c25c0346d94847f1f3c463c57e077>@@@?$__crt_seh_guarded_call@X@@QEAAX$$QEAV<lambda_5e887d1dcbef67a5eb4283622ba103bf>@@AEAV<lambda_4466841279450cc726390878d4a41900>@@$$QEAV<lambda_341c25c0346d94847f1f3c463c57e077>@@@Z@4HA 0000000180043244     libucrt:per_thread_data.obj
 0004:00002244       $pdata$?fin$0@?0???$?RV<lambda_46352004c1216016012b18bd6f87e700>@@AEAV<lambda_3bd07e1a1191394380780325891bf33f>@@V<lambda_334532d3f185bcaa59b5be82d7d22bff>@@@?$__crt_seh_guarded_call@X@@QEAAX$$QEAV<lambda_46352004c1216016012b18bd6f87e700>@@AEAV<lambda_3bd07e1a1191394380780325891bf33f>@@$$QEAV<lambda_334532d3f185bcaa59b5be82d7d22bff>@@@Z@4HA 0000000180043244     libucrt:per_thread_data.obj
 0004:00002244       $pdata$?fin$0@?0???$?RV<lambda_72d1df2b273a38828b1ce30cbf4cdab5>@@AEAV<lambda_876a65b173b8412d3a47c70a915b0cf4>@@V<lambda_41932305e351933ebe8f8be3ed8bb5dc>@@@?$__crt_seh_guarded_call@X@@QEAAX$$QEAV<lambda_72d1df2b273a38828b1ce30cbf4cdab5>@@AEAV<lambda_876a65b173b8412d3a47c70a915b0cf4>@@$$QEAV<lambda_41932305e351933ebe8f8be3ed8bb5dc>@@@Z@4HA 0000000180043244     libucrt:per_thread_data.obj
 0004:00002244       $pdata$?fin$0@?0???$?RV<lambda_c36588078e9f5dfd39652860aa6b3aaf>@@AEAV<lambda_ec61778202f4f5fc7e7711acc23c3bca>@@V<lambda_dc9d2797ccde5d239b4a0efae8ebd7db>@@@?$__crt_seh_guarded_call@P6AXH@Z@@QEAAP6AXH@Z$$QEAV<lambda_c36588078e9f5dfd39652860aa6b3aaf>@@AEAV<lambda_ec61778202f4f5fc7e7711acc23c3bca>@@$$QEAV<lambda_dc9d2797ccde5d239b4a0efae8ebd7db>@@@Z@4HA 0000000180043244     libucrt:signal.obj
 0004:00002244       $pdata$?fin$0@?0???$?RV<lambda_fb3a7dec4e47f37f22dae91bb15c9095>@@AEAV<lambda_698284760c8add0bfb0756c19673e34b>@@V<lambda_dfb8eca1e75fef3034a8fb18dd509707>@@@?$__crt_seh_guarded_call@X@@QEAAX$$QEAV<lambda_fb3a7dec4e47f37f22dae91bb15c9095>@@AEAV<lambda_698284760c8add0bfb0756c19673e34b>@@$$QEAV<lambda_dfb8eca1e75fef3034a8fb18dd509707>@@@Z@4HA 0000000180043244     libucrt:per_thread_data.obj
 0004:00002250       $pdata$?fin$0@?0???$?RV<lambda_e24bbb7b643b32fcea6fa61b31d4c984>@@AEAV<lambda_275893d493268fdec8709772e3fcec0e>@@V<lambda_9d71df4d7cf3f480f8d633942495c3b0>@@@?$__crt_seh_guarded_call@H@@QEAAH$$QEAV<lambda_e24bbb7b643b32fcea6fa61b31d4c984>@@AEAV<lambda_275893d493268fdec8709772e3fcec0e>@@$$QEAV<lambda_9d71df4d7cf3f480f8d633942495c3b0>@@@Z@4HA 0000000180043250     libucrt:onexit.obj
 0004:0000225c       $pdata$common_flush_all$fin$0 000000018004325c     libucrt:fflush.obj
 0004:00002268       $pdata$common_flush_all$fin$1 0000000180043268     libucrt:fflush.obj
 0004:00002274       $pdata$?fin$0@?0???$?RV<lambda_7a5ef57ff966f610505f1d28a3d40618>@@AEAV<lambda_b721fa326cdb32351d23dfa67958c160>@@V<lambda_5e0fb27672408a07956fe59e48ccb2aa>@@@?$__crt_seh_guarded_call@H@@QEAAH$$QEAV<lambda_7a5ef57ff966f610505f1d28a3d40618>@@AEAV<lambda_b721fa326cdb32351d23dfa67958c160>@@$$QEAV<lambda_5e0fb27672408a07956fe59e48ccb2aa>@@@Z@4HA 0000000180043274     libucrt:setvbuf.obj
 0004:00002274       $pdata$?fin$0@?0???$?RV<lambda_7b91131dde12e1c3dfc74ff76b3f2eac>@@AEAV<lambda_dd75445284c072d0bd3768540cc698fa>@@V<lambda_16bc4ecb55b4718497c16bceaea2ceaf>@@@?$__crt_seh_guarded_call@H@@QEAAH$$QEAV<lambda_7b91131dde12e1c3dfc74ff76b3f2eac>@@AEAV<lambda_dd75445284c072d0bd3768540cc698fa>@@$$QEAV<lambda_16bc4ecb55b4718497c16bceaea2ceaf>@@@Z@4HA 0000000180043274     libucrt:output.obj
 0004:00002280       $pdata$raise$fin$0         0000000180043280     libucrt:signal.obj
 0004:0000228c       $pdata$_fcloseall$fin$0    000000018004328c     libucrt:closeall.obj
 0004:0000228c       $pdata$?fin$0@?0??__acrt_stdio_allocate_stream@@YA?AV__crt_stdio_stream@@XZ@4HA 000000018004328c     libucrt:stream.obj
 0004:00002298       $pdata$__acrt_update_thread_locale_data$fin$0 0000000180043298     libucrt:locale_refcounting.obj
 0004:00002298       $pdata$__acrt_uninitialize_locale$fin$0 0000000180043298     libucrt:wsetlocale.obj
 0004:000022a4       $pdata$?fin$0@?0???$?RV<lambda_bfedae4ebbf01fab1bb6dcc6a9e276e0>@@AEAV<lambda_2fe9b910cf3cbf4a0ab98a02ba45b3ec>@@V<lambda_237c231691f317818eb88cc1d5d642d6>@@@?$__crt_seh_guarded_call@H@@QEAAH$$QEAV<lambda_bfedae4ebbf01fab1bb6dcc6a9e276e0>@@AEAV<lambda_2fe9b910cf3cbf4a0ab98a02ba45b3ec>@@$$QEAV<lambda_237c231691f317818eb88cc1d5d642d6>@@@Z@4HA 00000001800432a4     libucrt:close.obj
 0004:000022a4       $pdata$?fin$0@?0???$?RV<lambda_b521505b218e5242e90febf6bfebc422>@@AEAV<lambda_6978c1fb23f02e42e1d9e99668cc68aa>@@V<lambda_314360699dd331753a4119843814e9a7>@@@?$__crt_seh_guarded_call@H@@QEAAH$$QEAV<lambda_b521505b218e5242e90febf6bfebc422>@@AEAV<lambda_6978c1fb23f02e42e1d9e99668cc68aa>@@$$QEAV<lambda_314360699dd331753a4119843814e9a7>@@@Z@4HA 00000001800432a4     libucrt:commit.obj
 0004:000022b0       $pdata$_read$fin$0         00000001800432b0     libucrt:read.obj
 0004:000022b0       $pdata$_write$fin$0        00000001800432b0     libucrt:write.obj
 0004:000022b0       $pdata$?fin$0@?0???$common_lseek@_J@@YA_JH_JH@Z@4HA 00000001800432b0     libucrt:lseek.obj
 0004:000022bc       $pdata$__acrt_update_thread_multibyte_data$fin$0 00000001800432bc     libucrt:mbctype.obj
 0004:000022c8       $pdata$_alloc_osfhnd$fin$0 00000001800432c8     libucrt:osfinfo.obj
 0004:000022c8       $pdata$__acrt_initialize_lowio$fin$0 00000001800432c8     libucrt:ioinit.obj
 0004:000022c8       $pdata$__acrt_lowio_ensure_fh_exists$fin$0 00000001800432c8     libucrt:osfinfo.obj
 0004:000022d4       $pdata$?fin$0@?0???$common_sopen_dispatch@D@@YAHQEBDHHHQEAHH@Z@4HA 00000001800432d4     libucrt:open.obj
 0004:000022e0       $pdata$common_control87$filt$0 00000001800432e0     libucrt:ieee.obj
 0004:000022e0       $pdata$_ctrlfp$filt$0      00000001800432e0     libucrt:fpctrl.obj
 0004:000022ec       $pdata$_IsNonwritableInCurrentImage$filt$0 00000001800432ec     LIBCMT:pesect.obj
 0004:000022f8       $pdata$??__F?constructor@Canvas@@2V?$Persistent@VFunctionTemplate@v8@@V?$NonCopyablePersistentTraits@VFunctionTemplate@v8@@@2@@Nan@@A@@YAXXZ 00000001800432f8     Canvas.obj
 0004:00002304       $pdata$??__F?constructor@Gradient@@2V?$Persistent@VFunctionTemplate@v8@@V?$NonCopyablePersistentTraits@VFunctionTemplate@v8@@@2@@Nan@@A@@YAXXZ 0000000180043304     CanvasGradient.obj
 0004:00002310       $pdata$??__F?constructor@Pattern@@2V?$Persistent@VFunctionTemplate@v8@@V?$NonCopyablePersistentTraits@VFunctionTemplate@v8@@@2@@Nan@@A@@YAXXZ 0000000180043310     CanvasPattern.obj
 0004:0000231c       $pdata$??__F?constructor@Context2d@@2V?$Persistent@VFunctionTemplate@v8@@V?$NonCopyablePersistentTraits@VFunctionTemplate@v8@@@2@@Nan@@A@@YAXXZ 000000018004331c     CanvasRenderingContext2d.obj
 0004:00002328       $pdata$??__F?constructor@Image@@2V?$Persistent@VFunctionTemplate@v8@@V?$NonCopyablePersistentTraits@VFunctionTemplate@v8@@@2@@Nan@@A@@YAXXZ 0000000180043328     Image.obj
 0004:00002334       $pdata$??__F?constructor@ImageData@@2V?$Persistent@VFunctionTemplate@v8@@V?$NonCopyablePersistentTraits@VFunctionTemplate@v8@@@2@@Nan@@A@@YAXXZ 0000000180043334     ImageData.obj
 0005:00000000       __guard_fids__             0000000180044000     libucrt:initialization.obj
 0005:00000060       __guard_fids___acrt_show_wide_message_box 0000000180044060     libucrt:crtmbox.obj
 0005:00000064       __guard_fids___acrt_initialize_ptd 0000000180044064     libucrt:per_thread_data.obj
 0005:00000068       __guard_fids__             0000000180044068     libucrt:stdio_initializer.obj
 0005:0000006c       __guard_fids__             000000018004406c     libucrt:stdio_initializer.obj
 0005:00000070       __guard_fids_??$expand_argument_wildcards@D@@YAHQEAD0AEAV?$argument_list@D@?A0xca0879c4@@@Z 0000000180044070     libucrt:argv_wildcards.obj
 0005:00000074       __guard_fids__             0000000180044074     libucrt:locale_initializer.obj
 0005:00000078       __guard_fids__             0000000180044078     libucrt:multibyte_initializer.obj
 0005:0000007c       __guard_fids__             000000018004407c     libucrt:console_output_initializer.obj
 0005:00000080       __guard_fids__             0000000180044080     libucrt:fma3_initializer.obj
 0005:00000084       __guard_fids__             0000000180044084     libcpmt:xthrow.obj
 0005:0000008c       __guard_fids__             000000018004408c     libcpmt:xthrow.obj
 0005:00000094       __guard_fids__             0000000180044094     libcpmt:xthrow.obj
 0005:0000009c       __guard_fids__             000000018004409c     libcpmt:xthrow.obj
 0005:000000a4       __guard_fids_?dllmain_crt_process_attach@@YAHQEAUHINSTANCE__@@QEAX@Z 00000001800440a4     LIBCMT:dll_dllmain.obj
 0005:000000ac       __guard_fids_?dllmain_dispatch@@YAHQEAUHINSTANCE__@@KQEAX@Z 00000001800440ac     LIBCMT:dll_dllmain.obj
 0005:000000b0       __guard_fids__             00000001800440b0     LIBCMT:std_type_info_static.obj
 0005:000000b4       __guard_fids__             00000001800440b4     LIBCMT:throw_bad_alloc.obj
 0005:000000bc       __guard_fids__             00000001800440bc     LIBCMT:guard_support.obj
 0005:000000c0       __guard_fids__             00000001800440c0     libvcruntime:frame.obj
 0005:000000c4       __guard_fids__             00000001800440c4     libvcruntime:frame.obj
 0005:000000cc       __guard_fids___vcrt_initialize_ptd 00000001800440cc     libvcruntime:per_thread_data.obj
 0005:000000d0       __guard_fids__UnwindNestedFrames 00000001800440d0     libvcruntime:trnsctrl.obj
 0006:00000060       $R000000                   0000000180045060     * linker generated manifest res *

 Exports

  ordinal    name

        1    _register_canvas_
